ARM GAS  C:\Users\ysl\AppData\Local\Temp\ccJ1ill4.s 			page 1


   1              		.cpu cortex-m4
   2              		.arch armv7e-m
   3              		.fpu fpv4-sp-d16
   4              		.eabi_attribute 27, 1
   5              		.eabi_attribute 28, 1
   6              		.eabi_attribute 20, 1
   7              		.eabi_attribute 21, 1
   8              		.eabi_attribute 23, 3
   9              		.eabi_attribute 24, 1
  10              		.eabi_attribute 25, 1
  11              		.eabi_attribute 26, 1
  12              		.eabi_attribute 30, 1
  13              		.eabi_attribute 34, 1
  14              		.eabi_attribute 18, 4
  15              		.file	"Follow_Balance.c"
  16              		.text
  17              	.Ltext0:
  18              		.cfi_sections	.debug_frame
  19              		.global	__aeabi_f2d
  20              		.global	__aeabi_dsub
  21              		.global	__aeabi_dmul
  22              		.global	__aeabi_d2f
  23              		.global	__aeabi_dadd
  24              		.global	__aeabi_i2d
  25              		.global	__aeabi_dcmpgt
  26              		.global	__aeabi_dcmplt
  27              		.global	__aeabi_d2uiz
  28              		.global	__aeabi_d2iz
  29              		.global	__aeabi_dcmpeq
  30              		.section	.text.Follow_Balance_step,"ax",%progbits
  31              		.align	1
  32              		.global	Follow_Balance_step
  33              		.syntax unified
  34              		.thumb
  35              		.thumb_func
  37              	Follow_Balance_step:
  38              	.LFB238:
  39              		.file 1 "Follow_Balance.c"
   1:Follow_Balance.c **** /*
   2:Follow_Balance.c ****  * File: Follow_Balance.c
   3:Follow_Balance.c ****  *
   4:Follow_Balance.c ****  * Code generated for Simulink model 'Follow_Balance'.
   5:Follow_Balance.c ****  *
   6:Follow_Balance.c ****  * Model version                  : 1.6
   7:Follow_Balance.c ****  * Simulink Coder version         : 9.6 (R2021b) 14-May-2021
   8:Follow_Balance.c ****  * C/C++ source code generated on : Tue Apr 11 20:11:05 2023
   9:Follow_Balance.c ****  *
  10:Follow_Balance.c ****  * Target selection: stacklite_dualdrive.tlc
  11:Follow_Balance.c ****  * Embedded hardware selection: Intel->x86-64 (Windows64)
  12:Follow_Balance.c ****  * Code generation objectives: Unspecified
  13:Follow_Balance.c ****  * Validation result: Not run
  14:Follow_Balance.c ****  */
  15:Follow_Balance.c **** 
  16:Follow_Balance.c **** #include "ifr-scope_device.h"
  17:Follow_Balance.c **** #include "main.h"
  18:Follow_Balance.c **** #include "tim.h"
  19:Follow_Balance.c **** #include "gpio.h"
ARM GAS  C:\Users\ysl\AppData\Local\Temp\ccJ1ill4.s 			page 2


  20:Follow_Balance.c **** #include "stdio.h"
  21:Follow_Balance.c **** #include <string.h>
  22:Follow_Balance.c **** #include "Follow_Balance.h"
  23:Follow_Balance.c **** #include "Follow_Balance_private.h"
  24:Follow_Balance.c **** 
  25:Follow_Balance.c **** const uint8_T Follow_Balance_U8GND = 0U;/* uint8_T ground */
  26:Follow_Balance.c **** 
  27:Follow_Balance.c **** /* Block signals (default storage) */
  28:Follow_Balance.c **** B_Follow_Balance_T Follow_Balance_B;
  29:Follow_Balance.c **** 
  30:Follow_Balance.c **** /* Block states (default storage) */
  31:Follow_Balance.c **** DW_Follow_Balance_T Follow_Balance_DW;
  32:Follow_Balance.c **** 
  33:Follow_Balance.c **** /* Real-time model */
  34:Follow_Balance.c **** static RT_MODEL_Follow_Balance_T Follow_Balance_M_;
  35:Follow_Balance.c **** RT_MODEL_Follow_Balance_T *const Follow_Balance_M = &Follow_Balance_M_;
  36:Follow_Balance.c **** extern struct _datalink_upframedata DataLink_UpFrameData;//data Up to Host
  37:Follow_Balance.c **** extern int16_t HI226_Angle[3];
  38:Follow_Balance.c **** extern int16_t HI226_AngleV[3];
  39:Follow_Balance.c **** extern int16_t adc_rawvalue[2][5];
  40:Follow_Balance.c **** extern int16_t motor1_PwmData;
  41:Follow_Balance.c **** extern int16_t motor2_PwmData;
  42:Follow_Balance.c **** extern uint8_t led_data;
  43:Follow_Balance.c **** extern uint8_t ws2812_data[3];
  44:Follow_Balance.c **** extern union _floatchar DataLink_RevData[10];//data config from host
  45:Follow_Balance.c **** extern int32_t RPi_Revdata[4];         //data rev from RPi
  46:Follow_Balance.c **** 
  47:Follow_Balance.c **** /* Model step function */
  48:Follow_Balance.c **** void Follow_Balance_step(void)
  49:Follow_Balance.c **** {
  40              		.loc 1 49 1 view -0
  41              		.cfi_startproc
  42              		@ args = 0, pretend = 0, frame = 24
  43              		@ frame_needed = 0, uses_anonymous_args = 0
  44 0000 2DE9F04F 		push	{r4, r5, r6, r7, r8, r9, r10, fp, lr}
  45              	.LCFI0:
  46              		.cfi_def_cfa_offset 36
  47              		.cfi_offset 4, -36
  48              		.cfi_offset 5, -32
  49              		.cfi_offset 6, -28
  50              		.cfi_offset 7, -24
  51              		.cfi_offset 8, -20
  52              		.cfi_offset 9, -16
  53              		.cfi_offset 10, -12
  54              		.cfi_offset 11, -8
  55              		.cfi_offset 14, -4
  56 0004 2DED068B 		vpush.64	{d8, d9, d10}
  57              	.LCFI1:
  58              		.cfi_def_cfa_offset 60
  59              		.cfi_offset 80, -60
  60              		.cfi_offset 81, -56
  61              		.cfi_offset 82, -52
  62              		.cfi_offset 83, -48
  63              		.cfi_offset 84, -44
  64              		.cfi_offset 85, -40
  65 0008 87B0     		sub	sp, sp, #28
  66              	.LCFI2:
ARM GAS  C:\Users\ysl\AppData\Local\Temp\ccJ1ill4.s 			page 3


  67              		.cfi_def_cfa_offset 88
  50:Follow_Balance.c ****   real_T rtb_Add1;
  68              		.loc 1 50 3 view .LVU1
  51:Follow_Balance.c ****   real_T tmp;
  69              		.loc 1 51 3 view .LVU2
  52:Follow_Balance.c ****   int32_T angle_yaw;
  70              		.loc 1 52 3 view .LVU3
  53:Follow_Balance.c ****   int32_T rtb_Add1_m;
  71              		.loc 1 53 3 view .LVU4
  54:Follow_Balance.c ****   real32_T rtb_Add1_e;
  72              		.loc 1 54 3 view .LVU5
  55:Follow_Balance.c ****   real32_T rtb_Product3_p;
  73              		.loc 1 55 3 view .LVU6
  56:Follow_Balance.c **** 
  57:Follow_Balance.c ****   /* S-Function (StackLiteDualDrive_Input): '<Root>/Input' */
  58:Follow_Balance.c ****   /*Input Data*/
  59:Follow_Balance.c ****   memcpy(&Follow_Balance_B.angle[0],HI226_Angle,3*2);
  74              		.loc 1 59 3 view .LVU7
  75 000a C94B     		ldr	r3, .L185+8
  76 000c C94A     		ldr	r2, .L185+12
  77 000e 1068     		ldr	r0, [r2]	@ unaligned
  78 0010 C3F88000 		str	r0, [r3, #128]
  79 0014 9288     		ldrh	r2, [r2, #4]	@ unaligned
  80 0016 A3F88420 		strh	r2, [r3, #132]	@ unaligned
  60:Follow_Balance.c ****   memcpy(&Follow_Balance_B.anglev[0],HI226_AngleV,3*2);
  81              		.loc 1 60 3 view .LVU8
  82 001a C74A     		ldr	r2, .L185+16
  83 001c 1168     		ldr	r1, [r2]	@ unaligned
  84 001e C3F88610 		str	r1, [r3, #134]	@ unaligned
  85 0022 9288     		ldrh	r2, [r2, #4]	@ unaligned
  86 0024 A3F88A20 		strh	r2, [r3, #138]	@ unaligned
  61:Follow_Balance.c ****   Follow_Balance_B.encoder1= (int32_t)(__HAL_TIM_GetCounter(&htim5));
  87              		.loc 1 61 3 view .LVU9
  88              		.loc 1 61 40 is_stmt 0 view .LVU10
  89 0028 C44A     		ldr	r2, .L185+20
  90 002a 1268     		ldr	r2, [r2]
  91 002c 526A     		ldr	r2, [r2, #36]
  92              		.loc 1 61 28 view .LVU11
  93 002e 9A66     		str	r2, [r3, #104]
  62:Follow_Balance.c ****   Follow_Balance_B.encoder2= -(int32_t)(__HAL_TIM_GetCounter(&htim2));
  94              		.loc 1 62 3 is_stmt 1 view .LVU12
  95              		.loc 1 62 41 is_stmt 0 view .LVU13
  96 0030 C34A     		ldr	r2, .L185+24
  97 0032 1268     		ldr	r2, [r2]
  98 0034 526A     		ldr	r2, [r2, #36]
  99              		.loc 1 62 30 view .LVU14
 100 0036 5242     		rsbs	r2, r2, #0
 101              		.loc 1 62 28 view .LVU15
 102 0038 DA66     		str	r2, [r3, #108]
  63:Follow_Balance.c ****   memcpy(&Follow_Balance_B.current1[0],adc_rawvalue[0],5*2);
 103              		.loc 1 63 3 is_stmt 1 view .LVU16
 104 003a C24A     		ldr	r2, .L185+28
 105 003c 03F18C04 		add	r4, r3, #140
 106 0040 1068     		ldr	r0, [r2]	@ unaligned
 107 0042 5168     		ldr	r1, [r2, #4]	@ unaligned
 108 0044 03C4     		stmia	r4!, {r0, r1}
 109 0046 1189     		ldrh	r1, [r2, #8]	@ unaligned
ARM GAS  C:\Users\ysl\AppData\Local\Temp\ccJ1ill4.s 			page 4


 110 0048 2180     		strh	r1, [r4]	@ unaligned
  64:Follow_Balance.c ****   memcpy(&Follow_Balance_B.current2[0],adc_rawvalue[1],5*2);
 111              		.loc 1 64 3 view .LVU17
 112 004a D2F80A00 		ldr	r0, [r2, #10]	@ unaligned
 113 004e D2F80E10 		ldr	r1, [r2, #14]	@ unaligned
 114 0052 C3F89600 		str	r0, [r3, #150]	@ unaligned
 115 0056 C3F89A10 		str	r1, [r3, #154]	@ unaligned
 116 005a 528A     		ldrh	r2, [r2, #18]	@ unaligned
 117 005c A3F89E20 		strh	r2, [r3, #158]	@ unaligned
  65:Follow_Balance.c **** 
  66:Follow_Balance.c ****   /* Sum: '<S12>/Add4' incorporates:
  67:Follow_Balance.c ****    *  Delay: '<S12>/Delay One Step'
  68:Follow_Balance.c ****    *  Gain: '<S12>/Gain'
  69:Follow_Balance.c ****    *  Gain: '<S12>/Gain1'
  70:Follow_Balance.c ****    *  Gain: '<S12>/Gain2'
  71:Follow_Balance.c ****    *  Gain: '<S12>/Gain3'
  72:Follow_Balance.c ****    *  Gain: '<S12>/Gain4'
  73:Follow_Balance.c ****    *  Gain: '<S12>/Gain5'
  74:Follow_Balance.c ****    *  Gain: '<S12>/Gain6'
  75:Follow_Balance.c ****    *  Gain: '<S12>/Gain7'
  76:Follow_Balance.c ****    *  Gain: '<S12>/Gain8'
  77:Follow_Balance.c ****    *  Gain: '<S12>/Gain9'
  78:Follow_Balance.c ****    *  Sum: '<S12>/Add'
  79:Follow_Balance.c ****    *  Sum: '<S12>/Add1'
  80:Follow_Balance.c ****    *  Sum: '<S12>/Add2'
  81:Follow_Balance.c ****    *  Sum: '<S12>/Add3'
  82:Follow_Balance.c ****    */
  83:Follow_Balance.c ****   Follow_Balance_DW.DelayOneStep_DSTATE = ((((0.95F *
 118              		.loc 1 83 3 view .LVU18
  84:Follow_Balance.c ****     Follow_Balance_DW.DelayOneStep_DSTATE + 0.0499992371F * (real32_T)
 119              		.loc 1 84 22 is_stmt 0 view .LVU19
 120 0060 B94C     		ldr	r4, .L185+32
 121 0062 D4ED187A 		vldr.32	s15, [r4, #96]
  83:Follow_Balance.c ****     Follow_Balance_DW.DelayOneStep_DSTATE + 0.0499992371F * (real32_T)
 122              		.loc 1 83 53 view .LVU20
 123 0066 DFEDB96A 		vldr.32	s13, .L185+36
 124 006a 67EEA67A 		vmul.f32	s15, s15, s13
  85:Follow_Balance.c ****     Follow_Balance_B.current1[0]) * 0.95F + 0.0499992371F * (real32_T)
 125              		.loc 1 85 30 view .LVU21
 126 006e B3F98C20 		ldrsh	r2, [r3, #140]
 127 0072 06EE102A 		vmov	s12, r2	@ int
  84:Follow_Balance.c ****     Follow_Balance_DW.DelayOneStep_DSTATE + 0.0499992371F * (real32_T)
 128              		.loc 1 84 61 view .LVU22
 129 0076 B8EEC66A 		vcvt.f32.s32	s12, s12
  84:Follow_Balance.c ****     Follow_Balance_DW.DelayOneStep_DSTATE + 0.0499992371F * (real32_T)
 130              		.loc 1 84 59 view .LVU23
 131 007a 9FEDB57A 		vldr.32	s14, .L185+40
 132 007e 26EE076A 		vmul.f32	s12, s12, s14
  84:Follow_Balance.c ****     Follow_Balance_DW.DelayOneStep_DSTATE + 0.0499992371F * (real32_T)
 133              		.loc 1 84 43 view .LVU24
 134 0082 77EE867A 		vadd.f32	s15, s15, s12
 135              		.loc 1 85 35 view .LVU25
 136 0086 67EEA67A 		vmul.f32	s15, s15, s13
  86:Follow_Balance.c ****     Follow_Balance_B.current1[1]) * 0.95F + 0.0499992371F * (real32_T)
 137              		.loc 1 86 30 view .LVU26
 138 008a B3F98E20 		ldrsh	r2, [r3, #142]
 139 008e 06EE102A 		vmov	s12, r2	@ int
ARM GAS  C:\Users\ysl\AppData\Local\Temp\ccJ1ill4.s 			page 5


  85:Follow_Balance.c ****     Follow_Balance_B.current1[0]) * 0.95F + 0.0499992371F * (real32_T)
 140              		.loc 1 85 61 view .LVU27
 141 0092 B8EEC66A 		vcvt.f32.s32	s12, s12
  85:Follow_Balance.c ****     Follow_Balance_B.current1[0]) * 0.95F + 0.0499992371F * (real32_T)
 142              		.loc 1 85 59 view .LVU28
 143 0096 26EE076A 		vmul.f32	s12, s12, s14
  85:Follow_Balance.c ****     Follow_Balance_B.current1[0]) * 0.95F + 0.0499992371F * (real32_T)
 144              		.loc 1 85 43 view .LVU29
 145 009a 77EE867A 		vadd.f32	s15, s15, s12
 146              		.loc 1 86 35 view .LVU30
 147 009e 67EEA67A 		vmul.f32	s15, s15, s13
  87:Follow_Balance.c ****     Follow_Balance_B.current1[2]) * 0.95F + 0.0499992371F * (real32_T)
 148              		.loc 1 87 30 view .LVU31
 149 00a2 B3F99020 		ldrsh	r2, [r3, #144]
 150 00a6 06EE102A 		vmov	s12, r2	@ int
  86:Follow_Balance.c ****     Follow_Balance_B.current1[1]) * 0.95F + 0.0499992371F * (real32_T)
 151              		.loc 1 86 61 view .LVU32
 152 00aa B8EEC66A 		vcvt.f32.s32	s12, s12
  86:Follow_Balance.c ****     Follow_Balance_B.current1[1]) * 0.95F + 0.0499992371F * (real32_T)
 153              		.loc 1 86 59 view .LVU33
 154 00ae 26EE076A 		vmul.f32	s12, s12, s14
  86:Follow_Balance.c ****     Follow_Balance_B.current1[1]) * 0.95F + 0.0499992371F * (real32_T)
 155              		.loc 1 86 43 view .LVU34
 156 00b2 77EE867A 		vadd.f32	s15, s15, s12
 157              		.loc 1 87 35 view .LVU35
 158 00b6 67EEA67A 		vmul.f32	s15, s15, s13
  88:Follow_Balance.c ****     Follow_Balance_B.current1[3]) * 0.95F + 0.0499992371F * (real32_T)
 159              		.loc 1 88 30 view .LVU36
 160 00ba B3F99220 		ldrsh	r2, [r3, #146]
 161 00be 06EE102A 		vmov	s12, r2	@ int
  87:Follow_Balance.c ****     Follow_Balance_B.current1[2]) * 0.95F + 0.0499992371F * (real32_T)
 162              		.loc 1 87 61 view .LVU37
 163 00c2 B8EEC66A 		vcvt.f32.s32	s12, s12
  87:Follow_Balance.c ****     Follow_Balance_B.current1[2]) * 0.95F + 0.0499992371F * (real32_T)
 164              		.loc 1 87 59 view .LVU38
 165 00c6 26EE076A 		vmul.f32	s12, s12, s14
  87:Follow_Balance.c ****     Follow_Balance_B.current1[2]) * 0.95F + 0.0499992371F * (real32_T)
 166              		.loc 1 87 43 view .LVU39
 167 00ca 77EE867A 		vadd.f32	s15, s15, s12
 168              		.loc 1 88 35 view .LVU40
 169 00ce 67EEA67A 		vmul.f32	s15, s15, s13
  89:Follow_Balance.c ****     Follow_Balance_B.current1[4];
 170              		.loc 1 89 30 view .LVU41
 171 00d2 B3F99420 		ldrsh	r2, [r3, #148]
 172 00d6 06EE102A 		vmov	s12, r2	@ int
  88:Follow_Balance.c ****     Follow_Balance_B.current1[3]) * 0.95F + 0.0499992371F * (real32_T)
 173              		.loc 1 88 61 view .LVU42
 174 00da B8EEC66A 		vcvt.f32.s32	s12, s12
  88:Follow_Balance.c ****     Follow_Balance_B.current1[3]) * 0.95F + 0.0499992371F * (real32_T)
 175              		.loc 1 88 59 view .LVU43
 176 00de 26EE076A 		vmul.f32	s12, s12, s14
  88:Follow_Balance.c ****     Follow_Balance_B.current1[3]) * 0.95F + 0.0499992371F * (real32_T)
 177              		.loc 1 88 43 view .LVU44
 178 00e2 77EE867A 		vadd.f32	s15, s15, s12
  83:Follow_Balance.c ****     Follow_Balance_DW.DelayOneStep_DSTATE + 0.0499992371F * (real32_T)
 179              		.loc 1 83 41 view .LVU45
 180 00e6 C4ED187A 		vstr.32	s15, [r4, #96]
ARM GAS  C:\Users\ysl\AppData\Local\Temp\ccJ1ill4.s 			page 6


  90:Follow_Balance.c **** 
  91:Follow_Balance.c ****   /* Sum: '<S13>/Add4' incorporates:
  92:Follow_Balance.c ****    *  Delay: '<S13>/Delay One Step'
  93:Follow_Balance.c ****    *  Gain: '<S13>/Gain'
  94:Follow_Balance.c ****    *  Gain: '<S13>/Gain1'
  95:Follow_Balance.c ****    *  Gain: '<S13>/Gain2'
  96:Follow_Balance.c ****    *  Gain: '<S13>/Gain3'
  97:Follow_Balance.c ****    *  Gain: '<S13>/Gain4'
  98:Follow_Balance.c ****    *  Gain: '<S13>/Gain5'
  99:Follow_Balance.c ****    *  Gain: '<S13>/Gain6'
 100:Follow_Balance.c ****    *  Gain: '<S13>/Gain7'
 101:Follow_Balance.c ****    *  Gain: '<S13>/Gain8'
 102:Follow_Balance.c ****    *  Gain: '<S13>/Gain9'
 103:Follow_Balance.c ****    *  Sum: '<S13>/Add'
 104:Follow_Balance.c ****    *  Sum: '<S13>/Add1'
 105:Follow_Balance.c ****    *  Sum: '<S13>/Add2'
 106:Follow_Balance.c ****    *  Sum: '<S13>/Add3'
 107:Follow_Balance.c ****    */
 108:Follow_Balance.c ****   Follow_Balance_DW.DelayOneStep_DSTATE_d = ((((0.95F *
 181              		.loc 1 108 3 is_stmt 1 view .LVU46
 109:Follow_Balance.c ****     Follow_Balance_DW.DelayOneStep_DSTATE_d + 0.0499992371F * (real32_T)
 182              		.loc 1 109 22 is_stmt 0 view .LVU47
 183 00ea D4ED197A 		vldr.32	s15, [r4, #100]
 108:Follow_Balance.c ****     Follow_Balance_DW.DelayOneStep_DSTATE_d + 0.0499992371F * (real32_T)
 184              		.loc 1 108 55 view .LVU48
 185 00ee 67EEA67A 		vmul.f32	s15, s15, s13
 110:Follow_Balance.c ****     Follow_Balance_B.current2[0]) * 0.95F + 0.0499992371F * (real32_T)
 186              		.loc 1 110 30 view .LVU49
 187 00f2 B3F99620 		ldrsh	r2, [r3, #150]
 188 00f6 06EE102A 		vmov	s12, r2	@ int
 109:Follow_Balance.c ****     Follow_Balance_DW.DelayOneStep_DSTATE_d + 0.0499992371F * (real32_T)
 189              		.loc 1 109 63 view .LVU50
 190 00fa B8EEC66A 		vcvt.f32.s32	s12, s12
 109:Follow_Balance.c ****     Follow_Balance_DW.DelayOneStep_DSTATE_d + 0.0499992371F * (real32_T)
 191              		.loc 1 109 61 view .LVU51
 192 00fe 26EE076A 		vmul.f32	s12, s12, s14
 109:Follow_Balance.c ****     Follow_Balance_DW.DelayOneStep_DSTATE_d + 0.0499992371F * (real32_T)
 193              		.loc 1 109 45 view .LVU52
 194 0102 77EE867A 		vadd.f32	s15, s15, s12
 195              		.loc 1 110 35 view .LVU53
 196 0106 67EEA67A 		vmul.f32	s15, s15, s13
 111:Follow_Balance.c ****     Follow_Balance_B.current2[1]) * 0.95F + 0.0499992371F * (real32_T)
 197              		.loc 1 111 30 view .LVU54
 198 010a B3F99820 		ldrsh	r2, [r3, #152]
 199 010e 06EE102A 		vmov	s12, r2	@ int
 110:Follow_Balance.c ****     Follow_Balance_B.current2[0]) * 0.95F + 0.0499992371F * (real32_T)
 200              		.loc 1 110 61 view .LVU55
 201 0112 B8EEC66A 		vcvt.f32.s32	s12, s12
 110:Follow_Balance.c ****     Follow_Balance_B.current2[0]) * 0.95F + 0.0499992371F * (real32_T)
 202              		.loc 1 110 59 view .LVU56
 203 0116 26EE076A 		vmul.f32	s12, s12, s14
 110:Follow_Balance.c ****     Follow_Balance_B.current2[0]) * 0.95F + 0.0499992371F * (real32_T)
 204              		.loc 1 110 43 view .LVU57
 205 011a 77EE867A 		vadd.f32	s15, s15, s12
 206              		.loc 1 111 35 view .LVU58
 207 011e 67EEA67A 		vmul.f32	s15, s15, s13
 112:Follow_Balance.c ****     Follow_Balance_B.current2[2]) * 0.95F + 0.0499992371F * (real32_T)
ARM GAS  C:\Users\ysl\AppData\Local\Temp\ccJ1ill4.s 			page 7


 208              		.loc 1 112 30 view .LVU59
 209 0122 B3F99A20 		ldrsh	r2, [r3, #154]
 210 0126 06EE102A 		vmov	s12, r2	@ int
 111:Follow_Balance.c ****     Follow_Balance_B.current2[1]) * 0.95F + 0.0499992371F * (real32_T)
 211              		.loc 1 111 61 view .LVU60
 212 012a B8EEC66A 		vcvt.f32.s32	s12, s12
 111:Follow_Balance.c ****     Follow_Balance_B.current2[1]) * 0.95F + 0.0499992371F * (real32_T)
 213              		.loc 1 111 59 view .LVU61
 214 012e 26EE076A 		vmul.f32	s12, s12, s14
 111:Follow_Balance.c ****     Follow_Balance_B.current2[1]) * 0.95F + 0.0499992371F * (real32_T)
 215              		.loc 1 111 43 view .LVU62
 216 0132 77EE867A 		vadd.f32	s15, s15, s12
 217              		.loc 1 112 35 view .LVU63
 218 0136 67EEA67A 		vmul.f32	s15, s15, s13
 113:Follow_Balance.c ****     Follow_Balance_B.current2[3]) * 0.95F + 0.0499992371F * (real32_T)
 219              		.loc 1 113 30 view .LVU64
 220 013a B3F99C20 		ldrsh	r2, [r3, #156]
 221 013e 06EE102A 		vmov	s12, r2	@ int
 112:Follow_Balance.c ****     Follow_Balance_B.current2[2]) * 0.95F + 0.0499992371F * (real32_T)
 222              		.loc 1 112 61 view .LVU65
 223 0142 B8EEC66A 		vcvt.f32.s32	s12, s12
 112:Follow_Balance.c ****     Follow_Balance_B.current2[2]) * 0.95F + 0.0499992371F * (real32_T)
 224              		.loc 1 112 59 view .LVU66
 225 0146 26EE076A 		vmul.f32	s12, s12, s14
 112:Follow_Balance.c ****     Follow_Balance_B.current2[2]) * 0.95F + 0.0499992371F * (real32_T)
 226              		.loc 1 112 43 view .LVU67
 227 014a 77EE867A 		vadd.f32	s15, s15, s12
 228              		.loc 1 113 35 view .LVU68
 229 014e 67EEA67A 		vmul.f32	s15, s15, s13
 114:Follow_Balance.c ****     Follow_Balance_B.current2[4];
 230              		.loc 1 114 30 view .LVU69
 231 0152 B3F99E20 		ldrsh	r2, [r3, #158]
 232 0156 06EE902A 		vmov	s13, r2	@ int
 113:Follow_Balance.c ****     Follow_Balance_B.current2[3]) * 0.95F + 0.0499992371F * (real32_T)
 233              		.loc 1 113 61 view .LVU70
 234 015a F8EEE66A 		vcvt.f32.s32	s13, s13
 113:Follow_Balance.c ****     Follow_Balance_B.current2[3]) * 0.95F + 0.0499992371F * (real32_T)
 235              		.loc 1 113 59 view .LVU71
 236 015e 26EE877A 		vmul.f32	s14, s13, s14
 113:Follow_Balance.c ****     Follow_Balance_B.current2[3]) * 0.95F + 0.0499992371F * (real32_T)
 237              		.loc 1 113 43 view .LVU72
 238 0162 77EE877A 		vadd.f32	s15, s15, s14
 108:Follow_Balance.c ****     Follow_Balance_DW.DelayOneStep_DSTATE_d + 0.0499992371F * (real32_T)
 239              		.loc 1 108 43 view .LVU73
 240 0166 C4ED197A 		vstr.32	s15, [r4, #100]
 115:Follow_Balance.c **** 
 116:Follow_Balance.c ****   /* Gain: '<Root>/Gain3' incorporates:
 117:Follow_Balance.c ****    *  DataStoreWrite: '<Root>/Data Store Write8'
 118:Follow_Balance.c ****    */
 119:Follow_Balance.c ****   angle_yaw = 26214 * Follow_Balance_B.angle[2];
 241              		.loc 1 119 3 is_stmt 1 view .LVU74
 242              		.loc 1 119 45 is_stmt 0 view .LVU75
 243 016a B3F98470 		ldrsh	r7, [r3, #132]
 244              		.loc 1 119 13 view .LVU76
 245 016e 46F26666 		movw	r6, #26214
 246 0172 07FB06F6 		mul	r6, r7, r6
 247              	.LVL0:
ARM GAS  C:\Users\ysl\AppData\Local\Temp\ccJ1ill4.s 			page 8


 120:Follow_Balance.c **** 
 121:Follow_Balance.c ****   /* S-Function (StackLiteDualDrive_DataLinkOutput): '<Root>/DataLinkOutput' */
 122:Follow_Balance.c ****   /*Output Data*/
 123:Follow_Balance.c ****   DataLink_UpFrameData.data[0].point= Follow_Balance_B.DataStoreRead10;
 248              		.loc 1 123 3 is_stmt 1 view .LVU77
 249              		.loc 1 123 37 is_stmt 0 view .LVU78
 250 0176 7749     		ldr	r1, .L185+44
 251 0178 9A69     		ldr	r2, [r3, #24]	@ float
 252 017a C1F80920 		str	r2, [r1, #9]	@ unaligned
 124:Follow_Balance.c ****   DataLink_UpFrameData.data[1].point= Follow_Balance_B.DataTypeConversion3;
 253              		.loc 1 124 3 is_stmt 1 view .LVU79
 254              		.loc 1 124 37 is_stmt 0 view .LVU80
 255 017e DA6A     		ldr	r2, [r3, #44]	@ float
 256 0180 C1F80D20 		str	r2, [r1, #13]	@ unaligned
 125:Follow_Balance.c ****   DataLink_UpFrameData.data[2].point= Follow_Balance_B.DataTypeConversion8;
 257              		.loc 1 125 3 is_stmt 1 view .LVU81
 258              		.loc 1 125 37 is_stmt 0 view .LVU82
 259 0184 1A6B     		ldr	r2, [r3, #48]	@ float
 260 0186 C1F81120 		str	r2, [r1, #17]	@ unaligned
 126:Follow_Balance.c ****   DataLink_UpFrameData.data[3].point= 0.0F;
 261              		.loc 1 126 3 is_stmt 1 view .LVU83
 262              		.loc 1 126 37 is_stmt 0 view .LVU84
 263 018a 0022     		movs	r2, #0
 264 018c C1F81520 		str	r2, [r1, #21]	@ unaligned
 127:Follow_Balance.c ****   DataLink_UpFrameData.data[4].point= 0.0F;
 265              		.loc 1 127 3 is_stmt 1 view .LVU85
 266              		.loc 1 127 37 is_stmt 0 view .LVU86
 267 0190 C1F81920 		str	r2, [r1, #25]	@ unaligned
 128:Follow_Balance.c ****   DataLink_UpFrameData.data[5].point= 0.0F;
 268              		.loc 1 128 3 is_stmt 1 view .LVU87
 269              		.loc 1 128 37 is_stmt 0 view .LVU88
 270 0194 C1F81D20 		str	r2, [r1, #29]	@ unaligned
 129:Follow_Balance.c ****   DataLink_UpFrameData.data[6].point= 0.0F;
 271              		.loc 1 129 3 is_stmt 1 view .LVU89
 272              		.loc 1 129 37 is_stmt 0 view .LVU90
 273 0198 C1F82120 		str	r2, [r1, #33]	@ unaligned
 130:Follow_Balance.c ****   DataLink_UpFrameData.data[7].point= 0.0F;
 274              		.loc 1 130 3 is_stmt 1 view .LVU91
 275              		.loc 1 130 37 is_stmt 0 view .LVU92
 276 019c C1F82520 		str	r2, [r1, #37]	@ unaligned
 131:Follow_Balance.c ****   DataLink_UpFrameData.data[8].point= 0.0F;
 277              		.loc 1 131 3 is_stmt 1 view .LVU93
 278              		.loc 1 131 37 is_stmt 0 view .LVU94
 279 01a0 C1F82920 		str	r2, [r1, #41]	@ unaligned
 132:Follow_Balance.c ****   DataLink_UpFrameData.data[9].point= 0.0F;
 280              		.loc 1 132 3 is_stmt 1 view .LVU95
 281              		.loc 1 132 37 is_stmt 0 view .LVU96
 282 01a4 C1F82D20 		str	r2, [r1, #45]	@ unaligned
 133:Follow_Balance.c ****   DataLink_UpFrameData.data[10].point= Follow_Balance_B.Divide;
 283              		.loc 1 133 3 is_stmt 1 view .LVU97
 284              		.loc 1 133 38 is_stmt 0 view .LVU98
 285 01a8 186E     		ldr	r0, [r3, #96]	@ float
 286 01aa C1F83100 		str	r0, [r1, #49]	@ unaligned
 134:Follow_Balance.c ****   DataLink_UpFrameData.data[11].point= Follow_Balance_B.Divide1;
 287              		.loc 1 134 3 is_stmt 1 view .LVU99
 288              		.loc 1 134 38 is_stmt 0 view .LVU100
 289 01ae 586E     		ldr	r0, [r3, #100]	@ float
ARM GAS  C:\Users\ysl\AppData\Local\Temp\ccJ1ill4.s 			page 9


 290 01b0 C1F83500 		str	r0, [r1, #53]	@ unaligned
 135:Follow_Balance.c ****   DataLink_UpFrameData.data[12].point= 0.0F;
 291              		.loc 1 135 3 is_stmt 1 view .LVU101
 292              		.loc 1 135 38 is_stmt 0 view .LVU102
 293 01b4 C1F83920 		str	r2, [r1, #57]	@ unaligned
 136:Follow_Balance.c ****   DataLink_UpFrameData.data[13].point= 0.0F;
 294              		.loc 1 136 3 is_stmt 1 view .LVU103
 295              		.loc 1 136 38 is_stmt 0 view .LVU104
 296 01b8 C1F83D20 		str	r2, [r1, #61]	@ unaligned
 137:Follow_Balance.c ****   DataLink_UpFrameData.data[14].point= 0.0F;
 297              		.loc 1 137 3 is_stmt 1 view .LVU105
 298              		.loc 1 137 38 is_stmt 0 view .LVU106
 299 01bc C1F84120 		str	r2, [r1, #65]	@ unaligned
 138:Follow_Balance.c ****   DataLink_UpFrameData.data[15].point= 0.0F;
 300              		.loc 1 138 3 is_stmt 1 view .LVU107
 301              		.loc 1 138 38 is_stmt 0 view .LVU108
 302 01c0 C1F84520 		str	r2, [r1, #69]	@ unaligned
 139:Follow_Balance.c ****   DataLink_UpFrameData.data[16].point= Follow_Balance_B.DataStoreRead14;
 303              		.loc 1 139 3 is_stmt 1 view .LVU109
 304              		.loc 1 139 38 is_stmt 0 view .LVU110
 305 01c4 D869     		ldr	r0, [r3, #28]	@ float
 306 01c6 C1F84900 		str	r0, [r1, #73]	@ unaligned
 140:Follow_Balance.c ****   DataLink_UpFrameData.data[17].point= Follow_Balance_B.DataTypeConversion11;
 307              		.loc 1 140 3 is_stmt 1 view .LVU111
 308              		.loc 1 140 38 is_stmt 0 view .LVU112
 309 01ca 986A     		ldr	r0, [r3, #40]	@ float
 310 01cc C1F84D00 		str	r0, [r1, #77]	@ unaligned
 141:Follow_Balance.c ****   DataLink_UpFrameData.data[18].point= Follow_Balance_B.DataStoreRead19;
 311              		.loc 1 141 3 is_stmt 1 view .LVU113
 312              		.loc 1 141 38 is_stmt 0 view .LVU114
 313 01d0 186A     		ldr	r0, [r3, #32]	@ float
 314 01d2 C1F85100 		str	r0, [r1, #81]	@ unaligned
 142:Follow_Balance.c ****   DataLink_UpFrameData.data[19].point= Follow_Balance_B.DataStoreRead20;
 315              		.loc 1 142 3 is_stmt 1 view .LVU115
 316              		.loc 1 142 38 is_stmt 0 view .LVU116
 317 01d6 586A     		ldr	r0, [r3, #36]	@ float
 318 01d8 C1F85500 		str	r0, [r1, #85]	@ unaligned
 143:Follow_Balance.c **** 
 144:Follow_Balance.c ****   /* S-Function (StackLiteDualDrive_Output): '<Root>/Output' */
 145:Follow_Balance.c ****   /*Output Data*/
 146:Follow_Balance.c ****   motor1_PwmData= Follow_Balance_B.Saturation_d;
 319              		.loc 1 146 3 is_stmt 1 view .LVU117
 320              		.loc 1 146 35 is_stmt 0 view .LVU118
 321 01dc B3F9A000 		ldrsh	r0, [r3, #160]
 322              		.loc 1 146 17 view .LVU119
 323 01e0 5D49     		ldr	r1, .L185+48
 324 01e2 0880     		strh	r0, [r1]	@ movhi
 147:Follow_Balance.c ****   motor2_PwmData= Follow_Balance_B.Saturation1;
 325              		.loc 1 147 3 is_stmt 1 view .LVU120
 326              		.loc 1 147 35 is_stmt 0 view .LVU121
 327 01e4 B3F9A210 		ldrsh	r1, [r3, #162]
 328              		.loc 1 147 17 view .LVU122
 329 01e8 5C4B     		ldr	r3, .L185+52
 330 01ea 1980     		strh	r1, [r3]	@ movhi
 148:Follow_Balance.c ****   HAL_GPIO_WritePin(USER_LED_GPIO_Port,USER_LED_Pin,(GPIO_PinState)((uint8_T)0U));
 331              		.loc 1 148 3 is_stmt 1 view .LVU123
 332 01ec 4FF48041 		mov	r1, #16384
ARM GAS  C:\Users\ysl\AppData\Local\Temp\ccJ1ill4.s 			page 10


 333 01f0 5B48     		ldr	r0, .L185+56
 334 01f2 FFF7FEFF 		bl	HAL_GPIO_WritePin
 335              	.LVL1:
 149:Follow_Balance.c ****   memcpy(ws2812_data,((const uint8_T*) &Follow_Balance_U8GND),3);
 336              		.loc 1 149 3 view .LVU124
 337 01f6 5B4B     		ldr	r3, .L185+60
 338 01f8 5B4A     		ldr	r2, .L185+64
 339 01fa 1188     		ldrh	r1, [r2]	@ unaligned
 340 01fc 9278     		ldrb	r2, [r2, #2]	@ zero_extendqisi2
 341 01fe 1980     		strh	r1, [r3]	@ unaligned
 342 0200 9A70     		strb	r2, [r3, #2]
 150:Follow_Balance.c **** 
 151:Follow_Balance.c ****   /* Outputs for Enabled SubSystem: '<Root>/encoder to rpm' incorporates:
 152:Follow_Balance.c ****    *  EnablePort: '<S15>/Enable'
 153:Follow_Balance.c ****    */
 154:Follow_Balance.c ****   /* RelationalOperator: '<S2>/Compare' incorporates:
 155:Follow_Balance.c ****    *  Constant: '<S2>/Constant'
 156:Follow_Balance.c ****    *  UnitDelay: '<S8>/Output'
 157:Follow_Balance.c ****    */
 158:Follow_Balance.c ****   if (Follow_Balance_DW.Output_DSTATE == 1) {
 343              		.loc 1 158 3 view .LVU125
 344              		.loc 1 158 24 is_stmt 0 view .LVU126
 345 0202 94F82C51 		ldrb	r5, [r4, #300]	@ zero_extendqisi2
 346              		.loc 1 158 6 view .LVU127
 347 0206 012D     		cmp	r5, #1
 348 0208 00F0B680 		beq	.L162
 349              	.L2:
 159:Follow_Balance.c ****     /* Product: '<S15>/Divide' incorporates:
 160:Follow_Balance.c ****      *  Constant: '<S15>/Constant'
 161:Follow_Balance.c ****      *  Constant: '<S15>/Constant1'
 162:Follow_Balance.c ****      *  Constant: '<S15>/Constant2'
 163:Follow_Balance.c ****      *  Delay: '<S15>/Delay'
 164:Follow_Balance.c ****      *  Product: '<S15>/Product'
 165:Follow_Balance.c ****      *  Product: '<S15>/Product1'
 166:Follow_Balance.c ****      *  Sum: '<S15>/Add1'
 167:Follow_Balance.c ****      */
 168:Follow_Balance.c ****     Follow_Balance_B.Divide = (real32_T)(Follow_Balance_B.encoder1 -
 169:Follow_Balance.c ****       Follow_Balance_DW.Delay_DSTATE_o[0]) * 100.0F * 60.0F / 40000.0F;
 170:Follow_Balance.c **** 
 171:Follow_Balance.c ****     /* Product: '<S15>/Divide1' incorporates:
 172:Follow_Balance.c ****      *  Constant: '<S15>/Constant3'
 173:Follow_Balance.c ****      *  Constant: '<S15>/Constant4'
 174:Follow_Balance.c ****      *  Constant: '<S15>/Constant5'
 175:Follow_Balance.c ****      *  Delay: '<S15>/Delay1'
 176:Follow_Balance.c ****      *  Product: '<S15>/Product2'
 177:Follow_Balance.c ****      *  Product: '<S15>/Product3'
 178:Follow_Balance.c ****      *  Sum: '<S15>/Add2'
 179:Follow_Balance.c ****      */
 180:Follow_Balance.c ****     Follow_Balance_B.Divide1 = (real32_T)(Follow_Balance_B.encoder2 -
 181:Follow_Balance.c ****       Follow_Balance_DW.Delay1_DSTATE[0]) * 100.0F * 60.0F / 40000.0F;
 182:Follow_Balance.c ****     for (rtb_Add1_m = 0; rtb_Add1_m < 18; rtb_Add1_m++) {
 183:Follow_Balance.c ****       /* Update for Delay: '<S15>/Delay' */
 184:Follow_Balance.c ****       Follow_Balance_DW.Delay_DSTATE_o[rtb_Add1_m] =
 185:Follow_Balance.c ****         Follow_Balance_DW.Delay_DSTATE_o[rtb_Add1_m + 1];
 186:Follow_Balance.c **** 
 187:Follow_Balance.c ****       /* Update for Delay: '<S15>/Delay1' */
 188:Follow_Balance.c ****       Follow_Balance_DW.Delay1_DSTATE[rtb_Add1_m] =
ARM GAS  C:\Users\ysl\AppData\Local\Temp\ccJ1ill4.s 			page 11


 189:Follow_Balance.c ****         Follow_Balance_DW.Delay1_DSTATE[rtb_Add1_m + 1];
 190:Follow_Balance.c ****     }
 191:Follow_Balance.c **** 
 192:Follow_Balance.c ****     /* Update for Delay: '<S15>/Delay' */
 193:Follow_Balance.c ****     Follow_Balance_DW.Delay_DSTATE_o[18] = Follow_Balance_B.encoder1;
 194:Follow_Balance.c **** 
 195:Follow_Balance.c ****     /* Update for Delay: '<S15>/Delay1' */
 196:Follow_Balance.c ****     Follow_Balance_DW.Delay1_DSTATE[18] = Follow_Balance_B.encoder2;
 197:Follow_Balance.c ****   }
 198:Follow_Balance.c **** 
 199:Follow_Balance.c ****   /* End of RelationalOperator: '<S2>/Compare' */
 200:Follow_Balance.c ****   /* End of Outputs for SubSystem: '<Root>/encoder to rpm' */
 201:Follow_Balance.c **** 
 202:Follow_Balance.c ****   /* Outputs for Enabled SubSystem: '<Root>/speedPID_motor' incorporates:
 203:Follow_Balance.c ****    *  EnablePort: '<S16>/Enable'
 204:Follow_Balance.c ****    */
 205:Follow_Balance.c ****   /* RelationalOperator: '<S3>/Compare' incorporates:
 206:Follow_Balance.c ****    *  Constant: '<S3>/Constant'
 207:Follow_Balance.c ****    *  UnitDelay: '<S9>/Output'
 208:Follow_Balance.c ****    */
 209:Follow_Balance.c ****   if (Follow_Balance_DW.Output_DSTATE_i == 1) {
 350              		.loc 1 209 3 is_stmt 1 view .LVU128
 351              		.loc 1 209 24 is_stmt 0 view .LVU129
 352 020c 4E4B     		ldr	r3, .L185+32
 353 020e 93F82D41 		ldrb	r4, [r3, #301]	@ zero_extendqisi2
 354              		.loc 1 209 6 view .LVU130
 355 0212 012C     		cmp	r4, #1
 356 0214 00F0F880 		beq	.L163
 357              	.L5:
 210:Follow_Balance.c ****     /* Sum: '<S42>/Add1' incorporates:
 211:Follow_Balance.c ****      *  DataStoreRead: '<Root>/Data Store Read4'
 212:Follow_Balance.c ****      *  Sum: '<S42>/Add2'
 213:Follow_Balance.c ****      */
 214:Follow_Balance.c ****     rtb_Add1 = Follow_Balance_DW.tar_speed - (Follow_Balance_B.Divide +
 215:Follow_Balance.c ****       Follow_Balance_B.Divide1);
 216:Follow_Balance.c **** 
 217:Follow_Balance.c ****     /* Gain: '<S44>/Gain1' incorporates:
 218:Follow_Balance.c ****      *  DataStoreRead: '<S44>/Data Store Read1'
 219:Follow_Balance.c ****      *  Delay: '<S44>/Delay'
 220:Follow_Balance.c ****      *  Gain: '<S44>/Gain'
 221:Follow_Balance.c ****      *  Product: '<S44>/Product3'
 222:Follow_Balance.c ****      *  Sum: '<S44>/Add2'
 223:Follow_Balance.c ****      */
 224:Follow_Balance.c ****     Follow_Balance_DW.Delay_DSTATE_i = ((real32_T)(0.001 *
 225:Follow_Balance.c ****       Follow_Balance_DW.Ki_speed * rtb_Add1) + Follow_Balance_DW.Delay_DSTATE_i)
 226:Follow_Balance.c ****       * 0.995F;
 227:Follow_Balance.c **** 
 228:Follow_Balance.c ****     /* Saturate: '<S44>/Saturation2' */
 229:Follow_Balance.c ****     if (Follow_Balance_DW.Delay_DSTATE_i > 1500.0F) {
 230:Follow_Balance.c ****       /* Gain: '<S44>/Gain1' */
 231:Follow_Balance.c ****       Follow_Balance_DW.Delay_DSTATE_i = 1500.0F;
 232:Follow_Balance.c ****     } else if (Follow_Balance_DW.Delay_DSTATE_i < -1500.0F) {
 233:Follow_Balance.c ****       /* Gain: '<S44>/Gain1' */
 234:Follow_Balance.c ****       Follow_Balance_DW.Delay_DSTATE_i = -1500.0F;
 235:Follow_Balance.c ****     }
 236:Follow_Balance.c **** 
 237:Follow_Balance.c ****     /* End of Saturate: '<S44>/Saturation2' */
ARM GAS  C:\Users\ysl\AppData\Local\Temp\ccJ1ill4.s 			page 12


 238:Follow_Balance.c **** 
 239:Follow_Balance.c ****     /* Sum: '<S42>/Add' incorporates:
 240:Follow_Balance.c ****      *  Constant: '<S45>/Constant'
 241:Follow_Balance.c ****      *  DataStoreRead: '<S43>/Data Store Read2'
 242:Follow_Balance.c ****      *  Delay: '<S44>/Delay'
 243:Follow_Balance.c ****      *  Gain: '<S43>/Gain'
 244:Follow_Balance.c ****      *  Gain: '<S45>/Gain'
 245:Follow_Balance.c ****      *  Product: '<S43>/Product2'
 246:Follow_Balance.c ****      *  Product: '<S45>/Product'
 247:Follow_Balance.c ****      *  Sum: '<S46>/Diff'
 248:Follow_Balance.c ****      *  UnitDelay: '<S46>/UD'
 249:Follow_Balance.c ****      *
 250:Follow_Balance.c ****      * Block description for '<S46>/Diff':
 251:Follow_Balance.c ****      *
 252:Follow_Balance.c ****      *  Add in CPU
 253:Follow_Balance.c ****      *
 254:Follow_Balance.c ****      * Block description for '<S46>/UD':
 255:Follow_Balance.c ****      *
 256:Follow_Balance.c ****      *  Store in Global RAM
 257:Follow_Balance.c ****      */
 258:Follow_Balance.c ****     Follow_Balance_B.Add = (0.021 * rtb_Add1 + Follow_Balance_DW.Delay_DSTATE_i)
 259:Follow_Balance.c ****       + 0.001 * Follow_Balance_DW.Kd_speed * (rtb_Add1 -
 260:Follow_Balance.c ****       Follow_Balance_DW.UD_DSTATE_o);
 261:Follow_Balance.c **** 
 262:Follow_Balance.c ****     /* Update for UnitDelay: '<S46>/UD'
 263:Follow_Balance.c ****      *
 264:Follow_Balance.c ****      * Block description for '<S46>/UD':
 265:Follow_Balance.c ****      *
 266:Follow_Balance.c ****      *  Store in Global RAM
 267:Follow_Balance.c ****      */
 268:Follow_Balance.c ****     Follow_Balance_DW.UD_DSTATE_o = rtb_Add1;
 269:Follow_Balance.c ****   }
 270:Follow_Balance.c **** 
 271:Follow_Balance.c ****   /* End of RelationalOperator: '<S3>/Compare' */
 272:Follow_Balance.c ****   /* End of Outputs for SubSystem: '<Root>/speedPID_motor' */
 273:Follow_Balance.c **** 
 274:Follow_Balance.c ****   /* Sum: '<Root>/Add' incorporates:
 275:Follow_Balance.c ****    *  DataStoreRead: '<Root>/Data Store Read1'
 276:Follow_Balance.c ****    */
 277:Follow_Balance.c ****   rtb_Add1 = Follow_Balance_B.Add + Follow_Balance_DW.machine_mid;
 358              		.loc 1 277 3 is_stmt 1 view .LVU131
 359              		.loc 1 277 54 is_stmt 0 view .LVU132
 360 0218 DFF82C81 		ldr	r8, .L185+32
 361              		.loc 1 277 12 view .LVU133
 362 021c D8E91623 		ldrd	r2, [r8, #88]
 363 0220 4349     		ldr	r1, .L185+8
 364 0222 D1E90201 		ldrd	r0, [r1, #8]
 365 0226 FFF7FEFF 		bl	__aeabi_dadd
 366              	.LVL2:
 367 022a CDE90001 		strd	r0, [sp]
 368              	.LVL3:
 278:Follow_Balance.c **** 
 279:Follow_Balance.c ****   /* Sum: '<Root>/Add1' incorporates:
 280:Follow_Balance.c ****    *  DataStoreRead: '<Root>/Data Store Read13'
 281:Follow_Balance.c ****    *  DataStoreRead: '<Root>/Data Store Read8'
 282:Follow_Balance.c ****    */
 283:Follow_Balance.c ****   rtb_Add1_m = angle_yaw - Follow_Balance_DW.yaw_begin;
ARM GAS  C:\Users\ysl\AppData\Local\Temp\ccJ1ill4.s 			page 13


 369              		.loc 1 283 3 is_stmt 1 view .LVU134
 370              		.loc 1 283 45 is_stmt 0 view .LVU135
 371 022e D8F82431 		ldr	r3, [r8, #292]
 372              		.loc 1 283 14 view .LVU136
 373 0232 F31A     		subs	r3, r6, r3
 374 0234 08EE103A 		vmov	s16, r3	@ int
 375              	.LVL4:
 284:Follow_Balance.c **** 
 285:Follow_Balance.c ****   /* Outputs for Enabled SubSystem: '<Root>/turnPID' incorporates:
 286:Follow_Balance.c ****    *  EnablePort: '<S17>/Enable'
 287:Follow_Balance.c ****    */
 288:Follow_Balance.c ****   /* RelationalOperator: '<S4>/Compare' incorporates:
 289:Follow_Balance.c ****    *  Constant: '<S4>/Constant'
 290:Follow_Balance.c ****    *  UnitDelay: '<S10>/Output'
 291:Follow_Balance.c ****    */
 292:Follow_Balance.c ****   if (Follow_Balance_DW.Output_DSTATE_a == 1) {
 376              		.loc 1 292 3 is_stmt 1 view .LVU137
 377              		.loc 1 292 24 is_stmt 0 view .LVU138
 378 0238 98F82EA1 		ldrb	r10, [r8, #302]	@ zero_extendqisi2
 379              		.loc 1 292 6 view .LVU139
 380 023c BAF1010F 		cmp	r10, #1
 381 0240 00F06181 		beq	.L164
 382              	.LVL5:
 383              	.L10:
 293:Follow_Balance.c ****     /* Sum: '<S17>/Add1' incorporates:
 294:Follow_Balance.c ****      *  DataStoreRead: '<Root>/Data Store Read5'
 295:Follow_Balance.c ****      *  Sum: '<Root>/Add1'
 296:Follow_Balance.c ****      */
 297:Follow_Balance.c ****     rtb_Product3_p = Follow_Balance_DW.tar_yaw - (real32_T)rtb_Add1_m *
 298:Follow_Balance.c ****       3.81469727E-6F;
 299:Follow_Balance.c **** 
 300:Follow_Balance.c ****     /* Sum: '<S48>/Add2' incorporates:
 301:Follow_Balance.c ****      *  Constant: '<S48>/Constant1'
 302:Follow_Balance.c ****      *  Delay: '<S48>/Delay'
 303:Follow_Balance.c ****      *  Gain: '<S48>/Gain'
 304:Follow_Balance.c ****      *  Product: '<S48>/Product3'
 305:Follow_Balance.c ****      */
 306:Follow_Balance.c ****     Follow_Balance_DW.Delay_DSTATE_n += (real32_T)(-0.02 * rtb_Product3_p);
 307:Follow_Balance.c **** 
 308:Follow_Balance.c ****     /* Saturate: '<S48>/Saturation' */
 309:Follow_Balance.c ****     if (Follow_Balance_DW.Delay_DSTATE_n > 2000.0F) {
 310:Follow_Balance.c ****       /* Sum: '<S48>/Add2' */
 311:Follow_Balance.c ****       Follow_Balance_DW.Delay_DSTATE_n = 2000.0F;
 312:Follow_Balance.c ****     } else if (Follow_Balance_DW.Delay_DSTATE_n < -2000.0F) {
 313:Follow_Balance.c ****       /* Sum: '<S48>/Add2' */
 314:Follow_Balance.c ****       Follow_Balance_DW.Delay_DSTATE_n = -2000.0F;
 315:Follow_Balance.c ****     }
 316:Follow_Balance.c **** 
 317:Follow_Balance.c ****     /* End of Saturate: '<S48>/Saturation' */
 318:Follow_Balance.c **** 
 319:Follow_Balance.c ****     /* Sum: '<S17>/Add' incorporates:
 320:Follow_Balance.c ****      *  Constant: '<S47>/Constant2'
 321:Follow_Balance.c ****      *  Constant: '<S49>/Constant'
 322:Follow_Balance.c ****      *  Delay: '<S48>/Delay'
 323:Follow_Balance.c ****      *  Gain: '<Root>/Gain2'
 324:Follow_Balance.c ****      *  Product: '<S47>/Product2'
 325:Follow_Balance.c ****      *  Product: '<S49>/Product'
ARM GAS  C:\Users\ysl\AppData\Local\Temp\ccJ1ill4.s 			page 14


 326:Follow_Balance.c ****      */
 327:Follow_Balance.c ****     Follow_Balance_B.Saturation = 26214.0 * (real_T)Follow_Balance_B.anglev[2] *
 328:Follow_Balance.c ****       3.814697265625E-6 * 3.0 + (-27.0 * rtb_Product3_p +
 329:Follow_Balance.c ****       Follow_Balance_DW.Delay_DSTATE_n);
 330:Follow_Balance.c **** 
 331:Follow_Balance.c ****     /* Saturate: '<S17>/Saturation' */
 332:Follow_Balance.c ****     if (Follow_Balance_B.Saturation > 1000.0) {
 333:Follow_Balance.c ****       /* Sum: '<S17>/Add' incorporates:
 334:Follow_Balance.c ****        *  Saturate: '<S17>/Saturation'
 335:Follow_Balance.c ****        */
 336:Follow_Balance.c ****       Follow_Balance_B.Saturation = 1000.0;
 337:Follow_Balance.c ****     } else if (Follow_Balance_B.Saturation < -1000.0) {
 338:Follow_Balance.c ****       /* Sum: '<S17>/Add' incorporates:
 339:Follow_Balance.c ****        *  Saturate: '<S17>/Saturation'
 340:Follow_Balance.c ****        */
 341:Follow_Balance.c ****       Follow_Balance_B.Saturation = -1000.0;
 342:Follow_Balance.c ****     }
 343:Follow_Balance.c **** 
 344:Follow_Balance.c ****     /* End of Saturate: '<S17>/Saturation' */
 345:Follow_Balance.c ****   }
 346:Follow_Balance.c **** 
 347:Follow_Balance.c ****   /* End of RelationalOperator: '<S4>/Compare' */
 348:Follow_Balance.c ****   /* End of Outputs for SubSystem: '<Root>/turnPID' */
 349:Follow_Balance.c **** 
 350:Follow_Balance.c ****   /* Outputs for Enabled SubSystem: '<Root>/anglePID' incorporates:
 351:Follow_Balance.c ****    *  EnablePort: '<S11>/Enable'
 352:Follow_Balance.c ****    */
 353:Follow_Balance.c ****   /* RelationalOperator: '<S1>/Compare' incorporates:
 354:Follow_Balance.c ****    *  Constant: '<S1>/Constant'
 355:Follow_Balance.c ****    *  UnitDelay: '<S7>/Output'
 356:Follow_Balance.c ****    */
 357:Follow_Balance.c ****   if (Follow_Balance_DW.Output_DSTATE_i5 == 1) {
 384              		.loc 1 357 3 is_stmt 1 view .LVU140
 385              		.loc 1 357 24 is_stmt 0 view .LVU141
 386 0244 404B     		ldr	r3, .L185+32
 387 0246 93F82F81 		ldrb	r8, [r3, #303]	@ zero_extendqisi2
 388              		.loc 1 357 6 view .LVU142
 389 024a B8F1010F 		cmp	r8, #1
 390 024e 00F00D82 		beq	.L165
 391              	.L18:
 358:Follow_Balance.c ****     int16_T tmp_0;
 359:Follow_Balance.c **** 
 360:Follow_Balance.c ****     /* Abs: '<Root>/Abs' */
 361:Follow_Balance.c ****     if (Follow_Balance_B.angle[1] < 0) {
 362:Follow_Balance.c ****       tmp_0 = (int16_T)-Follow_Balance_B.angle[1];
 363:Follow_Balance.c ****     } else {
 364:Follow_Balance.c ****       tmp_0 = Follow_Balance_B.angle[1];
 365:Follow_Balance.c ****     }
 366:Follow_Balance.c **** 
 367:Follow_Balance.c ****     /* End of Abs: '<Root>/Abs' */
 368:Follow_Balance.c **** 
 369:Follow_Balance.c ****     /* Switch: '<Root>/Switch' incorporates:
 370:Follow_Balance.c ****      *  Gain: '<Root>/Gain'
 371:Follow_Balance.c ****      */
 372:Follow_Balance.c ****     if (tmp_0 > 3500) {
 373:Follow_Balance.c ****       tmp = rtb_Add1;
 374:Follow_Balance.c ****     } else {
ARM GAS  C:\Users\ysl\AppData\Local\Temp\ccJ1ill4.s 			page 15


 375:Follow_Balance.c ****       tmp = 20972.0 * (real_T)Follow_Balance_B.angle[1] * 4.76837158203125E-7;
 376:Follow_Balance.c ****     }
 377:Follow_Balance.c **** 
 378:Follow_Balance.c ****     /* End of Switch: '<Root>/Switch' */
 379:Follow_Balance.c **** 
 380:Follow_Balance.c ****     /* Sum: '<S11>/Add' incorporates:
 381:Follow_Balance.c ****      *  Constant: '<S30>/Constant2'
 382:Follow_Balance.c ****      *  Constant: '<S31>/Constant'
 383:Follow_Balance.c ****      *  Gain: '<Root>/Gain1'
 384:Follow_Balance.c ****      *  Product: '<S30>/Product2'
 385:Follow_Balance.c ****      *  Product: '<S31>/Product'
 386:Follow_Balance.c ****      *  Sum: '<S11>/Add1'
 387:Follow_Balance.c ****      */
 388:Follow_Balance.c ****     Follow_Balance_B.Add_o = 26214.0 * (real_T)Follow_Balance_B.anglev[0] *
 389:Follow_Balance.c ****       3.814697265625E-6 * -6.0 + (rtb_Add1 - tmp) * 54.0;
 390:Follow_Balance.c ****   }
 391:Follow_Balance.c **** 
 392:Follow_Balance.c ****   /* End of RelationalOperator: '<S1>/Compare' */
 393:Follow_Balance.c ****   /* End of Outputs for SubSystem: '<Root>/anglePID' */
 394:Follow_Balance.c **** 
 395:Follow_Balance.c ****   /* Switch: '<S23>/FixPt Switch' incorporates:
 396:Follow_Balance.c ****    *  Constant: '<S22>/FixPt Constant'
 397:Follow_Balance.c ****    *  Constant: '<S23>/Constant'
 398:Follow_Balance.c ****    *  Sum: '<S22>/FixPt Sum1'
 399:Follow_Balance.c ****    *  UnitDelay: '<S7>/Output'
 400:Follow_Balance.c ****    */
 401:Follow_Balance.c ****   if ((uint8_T)(Follow_Balance_DW.Output_DSTATE_i5 + 1) > 1) {
 392              		.loc 1 401 3 is_stmt 1 view .LVU143
 393              		.loc 1 401 7 is_stmt 0 view .LVU144
 394 0252 08F10108 		add	r8, r8, #1
 395 0256 5FFA88F8 		uxtb	r8, r8
 396              		.loc 1 401 6 view .LVU145
 397 025a B8F1010F 		cmp	r8, #1
 398 025e 40F24D82 		bls	.L21
 402:Follow_Balance.c ****     Follow_Balance_DW.Output_DSTATE_i5 = 0U;
 399              		.loc 1 402 5 is_stmt 1 view .LVU146
 400              		.loc 1 402 40 is_stmt 0 view .LVU147
 401 0262 394B     		ldr	r3, .L185+32
 402 0264 0022     		movs	r2, #0
 403 0266 83F82F21 		strb	r2, [r3, #303]
 404              	.L22:
 403:Follow_Balance.c ****   } else {
 404:Follow_Balance.c ****     Follow_Balance_DW.Output_DSTATE_i5++;
 405:Follow_Balance.c ****   }
 406:Follow_Balance.c **** 
 407:Follow_Balance.c ****   /* End of Switch: '<S23>/FixPt Switch' */
 408:Follow_Balance.c **** 
 409:Follow_Balance.c ****   /* Switch: '<S25>/FixPt Switch' incorporates:
 410:Follow_Balance.c ****    *  Constant: '<S24>/FixPt Constant'
 411:Follow_Balance.c ****    *  Constant: '<S25>/Constant'
 412:Follow_Balance.c ****    *  Sum: '<S24>/FixPt Sum1'
 413:Follow_Balance.c ****    *  UnitDelay: '<S8>/Output'
 414:Follow_Balance.c ****    */
 415:Follow_Balance.c ****   if ((uint8_T)(Follow_Balance_DW.Output_DSTATE + 1) > 1) {
 405              		.loc 1 415 3 is_stmt 1 view .LVU148
 406              		.loc 1 415 7 is_stmt 0 view .LVU149
 407 026a 0135     		adds	r5, r5, #1
ARM GAS  C:\Users\ysl\AppData\Local\Temp\ccJ1ill4.s 			page 16


 408 026c EDB2     		uxtb	r5, r5
 409              		.loc 1 415 6 view .LVU150
 410 026e 012D     		cmp	r5, #1
 411 0270 40F24882 		bls	.L23
 416:Follow_Balance.c ****     Follow_Balance_DW.Output_DSTATE = 0U;
 412              		.loc 1 416 5 is_stmt 1 view .LVU151
 413              		.loc 1 416 37 is_stmt 0 view .LVU152
 414 0274 344B     		ldr	r3, .L185+32
 415 0276 0022     		movs	r2, #0
 416 0278 83F82C21 		strb	r2, [r3, #300]
 417              	.L24:
 417:Follow_Balance.c ****   } else {
 418:Follow_Balance.c ****     Follow_Balance_DW.Output_DSTATE++;
 419:Follow_Balance.c ****   }
 420:Follow_Balance.c **** 
 421:Follow_Balance.c ****   /* End of Switch: '<S25>/FixPt Switch' */
 422:Follow_Balance.c **** 
 423:Follow_Balance.c ****   /* Switch: '<S27>/FixPt Switch' incorporates:
 424:Follow_Balance.c ****    *  Constant: '<S26>/FixPt Constant'
 425:Follow_Balance.c ****    *  Constant: '<S27>/Constant'
 426:Follow_Balance.c ****    *  Sum: '<S26>/FixPt Sum1'
 427:Follow_Balance.c ****    *  UnitDelay: '<S9>/Output'
 428:Follow_Balance.c ****    */
 429:Follow_Balance.c ****   if ((uint8_T)(Follow_Balance_DW.Output_DSTATE_i + 1) > 1) {
 418              		.loc 1 429 3 is_stmt 1 view .LVU153
 419              		.loc 1 429 7 is_stmt 0 view .LVU154
 420 027c 0134     		adds	r4, r4, #1
 421 027e E4B2     		uxtb	r4, r4
 422              		.loc 1 429 6 view .LVU155
 423 0280 012C     		cmp	r4, #1
 424 0282 40F24382 		bls	.L25
 430:Follow_Balance.c ****     Follow_Balance_DW.Output_DSTATE_i = 0U;
 425              		.loc 1 430 5 is_stmt 1 view .LVU156
 426              		.loc 1 430 39 is_stmt 0 view .LVU157
 427 0286 304B     		ldr	r3, .L185+32
 428 0288 0022     		movs	r2, #0
 429 028a 83F82D21 		strb	r2, [r3, #301]
 430              	.L26:
 431:Follow_Balance.c ****   } else {
 432:Follow_Balance.c ****     Follow_Balance_DW.Output_DSTATE_i++;
 433:Follow_Balance.c ****   }
 434:Follow_Balance.c **** 
 435:Follow_Balance.c ****   /* End of Switch: '<S27>/FixPt Switch' */
 436:Follow_Balance.c **** 
 437:Follow_Balance.c ****   /* Switch: '<S29>/FixPt Switch' incorporates:
 438:Follow_Balance.c ****    *  Constant: '<S28>/FixPt Constant'
 439:Follow_Balance.c ****    *  Constant: '<S29>/Constant'
 440:Follow_Balance.c ****    *  Sum: '<S28>/FixPt Sum1'
 441:Follow_Balance.c ****    *  UnitDelay: '<S10>/Output'
 442:Follow_Balance.c ****    */
 443:Follow_Balance.c ****   if ((uint8_T)(Follow_Balance_DW.Output_DSTATE_a + 1) > 1) {
 431              		.loc 1 443 3 is_stmt 1 view .LVU158
 432              		.loc 1 443 7 is_stmt 0 view .LVU159
 433 028e 0AF1010A 		add	r10, r10, #1
 434 0292 5FFA8AFA 		uxtb	r10, r10
 435              		.loc 1 443 6 view .LVU160
 436 0296 BAF1010F 		cmp	r10, #1
ARM GAS  C:\Users\ysl\AppData\Local\Temp\ccJ1ill4.s 			page 17


 437 029a 40F23B82 		bls	.L27
 444:Follow_Balance.c ****     Follow_Balance_DW.Output_DSTATE_a = 0U;
 438              		.loc 1 444 5 is_stmt 1 view .LVU161
 439              		.loc 1 444 39 is_stmt 0 view .LVU162
 440 029e 2A4B     		ldr	r3, .L185+32
 441 02a0 0022     		movs	r2, #0
 442 02a2 83F82E21 		strb	r2, [r3, #302]
 443              	.L28:
 445:Follow_Balance.c ****   } else {
 446:Follow_Balance.c ****     Follow_Balance_DW.Output_DSTATE_a++;
 447:Follow_Balance.c ****   }
 448:Follow_Balance.c **** 
 449:Follow_Balance.c ****   /* End of Switch: '<S29>/FixPt Switch' */
 450:Follow_Balance.c **** 
 451:Follow_Balance.c ****   /* DataStoreRead: '<Root>/Data Store Read10' */
 452:Follow_Balance.c ****   Follow_Balance_B.DataStoreRead10 = Follow_Balance_DW.tar_yaw;
 444              		.loc 1 452 3 is_stmt 1 view .LVU163
 445              		.loc 1 452 55 is_stmt 0 view .LVU164
 446 02a6 284B     		ldr	r3, .L185+32
 447 02a8 D3F81C21 		ldr	r2, [r3, #284]	@ float
 448              		.loc 1 452 36 view .LVU165
 449 02ac 204C     		ldr	r4, .L185+8
 450 02ae A261     		str	r2, [r4, #24]	@ float
 453:Follow_Balance.c **** 
 454:Follow_Balance.c ****   /* DataStoreRead: '<Root>/Data Store Read14' */
 455:Follow_Balance.c ****   Follow_Balance_B.DataStoreRead14 = Follow_Balance_DW.tar_yaw;
 451              		.loc 1 455 3 is_stmt 1 view .LVU166
 452              		.loc 1 455 36 is_stmt 0 view .LVU167
 453 02b0 E261     		str	r2, [r4, #28]	@ float
 456:Follow_Balance.c **** 
 457:Follow_Balance.c ****   /* DataStoreRead: '<Root>/Data Store Read19' */
 458:Follow_Balance.c ****   Follow_Balance_B.DataStoreRead19 = Follow_Balance_DW.usart_input3;
 454              		.loc 1 458 3 is_stmt 1 view .LVU168
 455              		.loc 1 458 55 is_stmt 0 view .LVU169
 456 02b2 D3F81821 		ldr	r2, [r3, #280]	@ float
 457              		.loc 1 458 36 view .LVU170
 458 02b6 2262     		str	r2, [r4, #32]	@ float
 459:Follow_Balance.c **** 
 460:Follow_Balance.c ****   /* DataStoreRead: '<Root>/Data Store Read20' */
 461:Follow_Balance.c ****   Follow_Balance_B.DataStoreRead20 = Follow_Balance_DW.usart_input4;
 459              		.loc 1 461 3 is_stmt 1 view .LVU171
 460              		.loc 1 461 55 is_stmt 0 view .LVU172
 461 02b8 D3F82021 		ldr	r2, [r3, #288]	@ float
 462              		.loc 1 461 36 view .LVU173
 463 02bc 6262     		str	r2, [r4, #36]	@ float
 462:Follow_Balance.c **** 
 463:Follow_Balance.c ****   /* DataTypeConversion: '<Root>/Data Type Conversion11' incorporates:
 464:Follow_Balance.c ****    *  DataStoreRead: '<Root>/Data Store Read9'
 465:Follow_Balance.c ****    */
 466:Follow_Balance.c ****   Follow_Balance_B.DataTypeConversion11 = (real32_T)angle_yaw * 3.81469727E-6F;
 464              		.loc 1 466 3 is_stmt 1 view .LVU174
 465              		.loc 1 466 43 is_stmt 0 view .LVU175
 466 02be 07EE906A 		vmov	s15, r6	@ int
 467 02c2 F8EEE77A 		vcvt.f32.s32	s15, s15
 468              		.loc 1 466 63 view .LVU176
 469 02c6 9FED297A 		vldr.32	s14, .L185+68
 470 02ca 67EE877A 		vmul.f32	s15, s15, s14
ARM GAS  C:\Users\ysl\AppData\Local\Temp\ccJ1ill4.s 			page 18


 471              		.loc 1 466 41 view .LVU177
 472 02ce C4ED0A7A 		vstr.32	s15, [r4, #40]
 467:Follow_Balance.c **** 
 468:Follow_Balance.c ****   /* DataTypeConversion: '<Root>/Data Type Conversion3' incorporates:
 469:Follow_Balance.c ****    *  Sum: '<Root>/Add1'
 470:Follow_Balance.c ****    */
 471:Follow_Balance.c ****   Follow_Balance_B.DataTypeConversion3 = (real32_T)rtb_Add1_m * 3.81469727E-6F;
 473              		.loc 1 471 3 is_stmt 1 view .LVU178
 474              		.loc 1 471 42 is_stmt 0 view .LVU179
 475 02d2 B8EEC88A 		vcvt.f32.s32	s16, s16
 476              	.LVL6:
 477              		.loc 1 471 63 view .LVU180
 478 02d6 28EE078A 		vmul.f32	s16, s16, s14
 479              		.loc 1 471 40 view .LVU181
 480 02da 84ED0B8A 		vstr.32	s16, [r4, #44]
 472:Follow_Balance.c **** 
 473:Follow_Balance.c ****   /* DataTypeConversion: '<Root>/Data Type Conversion8' incorporates:
 474:Follow_Balance.c ****    *  DataStoreRead: '<Root>/Data Store Read4'
 475:Follow_Balance.c ****    */
 476:Follow_Balance.c ****   Follow_Balance_B.DataTypeConversion8 = (real32_T)Follow_Balance_DW.tar_speed;
 481              		.loc 1 476 3 is_stmt 1 view .LVU182
 482              		.loc 1 476 42 is_stmt 0 view .LVU183
 483 02de D3E90E01 		ldrd	r0, [r3, #56]
 484 02e2 FFF7FEFF 		bl	__aeabi_d2f
 485              	.LVL7:
 486              		.loc 1 476 40 view .LVU184
 487 02e6 2063     		str	r0, [r4, #48]	@ float
 477:Follow_Balance.c **** 
 478:Follow_Balance.c ****   /* Sum: '<Root>/Add2' */
 479:Follow_Balance.c ****   rtb_Add1 = Follow_Balance_B.Saturation + Follow_Balance_B.Add_o;
 488              		.loc 1 479 3 is_stmt 1 view .LVU185
 489              		.loc 1 479 12 is_stmt 0 view .LVU186
 490 02e8 D4E90423 		ldrd	r2, [r4, #16]
 491 02ec D4E90001 		ldrd	r0, [r4]
 492 02f0 FFF7FEFF 		bl	__aeabi_dadd
 493              	.LVL8:
 494 02f4 0246     		mov	r2, r0
 495 02f6 0B46     		mov	r3, r1
 496 02f8 43EC182B 		vmov	d8, r2, r3
 497              	.LVL9:
 480:Follow_Balance.c **** 
 481:Follow_Balance.c ****   /* Saturate: '<Root>/Saturation3' */
 482:Follow_Balance.c ****   if (rtb_Add1 > 2048.0) {
 498              		.loc 1 482 3 is_stmt 1 view .LVU187
 499              		.loc 1 482 6 is_stmt 0 view .LVU188
 500 02fc 0022     		movs	r2, #0
 501              	.LVL10:
 502              		.loc 1 482 6 view .LVU189
 503 02fe 1C4B     		ldr	r3, .L185+72
 504 0300 FFF7FEFF 		bl	__aeabi_dcmpgt
 505              	.LVL11:
 506 0304 0028     		cmp	r0, #0
 507 0306 40F00982 		bne	.L102
 483:Follow_Balance.c ****     rtb_Add1 = 2048.0;
 484:Follow_Balance.c ****   } else if (rtb_Add1 < -2048.0) {
 508              		.loc 1 484 10 is_stmt 1 view .LVU190
 509              		.loc 1 484 13 is_stmt 0 view .LVU191
ARM GAS  C:\Users\ysl\AppData\Local\Temp\ccJ1ill4.s 			page 19


 510 030a 0022     		movs	r2, #0
 511 030c 194B     		ldr	r3, .L185+76
 512 030e 51EC180B 		vmov	r0, r1, d8
 513 0312 FFF7FEFF 		bl	__aeabi_dcmplt
 514              	.LVL12:
 515 0316 0028     		cmp	r0, #0
 516 0318 00F00282 		beq	.L29
 485:Follow_Balance.c ****     rtb_Add1 = -2048.0;
 517              		.loc 1 485 14 view .LVU192
 518 031c 9FED028B 		vldr.64	d8, .L185
 519              	.LVL13:
 520              		.loc 1 485 14 view .LVU193
 521 0320 FEE1     		b	.L29
 522              	.L186:
 523 0322 00BFAFF3 		.align	3
 523      0080
 524              	.L185:
 525 0328 00000000 		.word	0
 526 032c 0000A0C0 		.word	-1063256064
 527 0330 00000000 		.word	.LANCHOR0
 528 0334 00000000 		.word	HI226_Angle
 529 0338 00000000 		.word	HI226_AngleV
 530 033c 00000000 		.word	htim5
 531 0340 00000000 		.word	htim2
 532 0344 00000000 		.word	adc_rawvalue
 533 0348 00000000 		.word	.LANCHOR1
 534 034c 3333733F 		.word	1064514355
 535 0350 00CC4C3D 		.word	1028443136
 536 0354 00000000 		.word	DataLink_UpFrameData
 537 0358 00000000 		.word	motor1_PwmData
 538 035c 00000000 		.word	motor2_PwmData
 539 0360 00080240 		.word	1073874944
 540 0364 00000000 		.word	ws2812_data
 541 0368 00000000 		.word	.LANCHOR2
 542 036c 00008036 		.word	914358272
 543 0370 0000A040 		.word	1084227584
 544 0374 0000A0C0 		.word	-1063256064
 545              	.L162:
 168:Follow_Balance.c ****       Follow_Balance_DW.Delay_DSTATE_o[0]) * 100.0F * 60.0F / 40000.0F;
 546              		.loc 1 168 5 is_stmt 1 view .LVU194
 168:Follow_Balance.c ****       Follow_Balance_DW.Delay_DSTATE_o[0]) * 100.0F * 60.0F / 40000.0F;
 547              		.loc 1 168 58 is_stmt 0 view .LVU195
 548 0378 AD4A     		ldr	r2, .L187+40
 549 037a D2F868C0 		ldr	ip, [r2, #104]
 169:Follow_Balance.c **** 
 550              		.loc 1 169 39 view .LVU196
 551 037e 2146     		mov	r1, r4
 552 0380 D4F88030 		ldr	r3, [r4, #128]
 168:Follow_Balance.c ****       Follow_Balance_DW.Delay_DSTATE_o[0]) * 100.0F * 60.0F / 40000.0F;
 553              		.loc 1 168 68 view .LVU197
 554 0384 ACEB0303 		sub	r3, ip, r3
 555 0388 07EE903A 		vmov	s15, r3	@ int
 168:Follow_Balance.c ****       Follow_Balance_DW.Delay_DSTATE_o[0]) * 100.0F * 60.0F / 40000.0F;
 556              		.loc 1 168 31 view .LVU198
 557 038c F8EEE77A 		vcvt.f32.s32	s15, s15
 169:Follow_Balance.c **** 
 558              		.loc 1 169 44 view .LVU199
ARM GAS  C:\Users\ysl\AppData\Local\Temp\ccJ1ill4.s 			page 20


 559 0390 9FEDA86A 		vldr.32	s12, .L187+44
 560 0394 67EE867A 		vmul.f32	s15, s15, s12
 169:Follow_Balance.c **** 
 561              		.loc 1 169 53 view .LVU200
 562 0398 DFEDA76A 		vldr.32	s13, .L187+48
 563 039c 67EEA67A 		vmul.f32	s15, s15, s13
 169:Follow_Balance.c **** 
 564              		.loc 1 169 61 view .LVU201
 565 03a0 9FEDA67A 		vldr.32	s14, .L187+52
 566 03a4 C7EE875A 		vdiv.f32	s11, s15, s14
 168:Follow_Balance.c ****       Follow_Balance_DW.Delay_DSTATE_o[0]) * 100.0F * 60.0F / 40000.0F;
 567              		.loc 1 168 29 view .LVU202
 568 03a8 C2ED185A 		vstr.32	s11, [r2, #96]
 180:Follow_Balance.c ****       Follow_Balance_DW.Delay1_DSTATE[0]) * 100.0F * 60.0F / 40000.0F;
 569              		.loc 1 180 5 is_stmt 1 view .LVU203
 180:Follow_Balance.c ****       Follow_Balance_DW.Delay1_DSTATE[0]) * 100.0F * 60.0F / 40000.0F;
 570              		.loc 1 180 59 is_stmt 0 view .LVU204
 571 03ac D46E     		ldr	r4, [r2, #108]
 181:Follow_Balance.c ****     for (rtb_Add1_m = 0; rtb_Add1_m < 18; rtb_Add1_m++) {
 572              		.loc 1 181 38 view .LVU205
 573 03ae D1F8CC30 		ldr	r3, [r1, #204]
 180:Follow_Balance.c ****       Follow_Balance_DW.Delay1_DSTATE[0]) * 100.0F * 60.0F / 40000.0F;
 574              		.loc 1 180 69 view .LVU206
 575 03b2 E31A     		subs	r3, r4, r3
 576 03b4 07EE903A 		vmov	s15, r3	@ int
 180:Follow_Balance.c ****       Follow_Balance_DW.Delay1_DSTATE[0]) * 100.0F * 60.0F / 40000.0F;
 577              		.loc 1 180 32 view .LVU207
 578 03b8 F8EEE77A 		vcvt.f32.s32	s15, s15
 181:Follow_Balance.c ****     for (rtb_Add1_m = 0; rtb_Add1_m < 18; rtb_Add1_m++) {
 579              		.loc 1 181 43 view .LVU208
 580 03bc 67EE867A 		vmul.f32	s15, s15, s12
 181:Follow_Balance.c ****     for (rtb_Add1_m = 0; rtb_Add1_m < 18; rtb_Add1_m++) {
 581              		.loc 1 181 52 view .LVU209
 582 03c0 67EEA67A 		vmul.f32	s15, s15, s13
 181:Follow_Balance.c ****     for (rtb_Add1_m = 0; rtb_Add1_m < 18; rtb_Add1_m++) {
 583              		.loc 1 181 60 view .LVU210
 584 03c4 C7EE876A 		vdiv.f32	s13, s15, s14
 180:Follow_Balance.c ****       Follow_Balance_DW.Delay1_DSTATE[0]) * 100.0F * 60.0F / 40000.0F;
 585              		.loc 1 180 30 view .LVU211
 586 03c8 C2ED196A 		vstr.32	s13, [r2, #100]
 182:Follow_Balance.c ****       /* Update for Delay: '<S15>/Delay' */
 587              		.loc 1 182 5 is_stmt 1 view .LVU212
 588              	.LVL14:
 182:Follow_Balance.c ****       /* Update for Delay: '<S15>/Delay' */
 589              		.loc 1 182 21 is_stmt 0 view .LVU213
 590 03cc 0023     		movs	r3, #0
 182:Follow_Balance.c ****       /* Update for Delay: '<S15>/Delay' */
 591              		.loc 1 182 5 view .LVU214
 592 03ce 13E0     		b	.L3
 593              	.LVL15:
 594              	.L4:
 184:Follow_Balance.c ****         Follow_Balance_DW.Delay_DSTATE_o[rtb_Add1_m + 1];
 595              		.loc 1 184 7 is_stmt 1 discriminator 3 view .LVU215
 185:Follow_Balance.c **** 
 596              		.loc 1 185 41 is_stmt 0 discriminator 3 view .LVU216
 597 03d0 9B4A     		ldr	r2, .L187+56
 598 03d2 03F12101 		add	r1, r3, #33
ARM GAS  C:\Users\ysl\AppData\Local\Temp\ccJ1ill4.s 			page 21


 599 03d6 52F82100 		ldr	r0, [r2, r1, lsl #2]
 184:Follow_Balance.c ****         Follow_Balance_DW.Delay_DSTATE_o[rtb_Add1_m + 1];
 600              		.loc 1 184 52 discriminator 3 view .LVU217
 601 03da 03F12001 		add	r1, r3, #32
 602 03de 42F82100 		str	r0, [r2, r1, lsl #2]
 188:Follow_Balance.c ****         Follow_Balance_DW.Delay1_DSTATE[rtb_Add1_m + 1];
 603              		.loc 1 188 7 is_stmt 1 discriminator 3 view .LVU218
 189:Follow_Balance.c ****     }
 604              		.loc 1 189 40 is_stmt 0 discriminator 3 view .LVU219
 605 03e2 03F13301 		add	r1, r3, #51
 606 03e6 02EB8101 		add	r1, r2, r1, lsl #2
 607 03ea 4968     		ldr	r1, [r1, #4]
 188:Follow_Balance.c ****         Follow_Balance_DW.Delay1_DSTATE[rtb_Add1_m + 1];
 608              		.loc 1 188 51 discriminator 3 view .LVU220
 609 03ec 03F13200 		add	r0, r3, #50
 610 03f0 02EB8002 		add	r2, r2, r0, lsl #2
 611 03f4 5160     		str	r1, [r2, #4]
 182:Follow_Balance.c ****       /* Update for Delay: '<S15>/Delay' */
 612              		.loc 1 182 53 is_stmt 1 discriminator 3 view .LVU221
 613              	.LVL16:
 182:Follow_Balance.c ****       /* Update for Delay: '<S15>/Delay' */
 614              		.loc 1 182 53 is_stmt 0 discriminator 3 view .LVU222
 615 03f6 0133     		adds	r3, r3, #1
 616              	.LVL17:
 617              	.L3:
 182:Follow_Balance.c ****       /* Update for Delay: '<S15>/Delay' */
 618              		.loc 1 182 37 is_stmt 1 discriminator 1 view .LVU223
 619 03f8 112B     		cmp	r3, #17
 620 03fa E9DD     		ble	.L4
 193:Follow_Balance.c **** 
 621              		.loc 1 193 5 view .LVU224
 193:Follow_Balance.c **** 
 622              		.loc 1 193 42 is_stmt 0 view .LVU225
 623 03fc 904B     		ldr	r3, .L187+56
 624              	.LVL18:
 193:Follow_Balance.c **** 
 625              		.loc 1 193 42 view .LVU226
 626 03fe C3F8C8C0 		str	ip, [r3, #200]
 196:Follow_Balance.c ****   }
 627              		.loc 1 196 5 is_stmt 1 view .LVU227
 196:Follow_Balance.c ****   }
 628              		.loc 1 196 41 is_stmt 0 view .LVU228
 629 0402 C3F81441 		str	r4, [r3, #276]
 630 0406 01E7     		b	.L2
 631              	.L163:
 214:Follow_Balance.c ****       Follow_Balance_B.Divide1);
 632              		.loc 1 214 5 is_stmt 1 view .LVU229
 214:Follow_Balance.c ****       Follow_Balance_B.Divide1);
 633              		.loc 1 214 33 is_stmt 0 view .LVU230
 634 0408 9846     		mov	r8, r3
 635 040a D3E90EAB 		ldrd	r10, [r3, #56]
 214:Follow_Balance.c ****       Follow_Balance_B.Divide1);
 636              		.loc 1 214 63 view .LVU231
 637 040e 884B     		ldr	r3, .L187+40
 638 0410 93ED187A 		vldr.32	s14, [r3, #96]
 215:Follow_Balance.c **** 
 639              		.loc 1 215 23 view .LVU232
ARM GAS  C:\Users\ysl\AppData\Local\Temp\ccJ1ill4.s 			page 22


 640 0414 D3ED197A 		vldr.32	s15, [r3, #100]
 214:Follow_Balance.c ****       Follow_Balance_B.Divide1);
 641              		.loc 1 214 71 view .LVU233
 642 0418 77EE277A 		vadd.f32	s15, s14, s15
 643 041c 17EE900A 		vmov	r0, s15
 644 0420 FFF7FEFF 		bl	__aeabi_f2d
 645              	.LVL19:
 646 0424 0246     		mov	r2, r0
 647 0426 0B46     		mov	r3, r1
 214:Follow_Balance.c ****       Follow_Balance_B.Divide1);
 648              		.loc 1 214 14 view .LVU234
 649 0428 5046     		mov	r0, r10
 650 042a 5946     		mov	r1, fp
 651 042c FFF7FEFF 		bl	__aeabi_dsub
 652              	.LVL20:
 653 0430 8146     		mov	r9, r0
 654 0432 8A46     		mov	r10, r1
 655 0434 CDE9009A 		strd	r9, [sp]
 656              	.LVL21:
 224:Follow_Balance.c ****       Follow_Balance_DW.Ki_speed * rtb_Add1) + Follow_Balance_DW.Delay_DSTATE_i)
 657              		.loc 1 224 5 is_stmt 1 view .LVU235
 224:Follow_Balance.c ****       Follow_Balance_DW.Ki_speed * rtb_Add1) + Follow_Balance_DW.Delay_DSTATE_i)
 658              		.loc 1 224 58 is_stmt 0 view .LVU236
 659 0438 73A3     		adr	r3, .L187
 660 043a D3E90023 		ldrd	r2, [r3]
 661 043e D8E91001 		ldrd	r0, [r8, #64]
 662 0442 FFF7FEFF 		bl	__aeabi_dmul
 663              	.LVL22:
 225:Follow_Balance.c ****       * 0.995F;
 664              		.loc 1 225 34 view .LVU237
 665 0446 4A46     		mov	r2, r9
 666 0448 5346     		mov	r3, r10
 667 044a FFF7FEFF 		bl	__aeabi_dmul
 668              	.LVL23:
 224:Follow_Balance.c ****       Follow_Balance_DW.Ki_speed * rtb_Add1) + Follow_Balance_DW.Delay_DSTATE_i)
 669              		.loc 1 224 41 view .LVU238
 670 044e FFF7FEFF 		bl	__aeabi_d2f
 671              	.LVL24:
 672 0452 07EE900A 		vmov	s15, r0
 225:Follow_Balance.c ****       * 0.995F;
 673              		.loc 1 225 65 view .LVU239
 674 0456 98ED1F7A 		vldr.32	s14, [r8, #124]
 225:Follow_Balance.c ****       * 0.995F;
 675              		.loc 1 225 46 view .LVU240
 676 045a 77EE877A 		vadd.f32	s15, s15, s14
 226:Follow_Balance.c **** 
 677              		.loc 1 226 7 view .LVU241
 678 045e 9FED797A 		vldr.32	s14, .L187+60
 679 0462 67EE877A 		vmul.f32	s15, s15, s14
 224:Follow_Balance.c ****       Follow_Balance_DW.Ki_speed * rtb_Add1) + Follow_Balance_DW.Delay_DSTATE_i)
 680              		.loc 1 224 38 view .LVU242
 681 0466 C8ED1F7A 		vstr.32	s15, [r8, #124]
 229:Follow_Balance.c ****       /* Gain: '<S44>/Gain1' */
 682              		.loc 1 229 5 is_stmt 1 view .LVU243
 229:Follow_Balance.c ****       /* Gain: '<S44>/Gain1' */
 683              		.loc 1 229 8 is_stmt 0 view .LVU244
 684 046a 9FED777A 		vldr.32	s14, .L187+64
ARM GAS  C:\Users\ysl\AppData\Local\Temp\ccJ1ill4.s 			page 23


 685 046e F4EEC77A 		vcmpe.f32	s15, s14
 686 0472 F1EE10FA 		vmrs	APSR_nzcv, FPSCR
 687 0476 3BDD     		ble	.L142
 231:Follow_Balance.c ****     } else if (Follow_Balance_DW.Delay_DSTATE_i < -1500.0F) {
 688              		.loc 1 231 7 is_stmt 1 view .LVU245
 231:Follow_Balance.c ****     } else if (Follow_Balance_DW.Delay_DSTATE_i < -1500.0F) {
 689              		.loc 1 231 40 is_stmt 0 view .LVU246
 690 0478 88ED1F7A 		vstr.32	s14, [r8, #124]
 691              	.L8:
 258:Follow_Balance.c ****       + 0.001 * Follow_Balance_DW.Kd_speed * (rtb_Add1 -
 692              		.loc 1 258 5 is_stmt 1 view .LVU247
 258:Follow_Balance.c ****       + 0.001 * Follow_Balance_DW.Kd_speed * (rtb_Add1 -
 693              		.loc 1 258 35 is_stmt 0 view .LVU248
 694 047c 64A3     		adr	r3, .L187+8
 695 047e D3E90023 		ldrd	r2, [r3]
 696 0482 DDE90001 		ldrd	r0, [sp]
 697 0486 FFF7FEFF 		bl	__aeabi_dmul
 698              	.LVL25:
 699 048a 8046     		mov	r8, r0
 700 048c 8946     		mov	r9, r1
 701              	.LVL26:
 258:Follow_Balance.c ****       + 0.001 * Follow_Balance_DW.Kd_speed * (rtb_Add1 -
 702              		.loc 1 258 65 view .LVU249
 703 048e DFF8B0A1 		ldr	r10, .L187+56
 704 0492 DAF87C00 		ldr	r0, [r10, #124]	@ float
 705 0496 FFF7FEFF 		bl	__aeabi_f2d
 706              	.LVL27:
 707 049a 0246     		mov	r2, r0
 708 049c 0B46     		mov	r3, r1
 258:Follow_Balance.c ****       + 0.001 * Follow_Balance_DW.Kd_speed * (rtb_Add1 -
 709              		.loc 1 258 46 view .LVU250
 710 049e 4046     		mov	r0, r8
 711 04a0 4946     		mov	r1, r9
 712 04a2 FFF7FEFF 		bl	__aeabi_dadd
 713              	.LVL28:
 714 04a6 CDE90201 		strd	r0, [sp, #8]
 259:Follow_Balance.c ****       Follow_Balance_DW.UD_DSTATE_o);
 715              		.loc 1 259 15 view .LVU251
 716 04aa 57A3     		adr	r3, .L187
 717 04ac D3E90023 		ldrd	r2, [r3]
 718 04b0 DAE91201 		ldrd	r0, [r10, #72]
 719 04b4 FFF7FEFF 		bl	__aeabi_dmul
 720              	.LVL29:
 721 04b8 8046     		mov	r8, r0
 722 04ba 8946     		mov	r9, r1
 259:Follow_Balance.c ****       Follow_Balance_DW.UD_DSTATE_o);
 723              		.loc 1 259 56 view .LVU252
 724 04bc DAE90623 		ldrd	r2, [r10, #24]
 725 04c0 DDE90001 		ldrd	r0, [sp]
 726 04c4 FFF7FEFF 		bl	__aeabi_dsub
 727              	.LVL30:
 728 04c8 0246     		mov	r2, r0
 729 04ca 0B46     		mov	r3, r1
 259:Follow_Balance.c ****       Follow_Balance_DW.UD_DSTATE_o);
 730              		.loc 1 259 44 view .LVU253
 731 04cc 4046     		mov	r0, r8
 732 04ce 4946     		mov	r1, r9
ARM GAS  C:\Users\ysl\AppData\Local\Temp\ccJ1ill4.s 			page 24


 733 04d0 FFF7FEFF 		bl	__aeabi_dmul
 734              	.LVL31:
 735 04d4 0246     		mov	r2, r0
 736 04d6 0B46     		mov	r3, r1
 259:Follow_Balance.c ****       Follow_Balance_DW.UD_DSTATE_o);
 737              		.loc 1 259 7 view .LVU254
 738 04d8 DDE90201 		ldrd	r0, [sp, #8]
 739 04dc FFF7FEFF 		bl	__aeabi_dadd
 740              	.LVL32:
 258:Follow_Balance.c ****       + 0.001 * Follow_Balance_DW.Kd_speed * (rtb_Add1 -
 741              		.loc 1 258 26 view .LVU255
 742 04e0 534B     		ldr	r3, .L187+40
 743 04e2 C3E90201 		strd	r0, [r3, #8]
 268:Follow_Balance.c ****   }
 744              		.loc 1 268 5 is_stmt 1 view .LVU256
 268:Follow_Balance.c ****   }
 745              		.loc 1 268 35 is_stmt 0 view .LVU257
 746 04e6 9DED007B 		vldr.64	d7, [sp]
 747 04ea 8AED067B 		vstr.64	d7, [r10, #24]
 748 04ee 93E6     		b	.L5
 749              	.LVL33:
 750              	.L142:
 232:Follow_Balance.c ****       /* Gain: '<S44>/Gain1' */
 751              		.loc 1 232 12 is_stmt 1 view .LVU258
 232:Follow_Balance.c ****       /* Gain: '<S44>/Gain1' */
 752              		.loc 1 232 15 is_stmt 0 view .LVU259
 753 04f0 9FED567A 		vldr.32	s14, .L187+68
 754 04f4 F4EEC77A 		vcmpe.f32	s15, s14
 755 04f8 F1EE10FA 		vmrs	APSR_nzcv, FPSCR
 756 04fc BED5     		bpl	.L8
 234:Follow_Balance.c ****     }
 757              		.loc 1 234 7 is_stmt 1 view .LVU260
 234:Follow_Balance.c ****     }
 758              		.loc 1 234 40 is_stmt 0 view .LVU261
 759 04fe 504B     		ldr	r3, .L187+56
 760 0500 83ED1F7A 		vstr.32	s14, [r3, #124]
 761 0504 BAE7     		b	.L8
 762              	.LVL34:
 763              	.L164:
 297:Follow_Balance.c ****       3.81469727E-6F;
 764              		.loc 1 297 5 is_stmt 1 view .LVU262
 297:Follow_Balance.c ****       3.81469727E-6F;
 765              		.loc 1 297 39 is_stmt 0 view .LVU263
 766 0506 C346     		mov	fp, r8
 767 0508 98ED477A 		vldr.32	s14, [r8, #284]
 297:Follow_Balance.c ****       3.81469727E-6F;
 768              		.loc 1 297 50 view .LVU264
 769 050c F8EEC87A 		vcvt.f32.s32	s15, s16
 297:Follow_Balance.c ****       3.81469727E-6F;
 770              		.loc 1 297 71 view .LVU265
 771 0510 DFED4F6A 		vldr.32	s13, .L187+72
 772 0514 67EEA67A 		vmul.f32	s15, s15, s13
 773              	.LVL35:
 306:Follow_Balance.c **** 
 774              		.loc 1 306 5 is_stmt 1 view .LVU266
 306:Follow_Balance.c **** 
 775              		.loc 1 306 58 is_stmt 0 view .LVU267
ARM GAS  C:\Users\ysl\AppData\Local\Temp\ccJ1ill4.s 			page 25


 776 0518 77EE677A 		vsub.f32	s15, s14, s15
 777              	.LVL36:
 306:Follow_Balance.c **** 
 778              		.loc 1 306 58 view .LVU268
 779 051c 17EE900A 		vmov	r0, s15
 780              	.LVL37:
 306:Follow_Balance.c **** 
 781              		.loc 1 306 58 view .LVU269
 782 0520 FFF7FEFF 		bl	__aeabi_f2d
 783              	.LVL38:
 306:Follow_Balance.c **** 
 784              		.loc 1 306 58 view .LVU270
 785 0524 8046     		mov	r8, r0
 786 0526 8946     		mov	r9, r1
 787 0528 3BA3     		adr	r3, .L187+16
 788 052a D3E90023 		ldrd	r2, [r3]
 789 052e FFF7FEFF 		bl	__aeabi_dmul
 790              	.LVL39:
 306:Follow_Balance.c **** 
 791              		.loc 1 306 41 view .LVU271
 792 0532 FFF7FEFF 		bl	__aeabi_d2f
 793              	.LVL40:
 794 0536 07EE900A 		vmov	s15, r0
 306:Follow_Balance.c **** 
 795              		.loc 1 306 38 view .LVU272
 796 053a 9BED1E7A 		vldr.32	s14, [fp, #120]
 797 053e 77EE877A 		vadd.f32	s15, s15, s14
 798 0542 CBED1E7A 		vstr.32	s15, [fp, #120]
 309:Follow_Balance.c ****       /* Sum: '<S48>/Add2' */
 799              		.loc 1 309 5 is_stmt 1 view .LVU273
 309:Follow_Balance.c ****       /* Sum: '<S48>/Add2' */
 800              		.loc 1 309 8 is_stmt 0 view .LVU274
 801 0546 9FED437A 		vldr.32	s14, .L187+76
 802 054a F4EEC77A 		vcmpe.f32	s15, s14
 803 054e F1EE10FA 		vmrs	APSR_nzcv, FPSCR
 804 0552 3CDD     		ble	.L143
 311:Follow_Balance.c ****     } else if (Follow_Balance_DW.Delay_DSTATE_n < -2000.0F) {
 805              		.loc 1 311 7 is_stmt 1 view .LVU275
 311:Follow_Balance.c ****     } else if (Follow_Balance_DW.Delay_DSTATE_n < -2000.0F) {
 806              		.loc 1 311 40 is_stmt 0 view .LVU276
 807 0554 8BED1E7A 		vstr.32	s14, [fp, #120]
 808              	.L13:
 327:Follow_Balance.c ****       3.814697265625E-6 * 3.0 + (-27.0 * rtb_Product3_p +
 809              		.loc 1 327 5 is_stmt 1 view .LVU277
 327:Follow_Balance.c ****       3.814697265625E-6 * 3.0 + (-27.0 * rtb_Product3_p +
 810              		.loc 1 327 76 is_stmt 0 view .LVU278
 811 0558 DFF8D4B0 		ldr	fp, .L187+40
 327:Follow_Balance.c ****       3.814697265625E-6 * 3.0 + (-27.0 * rtb_Product3_p +
 812              		.loc 1 327 45 view .LVU279
 813 055c BBF98A00 		ldrsh	r0, [fp, #138]
 814 0560 FFF7FEFF 		bl	__aeabi_i2d
 815              	.LVL41:
 327:Follow_Balance.c ****       3.814697265625E-6 * 3.0 + (-27.0 * rtb_Product3_p +
 816              		.loc 1 327 43 view .LVU280
 817 0564 2EA3     		adr	r3, .L187+24
 818 0566 D3E90023 		ldrd	r2, [r3]
 819 056a FFF7FEFF 		bl	__aeabi_dmul
ARM GAS  C:\Users\ysl\AppData\Local\Temp\ccJ1ill4.s 			page 26


 820              	.LVL42:
 327:Follow_Balance.c ****       3.814697265625E-6 * 3.0 + (-27.0 * rtb_Product3_p +
 821              		.loc 1 327 80 view .LVU281
 822 056e 0022     		movs	r2, #0
 823 0570 394B     		ldr	r3, .L187+80
 824 0572 FFF7FEFF 		bl	__aeabi_dmul
 825              	.LVL43:
 328:Follow_Balance.c ****       Follow_Balance_DW.Delay_DSTATE_n);
 826              		.loc 1 328 25 view .LVU282
 827 0576 0022     		movs	r2, #0
 828 0578 384B     		ldr	r3, .L187+84
 829 057a FFF7FEFF 		bl	__aeabi_dmul
 830              	.LVL44:
 831 057e CDE90201 		strd	r0, [sp, #8]
 328:Follow_Balance.c ****       Follow_Balance_DW.Delay_DSTATE_n);
 832              		.loc 1 328 40 view .LVU283
 833 0582 0022     		movs	r2, #0
 834 0584 364B     		ldr	r3, .L187+88
 835 0586 4046     		mov	r0, r8
 836 0588 4946     		mov	r1, r9
 837 058a FFF7FEFF 		bl	__aeabi_dmul
 838              	.LVL45:
 839 058e 8046     		mov	r8, r0
 840 0590 8946     		mov	r9, r1
 329:Follow_Balance.c **** 
 841              		.loc 1 329 24 view .LVU284
 842 0592 2B4B     		ldr	r3, .L187+56
 843 0594 986F     		ldr	r0, [r3, #120]	@ float
 844 0596 FFF7FEFF 		bl	__aeabi_f2d
 845              	.LVL46:
 846 059a 0246     		mov	r2, r0
 847 059c 0B46     		mov	r3, r1
 328:Follow_Balance.c ****       Follow_Balance_DW.Delay_DSTATE_n);
 848              		.loc 1 328 57 view .LVU285
 849 059e 4046     		mov	r0, r8
 850 05a0 4946     		mov	r1, r9
 851 05a2 FFF7FEFF 		bl	__aeabi_dadd
 852              	.LVL47:
 853 05a6 0246     		mov	r2, r0
 854 05a8 0B46     		mov	r3, r1
 328:Follow_Balance.c ****       Follow_Balance_DW.Delay_DSTATE_n);
 855              		.loc 1 328 31 view .LVU286
 856 05aa DDE90201 		ldrd	r0, [sp, #8]
 857 05ae FFF7FEFF 		bl	__aeabi_dadd
 858              	.LVL48:
 859 05b2 8046     		mov	r8, r0
 860 05b4 8946     		mov	r9, r1
 327:Follow_Balance.c ****       3.814697265625E-6 * 3.0 + (-27.0 * rtb_Product3_p +
 861              		.loc 1 327 33 view .LVU287
 862 05b6 CBE90089 		strd	r8, [fp]
 332:Follow_Balance.c ****       /* Sum: '<S17>/Add' incorporates:
 863              		.loc 1 332 5 is_stmt 1 view .LVU288
 332:Follow_Balance.c ****       /* Sum: '<S17>/Add' incorporates:
 864              		.loc 1 332 8 is_stmt 0 view .LVU289
 865 05ba 0022     		movs	r2, #0
 866 05bc 294B     		ldr	r3, .L187+92
 867 05be FFF7FEFF 		bl	__aeabi_dcmpgt
ARM GAS  C:\Users\ysl\AppData\Local\Temp\ccJ1ill4.s 			page 27


 868              	.LVL49:
 869 05c2 78B1     		cbz	r0, .L144
 336:Follow_Balance.c ****     } else if (Follow_Balance_B.Saturation < -1000.0) {
 870              		.loc 1 336 7 is_stmt 1 view .LVU290
 336:Follow_Balance.c ****     } else if (Follow_Balance_B.Saturation < -1000.0) {
 871              		.loc 1 336 35 is_stmt 0 view .LVU291
 872 05c4 0020     		movs	r0, #0
 873 05c6 2749     		ldr	r1, .L187+92
 874 05c8 CBE90001 		strd	r0, [fp]
 875 05cc 3AE6     		b	.L10
 876              	.L143:
 312:Follow_Balance.c ****       /* Sum: '<S48>/Add2' */
 877              		.loc 1 312 12 is_stmt 1 view .LVU292
 312:Follow_Balance.c ****       /* Sum: '<S48>/Add2' */
 878              		.loc 1 312 15 is_stmt 0 view .LVU293
 879 05ce 9FED267A 		vldr.32	s14, .L187+96
 880 05d2 F4EEC77A 		vcmpe.f32	s15, s14
 881 05d6 F1EE10FA 		vmrs	APSR_nzcv, FPSCR
 882 05da BDD5     		bpl	.L13
 314:Follow_Balance.c ****     }
 883              		.loc 1 314 7 is_stmt 1 view .LVU294
 314:Follow_Balance.c ****     }
 884              		.loc 1 314 40 is_stmt 0 view .LVU295
 885 05dc 184B     		ldr	r3, .L187+56
 886 05de 83ED1E7A 		vstr.32	s14, [r3, #120]
 887 05e2 B9E7     		b	.L13
 888              	.L144:
 337:Follow_Balance.c ****       /* Sum: '<S17>/Add' incorporates:
 889              		.loc 1 337 12 is_stmt 1 view .LVU296
 337:Follow_Balance.c ****       /* Sum: '<S17>/Add' incorporates:
 890              		.loc 1 337 15 is_stmt 0 view .LVU297
 891 05e4 10A3     		adr	r3, .L187+32
 892 05e6 D3E90023 		ldrd	r2, [r3]
 893 05ea 4046     		mov	r0, r8
 894 05ec 4946     		mov	r1, r9
 895 05ee FFF7FEFF 		bl	__aeabi_dcmplt
 896              	.LVL50:
 897 05f2 0028     		cmp	r0, #0
 898 05f4 3FF426AE 		beq	.L10
 341:Follow_Balance.c ****     }
 899              		.loc 1 341 7 is_stmt 1 view .LVU298
 341:Follow_Balance.c ****     }
 900              		.loc 1 341 35 is_stmt 0 view .LVU299
 901 05f8 0D4B     		ldr	r3, .L187+40
 902 05fa 0BA1     		adr	r1, .L187+32
 903 05fc D1E90001 		ldrd	r0, [r1]
 904 0600 C3E90001 		strd	r0, [r3]
 905 0604 1EE6     		b	.L10
 906              	.L188:
 907 0606 00BF     		.align	3
 908              	.L187:
 909 0608 FCA9F1D2 		.word	-755914244
 910 060c 4D62503F 		.word	1062232653
 911 0610 1B2FDD24 		.word	618475291
 912 0614 0681953F 		.word	1066762502
 913 0618 7B14AE47 		.word	1202590843
 914 061c E17A94BF 		.word	-1080788255
ARM GAS  C:\Users\ysl\AppData\Local\Temp\ccJ1ill4.s 			page 28


 915 0620 00000000 		.word	0
 916 0624 8099D940 		.word	1088002432
 917 0628 00000000 		.word	0
 918 062c 00408FC0 		.word	-1064353792
 919 0630 00000000 		.word	.LANCHOR0
 920 0634 0000C842 		.word	1120403456
 921 0638 00007042 		.word	1114636288
 922 063c 00401C47 		.word	1193033728
 923 0640 00000000 		.word	.LANCHOR1
 924 0644 52B87E3F 		.word	1065269330
 925 0648 0080BB44 		.word	1153138688
 926 064c 0080BBC4 		.word	-994344960
 927 0650 00008036 		.word	914358272
 928 0654 0000FA44 		.word	1157234688
 929 0658 0000D03E 		.word	1053818880
 930 065c 00000840 		.word	1074266112
 931 0660 00003BC0 		.word	-1069875200
 932 0664 00408F40 		.word	1083129856
 933 0668 0000FAC4 		.word	-990248960
 934              	.L165:
 935              	.LBB2:
 358:Follow_Balance.c **** 
 936              		.loc 1 358 5 is_stmt 1 view .LVU300
 361:Follow_Balance.c ****       tmp_0 = (int16_T)-Follow_Balance_B.angle[1];
 937              		.loc 1 361 5 view .LVU301
 361:Follow_Balance.c ****       tmp_0 = (int16_T)-Follow_Balance_B.angle[1];
 938              		.loc 1 361 31 is_stmt 0 view .LVU302
 939 066c C64B     		ldr	r3, .L189+48
 940 066e B3F98200 		ldrsh	r0, [r3, #130]
 361:Follow_Balance.c ****       tmp_0 = (int16_T)-Follow_Balance_B.angle[1];
 941              		.loc 1 361 8 view .LVU303
 942 0672 0028     		cmp	r0, #0
 943 0674 39DB     		blt	.L166
 364:Follow_Balance.c ****     }
 944              		.loc 1 364 13 view .LVU304
 945 0676 0346     		mov	r3, r0
 946              	.L19:
 947              	.LVL51:
 372:Follow_Balance.c ****       tmp = rtb_Add1;
 948              		.loc 1 372 5 is_stmt 1 view .LVU305
 372:Follow_Balance.c ****       tmp = rtb_Add1;
 949              		.loc 1 372 8 is_stmt 0 view .LVU306
 950 0678 40F6AC52 		movw	r2, #3500
 951 067c 9342     		cmp	r3, r2
 952 067e 38DC     		bgt	.L101
 375:Follow_Balance.c ****     }
 953              		.loc 1 375 7 is_stmt 1 view .LVU307
 375:Follow_Balance.c ****     }
 954              		.loc 1 375 23 is_stmt 0 view .LVU308
 955 0680 FFF7FEFF 		bl	__aeabi_i2d
 956              	.LVL52:
 375:Follow_Balance.c ****     }
 957              		.loc 1 375 21 view .LVU309
 958 0684 B4A3     		adr	r3, .L189
 959 0686 D3E90023 		ldrd	r2, [r3]
 960 068a FFF7FEFF 		bl	__aeabi_dmul
 961              	.LVL53:
ARM GAS  C:\Users\ysl\AppData\Local\Temp\ccJ1ill4.s 			page 29


 375:Follow_Balance.c ****     }
 962              		.loc 1 375 11 view .LVU310
 963 068e 0022     		movs	r2, #0
 964 0690 BE4B     		ldr	r3, .L189+52
 965 0692 FFF7FEFF 		bl	__aeabi_dmul
 966              	.LVL54:
 967 0696 CDE90201 		strd	r0, [sp, #8]
 968              	.LVL55:
 969              	.L20:
 388:Follow_Balance.c ****       3.814697265625E-6 * -6.0 + (rtb_Add1 - tmp) * 54.0;
 970              		.loc 1 388 5 is_stmt 1 view .LVU311
 388:Follow_Balance.c ****       3.814697265625E-6 * -6.0 + (rtb_Add1 - tmp) * 54.0;
 971              		.loc 1 388 71 is_stmt 0 view .LVU312
 972 069a DFF8EC92 		ldr	r9, .L189+48
 388:Follow_Balance.c ****       3.814697265625E-6 * -6.0 + (rtb_Add1 - tmp) * 54.0;
 973              		.loc 1 388 40 view .LVU313
 974 069e B9F98600 		ldrsh	r0, [r9, #134]
 975 06a2 FFF7FEFF 		bl	__aeabi_i2d
 976              	.LVL56:
 388:Follow_Balance.c ****       3.814697265625E-6 * -6.0 + (rtb_Add1 - tmp) * 54.0;
 977              		.loc 1 388 38 view .LVU314
 978 06a6 AEA3     		adr	r3, .L189+8
 979 06a8 D3E90023 		ldrd	r2, [r3]
 980 06ac FFF7FEFF 		bl	__aeabi_dmul
 981              	.LVL57:
 388:Follow_Balance.c ****       3.814697265625E-6 * -6.0 + (rtb_Add1 - tmp) * 54.0;
 982              		.loc 1 388 75 view .LVU315
 983 06b0 0022     		movs	r2, #0
 984 06b2 B74B     		ldr	r3, .L189+56
 985 06b4 FFF7FEFF 		bl	__aeabi_dmul
 986              	.LVL58:
 389:Follow_Balance.c ****   }
 987              		.loc 1 389 25 view .LVU316
 988 06b8 0022     		movs	r2, #0
 989 06ba B64B     		ldr	r3, .L189+60
 990 06bc FFF7FEFF 		bl	__aeabi_dmul
 991              	.LVL59:
 992 06c0 CDE90401 		strd	r0, [sp, #16]
 389:Follow_Balance.c ****   }
 993              		.loc 1 389 44 view .LVU317
 994 06c4 DDE90223 		ldrd	r2, [sp, #8]
 995 06c8 DDE90001 		ldrd	r0, [sp]
 996 06cc FFF7FEFF 		bl	__aeabi_dsub
 997              	.LVL60:
 389:Follow_Balance.c ****   }
 998              		.loc 1 389 51 view .LVU318
 999 06d0 0022     		movs	r2, #0
 1000 06d2 B14B     		ldr	r3, .L189+64
 1001 06d4 FFF7FEFF 		bl	__aeabi_dmul
 1002              	.LVL61:
 1003 06d8 0246     		mov	r2, r0
 1004 06da 0B46     		mov	r3, r1
 389:Follow_Balance.c ****   }
 1005              		.loc 1 389 32 view .LVU319
 1006 06dc DDE90401 		ldrd	r0, [sp, #16]
 1007 06e0 FFF7FEFF 		bl	__aeabi_dadd
 1008              	.LVL62:
ARM GAS  C:\Users\ysl\AppData\Local\Temp\ccJ1ill4.s 			page 30


 388:Follow_Balance.c ****       3.814697265625E-6 * -6.0 + (rtb_Add1 - tmp) * 54.0;
 1009              		.loc 1 388 28 view .LVU320
 1010 06e4 C9E90401 		strd	r0, [r9, #16]
 1011 06e8 B3E5     		b	.L18
 1012              	.LVL63:
 1013              	.L166:
 362:Follow_Balance.c ****     } else {
 1014              		.loc 1 362 7 is_stmt 1 view .LVU321
 362:Follow_Balance.c ****     } else {
 1015              		.loc 1 362 47 is_stmt 0 view .LVU322
 1016 06ea 83B2     		uxth	r3, r0
 362:Follow_Balance.c ****     } else {
 1017              		.loc 1 362 15 view .LVU323
 1018 06ec 5B42     		rsbs	r3, r3, #0
 362:Follow_Balance.c ****     } else {
 1019              		.loc 1 362 13 view .LVU324
 1020 06ee 1BB2     		sxth	r3, r3
 1021              	.LVL64:
 362:Follow_Balance.c ****     } else {
 1022              		.loc 1 362 13 view .LVU325
 1023 06f0 C2E7     		b	.L19
 1024              	.L101:
 373:Follow_Balance.c ****     } else {
 1025              		.loc 1 373 11 view .LVU326
 1026 06f2 9DED007B 		vldr.64	d7, [sp]
 1027 06f6 8DED027B 		vstr.64	d7, [sp, #8]
 1028 06fa CEE7     		b	.L20
 1029              	.LVL65:
 1030              	.L21:
 373:Follow_Balance.c ****     } else {
 1031              		.loc 1 373 11 view .LVU327
 1032              	.LBE2:
 404:Follow_Balance.c ****   }
 1033              		.loc 1 404 5 is_stmt 1 view .LVU328
 404:Follow_Balance.c ****   }
 1034              		.loc 1 404 39 is_stmt 0 view .LVU329
 1035 06fc A74B     		ldr	r3, .L189+68
 1036 06fe 83F82F81 		strb	r8, [r3, #303]
 1037 0702 B2E5     		b	.L22
 1038              	.L23:
 418:Follow_Balance.c ****   }
 1039              		.loc 1 418 5 is_stmt 1 view .LVU330
 418:Follow_Balance.c ****   }
 1040              		.loc 1 418 36 is_stmt 0 view .LVU331
 1041 0704 A54B     		ldr	r3, .L189+68
 1042 0706 83F82C51 		strb	r5, [r3, #300]
 1043 070a B7E5     		b	.L24
 1044              	.L25:
 432:Follow_Balance.c ****   }
 1045              		.loc 1 432 5 is_stmt 1 view .LVU332
 432:Follow_Balance.c ****   }
 1046              		.loc 1 432 38 is_stmt 0 view .LVU333
 1047 070c A34B     		ldr	r3, .L189+68
 1048 070e 83F82D41 		strb	r4, [r3, #301]
 1049 0712 BCE5     		b	.L26
 1050              	.L27:
 446:Follow_Balance.c ****   }
ARM GAS  C:\Users\ysl\AppData\Local\Temp\ccJ1ill4.s 			page 31


 1051              		.loc 1 446 5 is_stmt 1 view .LVU334
 446:Follow_Balance.c ****   }
 1052              		.loc 1 446 38 is_stmt 0 view .LVU335
 1053 0714 A14B     		ldr	r3, .L189+68
 1054 0716 83F82EA1 		strb	r10, [r3, #302]
 1055 071a C4E5     		b	.L28
 1056              	.LVL66:
 1057              	.L102:
 483:Follow_Balance.c ****   } else if (rtb_Add1 < -2048.0) {
 1058              		.loc 1 483 14 view .LVU336
 1059 071c 9FED928B 		vldr.64	d8, .L189+16
 1060              	.LVL67:
 1061              	.L29:
 486:Follow_Balance.c ****   }
 487:Follow_Balance.c **** 
 488:Follow_Balance.c ****   tmp = floor(rtb_Add1);
 1062              		.loc 1 488 3 is_stmt 1 view .LVU337
 1063              		.loc 1 488 9 is_stmt 0 view .LVU338
 1064 0720 B0EE480A 		vmov.f32	s0, s16
 1065 0724 F0EE680A 		vmov.f32	s1, s17
 1066 0728 FFF7FEFF 		bl	floor
 1067              	.LVL68:
 1068 072c B0EE408A 		vmov.f32	s16, s0
 1069 0730 F0EE608A 		vmov.f32	s17, s1
 1070              	.LVL69:
 489:Follow_Balance.c ****   if (rtIsNaN(tmp)) {
 1071              		.loc 1 489 3 is_stmt 1 view .LVU339
 1072              		.loc 1 489 7 is_stmt 0 view .LVU340
 1073 0734 FFF7FEFF 		bl	rtIsNaN
 1074              	.LVL70:
 1075              		.loc 1 489 6 view .LVU341
 1076 0738 0028     		cmp	r0, #0
 1077 073a 3BD0     		beq	.L167
 490:Follow_Balance.c ****     tmp = 0.0;
 1078              		.loc 1 490 9 view .LVU342
 1079 073c 0024     		movs	r4, #0
 1080 073e 0025     		movs	r5, #0
 1081              	.LVL71:
 1082              	.L30:
 491:Follow_Balance.c ****   } else {
 492:Follow_Balance.c ****     tmp = fmod(tmp, 65536.0);
 493:Follow_Balance.c ****   }
 494:Follow_Balance.c **** 
 495:Follow_Balance.c ****   /* Switch: '<S20>/Switch1' incorporates:
 496:Follow_Balance.c ****    *  Saturate: '<Root>/Saturation3'
 497:Follow_Balance.c ****    */
 498:Follow_Balance.c ****   Follow_Balance_B.Saturation_d = (int16_T)(tmp < 0.0 ? (int32_T)(int16_T)
 1083              		.loc 1 498 3 is_stmt 1 view .LVU343
 1084              		.loc 1 498 35 is_stmt 0 view .LVU344
 1085 0740 0022     		movs	r2, #0
 1086 0742 0023     		movs	r3, #0
 1087 0744 2046     		mov	r0, r4
 1088 0746 2946     		mov	r1, r5
 1089 0748 FFF7FEFF 		bl	__aeabi_dcmplt
 1090              	.LVL72:
 1091 074c 0028     		cmp	r0, #0
 1092 074e 3CD1     		bne	.L168
ARM GAS  C:\Users\ysl\AppData\Local\Temp\ccJ1ill4.s 			page 32


 499:Follow_Balance.c ****     -(int16_T)(uint16_T)-tmp : (int32_T)(int16_T)(uint16_T)tmp);
 1093              		.loc 1 499 50 discriminator 2 view .LVU345
 1094 0750 2046     		mov	r0, r4
 1095 0752 2946     		mov	r1, r5
 1096 0754 FFF7FEFF 		bl	__aeabi_d2uiz
 1097              	.LVL73:
 498:Follow_Balance.c ****     -(int16_T)(uint16_T)-tmp : (int32_T)(int16_T)(uint16_T)tmp);
 1098              		.loc 1 498 35 discriminator 2 view .LVU346
 1099 0758 00B2     		sxth	r0, r0
 1100              	.L33:
 498:Follow_Balance.c ****     -(int16_T)(uint16_T)-tmp : (int32_T)(int16_T)(uint16_T)tmp);
 1101              		.loc 1 498 33 discriminator 4 view .LVU347
 1102 075a 8B4B     		ldr	r3, .L189+48
 1103 075c A3F8A000 		strh	r0, [r3, #160]	@ movhi
 500:Follow_Balance.c **** 
 501:Follow_Balance.c ****   /* RateLimiter: '<Root>/Rate Limiter1' */
 502:Follow_Balance.c ****   if (Follow_Balance_B.Saturation_d - Follow_Balance_DW.PrevY > 5) {
 1104              		.loc 1 502 3 is_stmt 1 discriminator 4 view .LVU348
 1105              		.loc 1 502 56 is_stmt 0 discriminator 4 view .LVU349
 1106 0760 8E4B     		ldr	r3, .L189+68
 1107 0762 B3F92831 		ldrsh	r3, [r3, #296]
 1108              		.loc 1 502 37 discriminator 4 view .LVU350
 1109 0766 C01A     		subs	r0, r0, r3
 1110              		.loc 1 502 6 discriminator 4 view .LVU351
 1111 0768 0528     		cmp	r0, #5
 1112 076a 37DD     		ble	.L34
 503:Follow_Balance.c ****     /* Switch: '<S20>/Switch1' */
 504:Follow_Balance.c ****     Follow_Balance_B.Saturation_d = (int16_T)(Follow_Balance_DW.PrevY + 5);
 1113              		.loc 1 504 5 is_stmt 1 view .LVU352
 1114              		.loc 1 504 64 is_stmt 0 view .LVU353
 1115 076c 9BB2     		uxth	r3, r3
 1116              		.loc 1 504 71 view .LVU354
 1117 076e 0533     		adds	r3, r3, #5
 1118              		.loc 1 504 35 view .LVU355
 1119 0770 854A     		ldr	r2, .L189+48
 1120 0772 A2F8A030 		strh	r3, [r2, #160]	@ movhi
 1121              	.L35:
 505:Follow_Balance.c ****   } else if (Follow_Balance_B.Saturation_d - Follow_Balance_DW.PrevY < -5) {
 506:Follow_Balance.c ****     /* Switch: '<S20>/Switch1' */
 507:Follow_Balance.c ****     Follow_Balance_B.Saturation_d = (int16_T)(Follow_Balance_DW.PrevY + -5);
 508:Follow_Balance.c ****   }
 509:Follow_Balance.c **** 
 510:Follow_Balance.c ****   Follow_Balance_DW.PrevY = Follow_Balance_B.Saturation_d;
 1122              		.loc 1 510 3 is_stmt 1 view .LVU356
 1123              		.loc 1 510 45 is_stmt 0 view .LVU357
 1124 0776 8449     		ldr	r1, .L189+48
 1125 0778 B1F9A020 		ldrsh	r2, [r1, #160]
 1126              		.loc 1 510 27 view .LVU358
 1127 077c 874B     		ldr	r3, .L189+68
 1128 077e A3F82821 		strh	r2, [r3, #296]	@ movhi
 511:Follow_Balance.c **** 
 512:Follow_Balance.c ****   /* End of RateLimiter: '<Root>/Rate Limiter1' */
 513:Follow_Balance.c **** 
 514:Follow_Balance.c ****   /* Sum: '<Root>/Add3' */
 515:Follow_Balance.c ****   rtb_Add1 = Follow_Balance_B.Add_o - Follow_Balance_B.Saturation;
 1129              		.loc 1 515 3 is_stmt 1 view .LVU359
 1130              		.loc 1 515 12 is_stmt 0 view .LVU360
ARM GAS  C:\Users\ysl\AppData\Local\Temp\ccJ1ill4.s 			page 33


 1131 0782 D1E90023 		ldrd	r2, [r1]
 1132 0786 D1E90401 		ldrd	r0, [r1, #16]
 1133 078a FFF7FEFF 		bl	__aeabi_dsub
 1134              	.LVL74:
 1135 078e 0246     		mov	r2, r0
 1136 0790 0B46     		mov	r3, r1
 1137 0792 43EC182B 		vmov	d8, r2, r3
 1138              	.LVL75:
 516:Follow_Balance.c **** 
 517:Follow_Balance.c ****   /* Saturate: '<Root>/Saturation2' */
 518:Follow_Balance.c ****   if (rtb_Add1 > 2048.0) {
 1139              		.loc 1 518 3 is_stmt 1 view .LVU361
 1140              		.loc 1 518 6 is_stmt 0 view .LVU362
 1141 0796 0022     		movs	r2, #0
 1142              	.LVL76:
 1143              		.loc 1 518 6 view .LVU363
 1144 0798 814B     		ldr	r3, .L189+72
 1145 079a FFF7FEFF 		bl	__aeabi_dcmpgt
 1146              	.LVL77:
 1147 079e 30BB     		cbnz	r0, .L105
 519:Follow_Balance.c ****     rtb_Add1 = 2048.0;
 520:Follow_Balance.c ****   } else if (rtb_Add1 < -2048.0) {
 1148              		.loc 1 520 10 is_stmt 1 view .LVU364
 1149              		.loc 1 520 13 is_stmt 0 view .LVU365
 1150 07a0 0022     		movs	r2, #0
 1151 07a2 804B     		ldr	r3, .L189+76
 1152 07a4 51EC180B 		vmov	r0, r1, d8
 1153 07a8 FFF7FEFF 		bl	__aeabi_dcmplt
 1154              	.LVL78:
 1155 07ac 08B3     		cbz	r0, .L36
 521:Follow_Balance.c ****     rtb_Add1 = -2048.0;
 1156              		.loc 1 521 14 view .LVU366
 1157 07ae 9FED708B 		vldr.64	d8, .L189+24
 1158              	.LVL79:
 1159              		.loc 1 521 14 view .LVU367
 1160 07b2 1EE0     		b	.L36
 1161              	.LVL80:
 1162              	.L167:
 492:Follow_Balance.c ****   }
 1163              		.loc 1 492 5 is_stmt 1 view .LVU368
 492:Follow_Balance.c ****   }
 1164              		.loc 1 492 11 is_stmt 0 view .LVU369
 1165 07b4 9FED701B 		vldr.64	d1, .L189+32
 1166 07b8 B0EE480A 		vmov.f32	s0, s16
 1167 07bc F0EE680A 		vmov.f32	s1, s17
 1168 07c0 FFF7FEFF 		bl	fmod
 1169              	.LVL81:
 1170 07c4 55EC104B 		vmov	r4, r5, d0
 1171              	.LVL82:
 492:Follow_Balance.c ****   }
 1172              		.loc 1 492 11 view .LVU370
 1173 07c8 BAE7     		b	.L30
 1174              	.L168:
 499:Follow_Balance.c **** 
 1175              		.loc 1 499 25 discriminator 1 view .LVU371
 1176 07ca 2046     		mov	r0, r4
 1177 07cc 05F10041 		add	r1, r5, #-2147483648
ARM GAS  C:\Users\ysl\AppData\Local\Temp\ccJ1ill4.s 			page 34


 499:Follow_Balance.c **** 
 1178              		.loc 1 499 15 discriminator 1 view .LVU372
 1179 07d0 FFF7FEFF 		bl	__aeabi_d2uiz
 1180              	.LVL83:
 1181 07d4 80B2     		uxth	r0, r0
 498:Follow_Balance.c ****     -(int16_T)(uint16_T)-tmp : (int32_T)(int16_T)(uint16_T)tmp);
 1182              		.loc 1 498 66 discriminator 1 view .LVU373
 1183 07d6 4042     		rsbs	r0, r0, #0
 498:Follow_Balance.c ****     -(int16_T)(uint16_T)-tmp : (int32_T)(int16_T)(uint16_T)tmp);
 1184              		.loc 1 498 35 discriminator 1 view .LVU374
 1185 07d8 00B2     		sxth	r0, r0
 1186 07da BEE7     		b	.L33
 1187              	.L34:
 505:Follow_Balance.c ****     /* Switch: '<S20>/Switch1' */
 1188              		.loc 1 505 10 is_stmt 1 view .LVU375
 505:Follow_Balance.c ****     /* Switch: '<S20>/Switch1' */
 1189              		.loc 1 505 13 is_stmt 0 view .LVU376
 1190 07dc 10F1050F 		cmn	r0, #5
 1191 07e0 C9DA     		bge	.L35
 507:Follow_Balance.c ****   }
 1192              		.loc 1 507 5 is_stmt 1 view .LVU377
 507:Follow_Balance.c ****   }
 1193              		.loc 1 507 64 is_stmt 0 view .LVU378
 1194 07e2 9BB2     		uxth	r3, r3
 507:Follow_Balance.c ****   }
 1195              		.loc 1 507 71 view .LVU379
 1196 07e4 053B     		subs	r3, r3, #5
 507:Follow_Balance.c ****   }
 1197              		.loc 1 507 35 view .LVU380
 1198 07e6 684A     		ldr	r2, .L189+48
 1199 07e8 A2F8A030 		strh	r3, [r2, #160]	@ movhi
 1200 07ec C3E7     		b	.L35
 1201              	.LVL84:
 1202              	.L105:
 519:Follow_Balance.c ****   } else if (rtb_Add1 < -2048.0) {
 1203              		.loc 1 519 14 view .LVU381
 1204 07ee 9FED5E8B 		vldr.64	d8, .L189+16
 1205              	.LVL85:
 1206              	.L36:
 522:Follow_Balance.c ****   }
 523:Follow_Balance.c **** 
 524:Follow_Balance.c ****   tmp = floor(rtb_Add1);
 1207              		.loc 1 524 3 is_stmt 1 view .LVU382
 1208              		.loc 1 524 9 is_stmt 0 view .LVU383
 1209 07f2 B0EE480A 		vmov.f32	s0, s16
 1210 07f6 F0EE680A 		vmov.f32	s1, s17
 1211 07fa FFF7FEFF 		bl	floor
 1212              	.LVL86:
 1213 07fe B0EE408A 		vmov.f32	s16, s0
 1214 0802 F0EE608A 		vmov.f32	s17, s1
 1215              	.LVL87:
 525:Follow_Balance.c ****   if (rtIsNaN(tmp)) {
 1216              		.loc 1 525 3 is_stmt 1 view .LVU384
 1217              		.loc 1 525 7 is_stmt 0 view .LVU385
 1218 0806 FFF7FEFF 		bl	rtIsNaN
 1219              	.LVL88:
 1220              		.loc 1 525 6 view .LVU386
ARM GAS  C:\Users\ysl\AppData\Local\Temp\ccJ1ill4.s 			page 35


 1221 080a 0028     		cmp	r0, #0
 1222 080c 00F08D80 		beq	.L169
 526:Follow_Balance.c ****     tmp = 0.0;
 1223              		.loc 1 526 9 view .LVU387
 1224 0810 0024     		movs	r4, #0
 1225 0812 0025     		movs	r5, #0
 1226              	.LVL89:
 1227              	.L37:
 527:Follow_Balance.c ****   } else {
 528:Follow_Balance.c ****     tmp = fmod(tmp, 65536.0);
 529:Follow_Balance.c ****   }
 530:Follow_Balance.c **** 
 531:Follow_Balance.c ****   /* Switch: '<S21>/Switch1' incorporates:
 532:Follow_Balance.c ****    *  Saturate: '<Root>/Saturation2'
 533:Follow_Balance.c ****    */
 534:Follow_Balance.c ****   Follow_Balance_B.Saturation1 = (int16_T)(tmp < 0.0 ? (int32_T)(int16_T)
 1228              		.loc 1 534 3 is_stmt 1 view .LVU388
 1229              		.loc 1 534 34 is_stmt 0 view .LVU389
 1230 0814 0022     		movs	r2, #0
 1231 0816 0023     		movs	r3, #0
 1232 0818 2046     		mov	r0, r4
 1233 081a 2946     		mov	r1, r5
 1234 081c FFF7FEFF 		bl	__aeabi_dcmplt
 1235              	.LVL90:
 1236 0820 0028     		cmp	r0, #0
 1237 0822 40F08D80 		bne	.L170
 535:Follow_Balance.c ****     -(int16_T)(uint16_T)-tmp : (int32_T)(int16_T)(uint16_T)tmp);
 1238              		.loc 1 535 50 discriminator 2 view .LVU390
 1239 0826 2046     		mov	r0, r4
 1240 0828 2946     		mov	r1, r5
 1241 082a FFF7FEFF 		bl	__aeabi_d2uiz
 1242              	.LVL91:
 534:Follow_Balance.c ****     -(int16_T)(uint16_T)-tmp : (int32_T)(int16_T)(uint16_T)tmp);
 1243              		.loc 1 534 34 discriminator 2 view .LVU391
 1244 082e 00B2     		sxth	r0, r0
 1245              	.L40:
 534:Follow_Balance.c ****     -(int16_T)(uint16_T)-tmp : (int32_T)(int16_T)(uint16_T)tmp);
 1246              		.loc 1 534 32 discriminator 4 view .LVU392
 1247 0830 554B     		ldr	r3, .L189+48
 1248 0832 A3F8A200 		strh	r0, [r3, #162]	@ movhi
 536:Follow_Balance.c **** 
 537:Follow_Balance.c ****   /* RateLimiter: '<Root>/Rate Limiter2' */
 538:Follow_Balance.c ****   rtb_Add1_m = Follow_Balance_B.Saturation1 - Follow_Balance_DW.PrevY_n;
 1249              		.loc 1 538 3 is_stmt 1 discriminator 4 view .LVU393
 1250              		.loc 1 538 64 is_stmt 0 discriminator 4 view .LVU394
 1251 0836 594B     		ldr	r3, .L189+68
 1252 0838 B3F92A31 		ldrsh	r3, [r3, #298]
 1253              		.loc 1 538 14 discriminator 4 view .LVU395
 1254 083c C01A     		subs	r0, r0, r3
 1255              	.LVL92:
 539:Follow_Balance.c ****   if (rtb_Add1_m > 5) {
 1256              		.loc 1 539 3 is_stmt 1 discriminator 4 view .LVU396
 1257              		.loc 1 539 6 is_stmt 0 discriminator 4 view .LVU397
 1258 083e 0528     		cmp	r0, #5
 1259 0840 40F3B880 		ble	.L41
 540:Follow_Balance.c ****     /* Switch: '<S21>/Switch1' */
 541:Follow_Balance.c ****     Follow_Balance_B.Saturation1 = (int16_T)(Follow_Balance_DW.PrevY_n + 5);
ARM GAS  C:\Users\ysl\AppData\Local\Temp\ccJ1ill4.s 			page 36


 1260              		.loc 1 541 5 is_stmt 1 view .LVU398
 1261              		.loc 1 541 63 is_stmt 0 view .LVU399
 1262 0844 9BB2     		uxth	r3, r3
 1263              		.loc 1 541 72 view .LVU400
 1264 0846 0533     		adds	r3, r3, #5
 1265              		.loc 1 541 34 view .LVU401
 1266 0848 4F4A     		ldr	r2, .L189+48
 1267 084a A2F8A230 		strh	r3, [r2, #162]	@ movhi
 1268              	.L42:
 542:Follow_Balance.c ****   } else if (rtb_Add1_m < -5) {
 543:Follow_Balance.c ****     /* Switch: '<S21>/Switch1' */
 544:Follow_Balance.c ****     Follow_Balance_B.Saturation1 = (int16_T)(Follow_Balance_DW.PrevY_n + -5);
 545:Follow_Balance.c ****   }
 546:Follow_Balance.c **** 
 547:Follow_Balance.c ****   Follow_Balance_DW.PrevY_n = Follow_Balance_B.Saturation1;
 1269              		.loc 1 547 3 is_stmt 1 view .LVU402
 1270              		.loc 1 547 47 is_stmt 0 view .LVU403
 1271 084e 4E4B     		ldr	r3, .L189+48
 1272 0850 B3F9A220 		ldrsh	r2, [r3, #162]
 1273              		.loc 1 547 29 view .LVU404
 1274 0854 514C     		ldr	r4, .L189+68
 1275              	.LVL93:
 1276              		.loc 1 547 29 view .LVU405
 1277 0856 A4F82A21 		strh	r2, [r4, #298]	@ movhi
 548:Follow_Balance.c **** 
 549:Follow_Balance.c ****   /* End of RateLimiter: '<Root>/Rate Limiter2' */
 550:Follow_Balance.c **** 
 551:Follow_Balance.c ****   /* Sum: '<S32>/Add1' incorporates:
 552:Follow_Balance.c ****    *  DataStoreWrite: '<Root>/Data Store Write6'
 553:Follow_Balance.c ****    *  Delay: '<S12>/Delay One Step'
 554:Follow_Balance.c ****    */
 555:Follow_Balance.c ****   rtb_Product3_p = (real32_T)Follow_Balance_B.Saturation_d -
 1278              		.loc 1 555 3 is_stmt 1 view .LVU406
 1279              		.loc 1 555 46 is_stmt 0 view .LVU407
 1280 085a B3F9A030 		ldrsh	r3, [r3, #160]
 1281 085e 07EE903A 		vmov	s15, r3	@ int
 1282              		.loc 1 555 20 view .LVU408
 1283 0862 F8EEE77A 		vcvt.f32.s32	s15, s15
 556:Follow_Balance.c ****     Follow_Balance_DW.DelayOneStep_DSTATE;
 1284              		.loc 1 556 22 view .LVU409
 1285 0866 94ED188A 		vldr.32	s16, [r4, #96]
 555:Follow_Balance.c ****     Follow_Balance_DW.DelayOneStep_DSTATE;
 1286              		.loc 1 555 18 view .LVU410
 1287 086a 37EEC89A 		vsub.f32	s18, s15, s16
 1288              	.LVL94:
 557:Follow_Balance.c **** 
 558:Follow_Balance.c ****   /* Sum: '<S35>/Add2' incorporates:
 559:Follow_Balance.c ****    *  Constant: '<S35>/Constant1'
 560:Follow_Balance.c ****    *  Delay: '<S35>/Delay'
 561:Follow_Balance.c ****    *  Gain: '<S35>/Gain'
 562:Follow_Balance.c ****    *  Product: '<S35>/Product3'
 563:Follow_Balance.c ****    */
 564:Follow_Balance.c ****   Follow_Balance_DW.Delay_DSTATE += (real32_T)(0.03 * rtb_Product3_p);
 1289              		.loc 1 564 3 is_stmt 1 view .LVU411
 1290              		.loc 1 564 53 is_stmt 0 view .LVU412
 1291 086e 19EE100A 		vmov	r0, s18
 1292              	.LVL95:
ARM GAS  C:\Users\ysl\AppData\Local\Temp\ccJ1ill4.s 			page 37


 1293              		.loc 1 564 53 view .LVU413
 1294 0872 FFF7FEFF 		bl	__aeabi_f2d
 1295              	.LVL96:
 1296 0876 8046     		mov	r8, r0
 1297 0878 8946     		mov	r9, r1
 1298 087a 41A3     		adr	r3, .L189+40
 1299 087c D3E90023 		ldrd	r2, [r3]
 1300 0880 FFF7FEFF 		bl	__aeabi_dmul
 1301              	.LVL97:
 1302              		.loc 1 564 37 view .LVU414
 1303 0884 FFF7FEFF 		bl	__aeabi_d2f
 1304              	.LVL98:
 1305 0888 FFF7FEFF 		bl	__aeabi_f2d
 1306              	.LVL99:
 1307              		.loc 1 564 34 view .LVU415
 1308 088c D4E90023 		ldrd	r2, [r4]
 1309 0890 FFF7FEFF 		bl	__aeabi_dadd
 1310              	.LVL100:
 1311 0894 8246     		mov	r10, r0
 1312 0896 8B46     		mov	fp, r1
 1313 0898 C4E900AB 		strd	r10, [r4]
 565:Follow_Balance.c **** 
 566:Follow_Balance.c ****   /* Saturate: '<S35>/Saturation' */
 567:Follow_Balance.c ****   if (Follow_Balance_DW.Delay_DSTATE > 2000.0) {
 1314              		.loc 1 567 3 is_stmt 1 view .LVU416
 1315              		.loc 1 567 6 is_stmt 0 view .LVU417
 1316 089c 0022     		movs	r2, #0
 1317 089e 424B     		ldr	r3, .L189+80
 1318 08a0 FFF7FEFF 		bl	__aeabi_dcmpgt
 1319              	.LVL101:
 1320 08a4 0028     		cmp	r0, #0
 1321 08a6 00F08F80 		beq	.L147
 568:Follow_Balance.c ****     /* Sum: '<S35>/Add2' */
 569:Follow_Balance.c ****     Follow_Balance_DW.Delay_DSTATE = 2000.0;
 1322              		.loc 1 569 5 is_stmt 1 view .LVU418
 1323              		.loc 1 569 36 is_stmt 0 view .LVU419
 1324 08aa 0020     		movs	r0, #0
 1325 08ac 3E49     		ldr	r1, .L189+80
 1326 08ae C4E90001 		strd	r0, [r4]
 1327              	.L45:
 570:Follow_Balance.c ****   } else if (Follow_Balance_DW.Delay_DSTATE < -2000.0) {
 571:Follow_Balance.c ****     /* Sum: '<S35>/Add2' */
 572:Follow_Balance.c ****     Follow_Balance_DW.Delay_DSTATE = -2000.0;
 573:Follow_Balance.c ****   }
 574:Follow_Balance.c **** 
 575:Follow_Balance.c ****   /* End of Saturate: '<S35>/Saturation' */
 576:Follow_Balance.c **** 
 577:Follow_Balance.c ****   /* Sum: '<S32>/Add' incorporates:
 578:Follow_Balance.c ****    *  Constant: '<S34>/Constant2'
 579:Follow_Balance.c ****    *  Constant: '<S36>/Constant'
 580:Follow_Balance.c ****    *  Delay: '<S35>/Delay'
 581:Follow_Balance.c ****    *  Product: '<S34>/Product2'
 582:Follow_Balance.c ****    *  Product: '<S36>/Product'
 583:Follow_Balance.c ****    *  Sum: '<S37>/Diff'
 584:Follow_Balance.c ****    *  UnitDelay: '<S37>/UD'
 585:Follow_Balance.c ****    *
 586:Follow_Balance.c ****    * Block description for '<S37>/Diff':
ARM GAS  C:\Users\ysl\AppData\Local\Temp\ccJ1ill4.s 			page 38


 587:Follow_Balance.c ****    *
 588:Follow_Balance.c ****    *  Add in CPU
 589:Follow_Balance.c ****    *
 590:Follow_Balance.c ****    * Block description for '<S37>/UD':
 591:Follow_Balance.c ****    *
 592:Follow_Balance.c ****    *  Store in Global RAM
 593:Follow_Balance.c ****    */
 594:Follow_Balance.c ****   rtb_Add1 = (7.0 * rtb_Product3_p + Follow_Balance_DW.Delay_DSTATE) +
 1328              		.loc 1 594 3 is_stmt 1 view .LVU420
 1329              		.loc 1 594 19 is_stmt 0 view .LVU421
 1330 08b2 0022     		movs	r2, #0
 1331 08b4 3D4B     		ldr	r3, .L189+84
 1332 08b6 4046     		mov	r0, r8
 1333 08b8 4946     		mov	r1, r9
 1334 08ba FFF7FEFF 		bl	__aeabi_dmul
 1335              	.LVL102:
 1336              		.loc 1 594 55 view .LVU422
 1337 08be 374C     		ldr	r4, .L189+68
 1338              		.loc 1 594 36 view .LVU423
 1339 08c0 D4E90023 		ldrd	r2, [r4]
 1340 08c4 FFF7FEFF 		bl	__aeabi_dadd
 1341              	.LVL103:
 1342 08c8 8046     		mov	r8, r0
 1343 08ca 8946     		mov	r9, r1
 595:Follow_Balance.c ****     (rtb_Product3_p - Follow_Balance_DW.UD_DSTATE_f) * 5.0;
 1344              		.loc 1 595 40 view .LVU424
 1345 08cc D4ED1A7A 		vldr.32	s15, [r4, #104]
 1346              		.loc 1 595 21 view .LVU425
 1347 08d0 79EE677A 		vsub.f32	s15, s18, s15
 1348 08d4 17EE900A 		vmov	r0, s15
 1349 08d8 FFF7FEFF 		bl	__aeabi_f2d
 1350              	.LVL104:
 1351              		.loc 1 595 54 view .LVU426
 1352 08dc 0022     		movs	r2, #0
 1353 08de 344B     		ldr	r3, .L189+88
 1354 08e0 FFF7FEFF 		bl	__aeabi_dmul
 1355              	.LVL105:
 1356 08e4 0246     		mov	r2, r0
 1357 08e6 0B46     		mov	r3, r1
 594:Follow_Balance.c ****     (rtb_Product3_p - Follow_Balance_DW.UD_DSTATE_f) * 5.0;
 1358              		.loc 1 594 12 view .LVU427
 1359 08e8 4046     		mov	r0, r8
 1360 08ea 4946     		mov	r1, r9
 1361 08ec FFF7FEFF 		bl	__aeabi_dadd
 1362              	.LVL106:
 1363 08f0 0446     		mov	r4, r0
 1364 08f2 0D46     		mov	r5, r1
 1365              	.LVL107:
 596:Follow_Balance.c **** 
 597:Follow_Balance.c ****   /* Switch: '<S20>/Switch1' incorporates:
 598:Follow_Balance.c ****    *  DataStoreWrite: '<Root>/Data Store Write6'
 599:Follow_Balance.c ****    *  Delay: '<S12>/Delay One Step'
 600:Follow_Balance.c ****    *  Switch: '<S20>/Switch3'
 601:Follow_Balance.c ****    */
 602:Follow_Balance.c ****   if (Follow_Balance_DW.DelayOneStep_DSTATE > -30.0F) {
 1366              		.loc 1 602 3 is_stmt 1 view .LVU428
 1367              		.loc 1 602 6 is_stmt 0 view .LVU429
ARM GAS  C:\Users\ysl\AppData\Local\Temp\ccJ1ill4.s 			page 39


 1368 08f4 FBEE0E7A 		vmov.f32	s15, #-3.0e+1
 1369 08f8 B4EEE78A 		vcmpe.f32	s16, s15
 1370 08fc F1EE10FA 		vmrs	APSR_nzcv, FPSCR
 1371 0900 40F3CE80 		ble	.L148
 603:Follow_Balance.c ****     /* Switch: '<S20>/Switch' */
 604:Follow_Balance.c ****     if (Follow_Balance_DW.DelayOneStep_DSTATE > 30.0F) {
 1372              		.loc 1 604 5 is_stmt 1 view .LVU430
 1373              		.loc 1 604 8 is_stmt 0 view .LVU431
 1374 0904 F3EE0E7A 		vmov.f32	s15, #3.0e+1
 1375 0908 B4EEE78A 		vcmpe.f32	s16, s15
 1376 090c F1EE10FA 		vmrs	APSR_nzcv, FPSCR
 1377 0910 40F38B80 		ble	.L149
 605:Follow_Balance.c ****       /* Switch: '<S20>/Switch2' */
 606:Follow_Balance.c ****       if (rtb_Add1 > 0.0) {
 1378              		.loc 1 606 7 is_stmt 1 view .LVU432
 1379              		.loc 1 606 10 is_stmt 0 view .LVU433
 1380 0914 0022     		movs	r2, #0
 1381 0916 0023     		movs	r3, #0
 1382 0918 FFF7FEFF 		bl	__aeabi_dcmpgt
 1383              	.LVL108:
 1384 091c 0028     		cmp	r0, #0
 1385 091e 64D1     		bne	.L171
 607:Follow_Balance.c ****         tmp = floor(rtb_Add1);
 608:Follow_Balance.c ****         if (rtIsInf(tmp)) {
 609:Follow_Balance.c ****           /* Switch: '<S20>/Switch1' */
 610:Follow_Balance.c ****           Follow_Balance_B.Saturation_d = 0;
 611:Follow_Balance.c ****         } else {
 612:Follow_Balance.c ****           /* Switch: '<S20>/Switch1' */
 613:Follow_Balance.c ****           Follow_Balance_B.Saturation_d = (int16_T)(int32_T)fmod(tmp, 65536.0);
 614:Follow_Balance.c ****         }
 615:Follow_Balance.c ****       } else {
 616:Follow_Balance.c ****         /* Switch: '<S20>/Switch1' incorporates:
 617:Follow_Balance.c ****          *  Constant: '<S20>/Constant'
 618:Follow_Balance.c ****          */
 619:Follow_Balance.c ****         Follow_Balance_B.Saturation_d = 10;
 1386              		.loc 1 619 9 is_stmt 1 view .LVU434
 1387              		.loc 1 619 39 is_stmt 0 view .LVU435
 1388 0920 194B     		ldr	r3, .L189+48
 1389 0922 0A22     		movs	r2, #10
 1390 0924 A3F8A020 		strh	r2, [r3, #160]	@ movhi
 1391 0928 C5E0     		b	.L54
 1392              	.LVL109:
 1393              	.L169:
 528:Follow_Balance.c ****   }
 1394              		.loc 1 528 5 is_stmt 1 view .LVU436
 528:Follow_Balance.c ****   }
 1395              		.loc 1 528 11 is_stmt 0 view .LVU437
 1396 092a 9FED131B 		vldr.64	d1, .L189+32
 1397 092e B0EE480A 		vmov.f32	s0, s16
 1398 0932 F0EE680A 		vmov.f32	s1, s17
 1399 0936 FFF7FEFF 		bl	fmod
 1400              	.LVL110:
 1401 093a 55EC104B 		vmov	r4, r5, d0
 1402              	.LVL111:
 528:Follow_Balance.c ****   }
 1403              		.loc 1 528 11 view .LVU438
 1404 093e 69E7     		b	.L37
ARM GAS  C:\Users\ysl\AppData\Local\Temp\ccJ1ill4.s 			page 40


 1405              	.L170:
 535:Follow_Balance.c **** 
 1406              		.loc 1 535 25 discriminator 1 view .LVU439
 1407 0940 2046     		mov	r0, r4
 1408 0942 05F10041 		add	r1, r5, #-2147483648
 535:Follow_Balance.c **** 
 1409              		.loc 1 535 15 discriminator 1 view .LVU440
 1410 0946 FFF7FEFF 		bl	__aeabi_d2uiz
 1411              	.LVL112:
 1412 094a 80B2     		uxth	r0, r0
 534:Follow_Balance.c ****     -(int16_T)(uint16_T)-tmp : (int32_T)(int16_T)(uint16_T)tmp);
 1413              		.loc 1 534 65 discriminator 1 view .LVU441
 1414 094c 4042     		rsbs	r0, r0, #0
 534:Follow_Balance.c ****     -(int16_T)(uint16_T)-tmp : (int32_T)(int16_T)(uint16_T)tmp);
 1415              		.loc 1 534 34 discriminator 1 view .LVU442
 1416 094e 00B2     		sxth	r0, r0
 1417 0950 6EE7     		b	.L40
 1418              	.L190:
 1419 0952 00BFAFF3 		.align	3
 1419      0080
 1420              	.L189:
 1421 0958 00000000 		.word	0
 1422 095c 007BD440 		.word	1087666944
 1423 0960 00000000 		.word	0
 1424 0964 8099D940 		.word	1088002432
 1425 0968 00000000 		.word	0
 1426 096c 0000A040 		.word	1084227584
 1427 0970 00000000 		.word	0
 1428 0974 0000A0C0 		.word	-1063256064
 1429 0978 00000000 		.word	0
 1430 097c 0000F040 		.word	1089470464
 1431 0980 B81E85EB 		.word	-343597384
 1432 0984 51B89E3F 		.word	1067366481
 1433 0988 00000000 		.word	.LANCHOR0
 1434 098c 0000A03E 		.word	1050673152
 1435 0990 0000D03E 		.word	1053818880
 1436 0994 000018C0 		.word	-1072168960
 1437 0998 00004B40 		.word	1078657024
 1438 099c 00000000 		.word	.LANCHOR1
 1439 09a0 0000A040 		.word	1084227584
 1440 09a4 0000A0C0 		.word	-1063256064
 1441 09a8 00409F40 		.word	1084178432
 1442 09ac 00001C40 		.word	1075576832
 1443 09b0 00001440 		.word	1075052544
 1444              	.LVL113:
 1445              	.L41:
 542:Follow_Balance.c ****     /* Switch: '<S21>/Switch1' */
 1446              		.loc 1 542 10 is_stmt 1 view .LVU443
 542:Follow_Balance.c ****     /* Switch: '<S21>/Switch1' */
 1447              		.loc 1 542 13 is_stmt 0 view .LVU444
 1448 09b4 10F1050F 		cmn	r0, #5
 1449 09b8 BFF649AF 		bge	.L42
 544:Follow_Balance.c ****   }
 1450              		.loc 1 544 5 is_stmt 1 view .LVU445
 544:Follow_Balance.c ****   }
 1451              		.loc 1 544 63 is_stmt 0 view .LVU446
 1452 09bc 9BB2     		uxth	r3, r3
ARM GAS  C:\Users\ysl\AppData\Local\Temp\ccJ1ill4.s 			page 41


 544:Follow_Balance.c ****   }
 1453              		.loc 1 544 72 view .LVU447
 1454 09be 053B     		subs	r3, r3, #5
 544:Follow_Balance.c ****   }
 1455              		.loc 1 544 34 view .LVU448
 1456 09c0 CD4A     		ldr	r2, .L191+24
 1457 09c2 A2F8A230 		strh	r3, [r2, #162]	@ movhi
 1458 09c6 42E7     		b	.L42
 1459              	.LVL114:
 1460              	.L147:
 570:Follow_Balance.c ****     /* Sum: '<S35>/Add2' */
 1461              		.loc 1 570 10 is_stmt 1 view .LVU449
 570:Follow_Balance.c ****     /* Sum: '<S35>/Add2' */
 1462              		.loc 1 570 13 is_stmt 0 view .LVU450
 1463 09c8 C5A3     		adr	r3, .L191
 1464 09ca D3E90023 		ldrd	r2, [r3]
 1465 09ce 5046     		mov	r0, r10
 1466 09d0 5946     		mov	r1, fp
 1467 09d2 FFF7FEFF 		bl	__aeabi_dcmplt
 1468              	.LVL115:
 1469 09d6 0028     		cmp	r0, #0
 1470 09d8 3FF46BAF 		beq	.L45
 572:Follow_Balance.c ****   }
 1471              		.loc 1 572 5 is_stmt 1 view .LVU451
 572:Follow_Balance.c ****   }
 1472              		.loc 1 572 36 is_stmt 0 view .LVU452
 1473 09dc C74B     		ldr	r3, .L191+28
 1474 09de C0A1     		adr	r1, .L191
 1475 09e0 D1E90001 		ldrd	r0, [r1]
 1476 09e4 C3E90001 		strd	r0, [r3]
 1477 09e8 63E7     		b	.L45
 1478              	.LVL116:
 1479              	.L171:
 607:Follow_Balance.c ****         if (rtIsInf(tmp)) {
 1480              		.loc 1 607 9 is_stmt 1 view .LVU453
 607:Follow_Balance.c ****         if (rtIsInf(tmp)) {
 1481              		.loc 1 607 15 is_stmt 0 view .LVU454
 1482 09ea 45EC104B 		vmov	d0, r4, r5
 1483 09ee FFF7FEFF 		bl	floor
 1484              	.LVL117:
 1485 09f2 B0EE408A 		vmov.f32	s16, s0
 1486 09f6 F0EE608A 		vmov.f32	s17, s1
 1487              	.LVL118:
 608:Follow_Balance.c ****           /* Switch: '<S20>/Switch1' */
 1488              		.loc 1 608 9 is_stmt 1 view .LVU455
 608:Follow_Balance.c ****           /* Switch: '<S20>/Switch1' */
 1489              		.loc 1 608 13 is_stmt 0 view .LVU456
 1490 09fa FFF7FEFF 		bl	rtIsInf
 1491              	.LVL119:
 608:Follow_Balance.c ****           /* Switch: '<S20>/Switch1' */
 1492              		.loc 1 608 12 view .LVU457
 1493 09fe 20B1     		cbz	r0, .L53
 610:Follow_Balance.c ****         } else {
 1494              		.loc 1 610 11 is_stmt 1 view .LVU458
 610:Follow_Balance.c ****         } else {
 1495              		.loc 1 610 41 is_stmt 0 view .LVU459
 1496 0a00 BD4B     		ldr	r3, .L191+24
ARM GAS  C:\Users\ysl\AppData\Local\Temp\ccJ1ill4.s 			page 42


 1497 0a02 0022     		movs	r2, #0
 1498 0a04 A3F8A020 		strh	r2, [r3, #160]	@ movhi
 1499 0a08 55E0     		b	.L54
 1500              	.L53:
 613:Follow_Balance.c ****         }
 1501              		.loc 1 613 11 is_stmt 1 view .LVU460
 613:Follow_Balance.c ****         }
 1502              		.loc 1 613 61 is_stmt 0 view .LVU461
 1503 0a0a 9FEDB71B 		vldr.64	d1, .L191+8
 1504 0a0e B0EE480A 		vmov.f32	s0, s16
 1505 0a12 F0EE680A 		vmov.f32	s1, s17
 1506 0a16 FFF7FEFF 		bl	fmod
 1507              	.LVL120:
 1508 0a1a 51EC100B 		vmov	r0, r1, d0
 613:Follow_Balance.c ****         }
 1509              		.loc 1 613 52 view .LVU462
 1510 0a1e FFF7FEFF 		bl	__aeabi_d2iz
 1511              	.LVL121:
 613:Follow_Balance.c ****         }
 1512              		.loc 1 613 41 view .LVU463
 1513 0a22 B54B     		ldr	r3, .L191+24
 1514 0a24 A3F8A000 		strh	r0, [r3, #160]	@ movhi
 1515 0a28 45E0     		b	.L54
 1516              	.LVL122:
 1517              	.L149:
 620:Follow_Balance.c ****       }
 621:Follow_Balance.c **** 
 622:Follow_Balance.c ****       /* End of Switch: '<S20>/Switch2' */
 623:Follow_Balance.c ****     } else {
 624:Follow_Balance.c ****       tmp = floor(rtb_Add1);
 1518              		.loc 1 624 7 is_stmt 1 view .LVU464
 1519              		.loc 1 624 13 is_stmt 0 view .LVU465
 1520 0a2a 45EC104B 		vmov	d0, r4, r5
 1521 0a2e FFF7FEFF 		bl	floor
 1522              	.LVL123:
 1523 0a32 B0EE408A 		vmov.f32	s16, s0
 1524 0a36 F0EE608A 		vmov.f32	s17, s1
 1525              	.LVL124:
 625:Follow_Balance.c ****       if (rtIsNaN(tmp) || rtIsInf(tmp)) {
 1526              		.loc 1 625 7 is_stmt 1 view .LVU466
 1527              		.loc 1 625 11 is_stmt 0 view .LVU467
 1528 0a3a FFF7FEFF 		bl	rtIsNaN
 1529              	.LVL125:
 1530              		.loc 1 625 10 view .LVU468
 1531 0a3e 88B1     		cbz	r0, .L172
 626:Follow_Balance.c ****         tmp = 0.0;
 1532              		.loc 1 626 13 view .LVU469
 1533 0a40 0024     		movs	r4, #0
 1534              	.LVL126:
 1535              		.loc 1 626 13 view .LVU470
 1536 0a42 0025     		movs	r5, #0
 1537              	.LVL127:
 1538              	.L55:
 627:Follow_Balance.c ****       } else {
 628:Follow_Balance.c ****         tmp = fmod(tmp, 65536.0);
 629:Follow_Balance.c ****       }
 630:Follow_Balance.c **** 
ARM GAS  C:\Users\ysl\AppData\Local\Temp\ccJ1ill4.s 			page 43


 631:Follow_Balance.c ****       /* Switch: '<S20>/Switch1' */
 632:Follow_Balance.c ****       Follow_Balance_B.Saturation_d = (int16_T)(tmp < 0.0 ? (int32_T)(int16_T)
 1539              		.loc 1 632 7 is_stmt 1 view .LVU471
 1540              		.loc 1 632 39 is_stmt 0 view .LVU472
 1541 0a44 0022     		movs	r2, #0
 1542 0a46 0023     		movs	r3, #0
 1543 0a48 2046     		mov	r0, r4
 1544 0a4a 2946     		mov	r1, r5
 1545 0a4c FFF7FEFF 		bl	__aeabi_dcmplt
 1546              	.LVL128:
 1547 0a50 E8B9     		cbnz	r0, .L173
 633:Follow_Balance.c ****         -(int16_T)(uint16_T)-tmp : (int32_T)(int16_T)(uint16_T)tmp);
 1548              		.loc 1 633 54 discriminator 2 view .LVU473
 1549 0a52 2046     		mov	r0, r4
 1550 0a54 2946     		mov	r1, r5
 1551 0a56 FFF7FEFF 		bl	__aeabi_d2uiz
 1552              	.LVL129:
 632:Follow_Balance.c ****         -(int16_T)(uint16_T)-tmp : (int32_T)(int16_T)(uint16_T)tmp);
 1553              		.loc 1 632 39 discriminator 2 view .LVU474
 1554 0a5a 03B2     		sxth	r3, r0
 1555              	.L58:
 632:Follow_Balance.c ****         -(int16_T)(uint16_T)-tmp : (int32_T)(int16_T)(uint16_T)tmp);
 1556              		.loc 1 632 37 discriminator 4 view .LVU475
 1557 0a5c A64A     		ldr	r2, .L191+24
 1558 0a5e A2F8A030 		strh	r3, [r2, #160]	@ movhi
 1559 0a62 28E0     		b	.L54
 1560              	.LVL130:
 1561              	.L172:
 625:Follow_Balance.c ****         tmp = 0.0;
 1562              		.loc 1 625 27 discriminator 1 view .LVU476
 1563 0a64 B0EE480A 		vmov.f32	s0, s16
 1564 0a68 F0EE680A 		vmov.f32	s1, s17
 1565 0a6c FFF7FEFF 		bl	rtIsInf
 1566              	.LVL131:
 625:Follow_Balance.c ****         tmp = 0.0;
 1567              		.loc 1 625 24 discriminator 1 view .LVU477
 1568 0a70 10B1     		cbz	r0, .L174
 626:Follow_Balance.c ****       } else {
 1569              		.loc 1 626 13 view .LVU478
 1570 0a72 0024     		movs	r4, #0
 1571              	.LVL132:
 626:Follow_Balance.c ****       } else {
 1572              		.loc 1 626 13 view .LVU479
 1573 0a74 0025     		movs	r5, #0
 1574 0a76 E5E7     		b	.L55
 1575              	.LVL133:
 1576              	.L174:
 628:Follow_Balance.c ****       }
 1577              		.loc 1 628 9 is_stmt 1 view .LVU480
 628:Follow_Balance.c ****       }
 1578              		.loc 1 628 15 is_stmt 0 view .LVU481
 1579 0a78 9FED9B1B 		vldr.64	d1, .L191+8
 1580 0a7c B0EE480A 		vmov.f32	s0, s16
 1581 0a80 F0EE680A 		vmov.f32	s1, s17
 1582 0a84 FFF7FEFF 		bl	fmod
 1583              	.LVL134:
 1584 0a88 55EC104B 		vmov	r4, r5, d0
ARM GAS  C:\Users\ysl\AppData\Local\Temp\ccJ1ill4.s 			page 44


 1585              	.LVL135:
 628:Follow_Balance.c ****       }
 1586              		.loc 1 628 15 view .LVU482
 1587 0a8c DAE7     		b	.L55
 1588              	.L173:
 1589              		.loc 1 633 29 discriminator 1 view .LVU483
 1590 0a8e 2046     		mov	r0, r4
 1591 0a90 05F10041 		add	r1, r5, #-2147483648
 1592              		.loc 1 633 19 discriminator 1 view .LVU484
 1593 0a94 FFF7FEFF 		bl	__aeabi_d2uiz
 1594              	.LVL136:
 1595 0a98 83B2     		uxth	r3, r0
 632:Follow_Balance.c ****         -(int16_T)(uint16_T)-tmp : (int32_T)(int16_T)(uint16_T)tmp);
 1596              		.loc 1 632 70 discriminator 1 view .LVU485
 1597 0a9a 5B42     		rsbs	r3, r3, #0
 632:Follow_Balance.c ****         -(int16_T)(uint16_T)-tmp : (int32_T)(int16_T)(uint16_T)tmp);
 1598              		.loc 1 632 39 discriminator 1 view .LVU486
 1599 0a9c 1BB2     		sxth	r3, r3
 1600 0a9e DDE7     		b	.L58
 1601              	.LVL137:
 1602              	.L148:
 634:Follow_Balance.c ****     }
 635:Follow_Balance.c **** 
 636:Follow_Balance.c ****     /* End of Switch: '<S20>/Switch' */
 637:Follow_Balance.c ****   } else if (rtb_Add1 > 0.0) {
 1603              		.loc 1 637 10 is_stmt 1 view .LVU487
 1604              		.loc 1 637 13 is_stmt 0 view .LVU488
 1605 0aa0 0022     		movs	r2, #0
 1606 0aa2 0023     		movs	r3, #0
 1607 0aa4 FFF7FEFF 		bl	__aeabi_dcmpgt
 1608              	.LVL138:
 1609 0aa8 0028     		cmp	r0, #0
 1610 0aaa 7ED0     		beq	.L152
 638:Follow_Balance.c ****     /* Switch: '<S20>/Switch1' incorporates:
 639:Follow_Balance.c ****      *  Constant: '<S20>/Constant1'
 640:Follow_Balance.c ****      *  Switch: '<S20>/Switch3'
 641:Follow_Balance.c ****      */
 642:Follow_Balance.c ****     Follow_Balance_B.Saturation_d = -10;
 1611              		.loc 1 642 5 is_stmt 1 view .LVU489
 1612              		.loc 1 642 35 is_stmt 0 view .LVU490
 1613 0aac 924B     		ldr	r3, .L191+24
 1614 0aae 4FF6F672 		movw	r2, #65526
 1615 0ab2 A3F8A020 		strh	r2, [r3, #160]	@ movhi
 1616              	.LVL139:
 1617              	.L54:
 643:Follow_Balance.c ****   } else {
 644:Follow_Balance.c ****     /* Switch: '<S20>/Switch3' */
 645:Follow_Balance.c ****     tmp = floor(rtb_Add1);
 646:Follow_Balance.c ****     if (rtIsNaN(tmp) || rtIsInf(tmp)) {
 647:Follow_Balance.c ****       tmp = 0.0;
 648:Follow_Balance.c ****     } else {
 649:Follow_Balance.c ****       tmp = fmod(tmp, 65536.0);
 650:Follow_Balance.c ****     }
 651:Follow_Balance.c **** 
 652:Follow_Balance.c ****     /* Switch: '<S20>/Switch1' incorporates:
 653:Follow_Balance.c ****      *  Switch: '<S20>/Switch3'
 654:Follow_Balance.c ****      */
ARM GAS  C:\Users\ysl\AppData\Local\Temp\ccJ1ill4.s 			page 45


 655:Follow_Balance.c ****     Follow_Balance_B.Saturation_d = (int16_T)(tmp < 0.0 ? (int32_T)(int16_T)
 656:Follow_Balance.c ****       -(int16_T)(uint16_T)-tmp : (int32_T)(int16_T)(uint16_T)tmp);
 657:Follow_Balance.c ****   }
 658:Follow_Balance.c **** 
 659:Follow_Balance.c ****   /* End of Switch: '<S20>/Switch1' */
 660:Follow_Balance.c **** 
 661:Follow_Balance.c ****   /* Saturate: '<Root>/Saturation' */
 662:Follow_Balance.c ****   if (Follow_Balance_B.Saturation_d > 4200) {
 1618              		.loc 1 662 3 is_stmt 1 view .LVU491
 1619              		.loc 1 662 23 is_stmt 0 view .LVU492
 1620 0ab6 904B     		ldr	r3, .L191+24
 1621 0ab8 B3F9A030 		ldrsh	r3, [r3, #160]
 1622              		.loc 1 662 6 view .LVU493
 1623 0abc 41F26802 		movw	r2, #4200
 1624 0ac0 9342     		cmp	r3, r2
 1625 0ac2 40F3AD80 		ble	.L65
 663:Follow_Balance.c ****     /* Switch: '<S20>/Switch1' incorporates:
 664:Follow_Balance.c ****      *  Saturate: '<Root>/Saturation'
 665:Follow_Balance.c ****      */
 666:Follow_Balance.c ****     Follow_Balance_B.Saturation_d = 4200;
 1626              		.loc 1 666 5 is_stmt 1 view .LVU494
 1627              		.loc 1 666 35 is_stmt 0 view .LVU495
 1628 0ac6 8C4B     		ldr	r3, .L191+24
 1629 0ac8 A3F8A020 		strh	r2, [r3, #160]	@ movhi
 1630              	.L66:
 667:Follow_Balance.c ****   } else if (Follow_Balance_B.Saturation_d < -4200) {
 668:Follow_Balance.c ****     /* Switch: '<S20>/Switch1' incorporates:
 669:Follow_Balance.c ****      *  Saturate: '<Root>/Saturation'
 670:Follow_Balance.c ****      */
 671:Follow_Balance.c ****     Follow_Balance_B.Saturation_d = -4200;
 672:Follow_Balance.c ****   }
 673:Follow_Balance.c **** 
 674:Follow_Balance.c ****   /* End of Saturate: '<Root>/Saturation' */
 675:Follow_Balance.c **** 
 676:Follow_Balance.c ****   /* Sum: '<S33>/Add1' incorporates:
 677:Follow_Balance.c ****    *  DataStoreWrite: '<Root>/Data Store Write7'
 678:Follow_Balance.c ****    *  Delay: '<S13>/Delay One Step'
 679:Follow_Balance.c ****    */
 680:Follow_Balance.c ****   rtb_Add1_e = (real32_T)Follow_Balance_B.Saturation1 -
 1631              		.loc 1 680 3 is_stmt 1 view .LVU496
 1632              		.loc 1 680 42 is_stmt 0 view .LVU497
 1633 0acc 8A4B     		ldr	r3, .L191+24
 1634 0ace B3F9A230 		ldrsh	r3, [r3, #162]
 1635 0ad2 07EE903A 		vmov	s15, r3	@ int
 1636              		.loc 1 680 16 view .LVU498
 1637 0ad6 F8EEE77A 		vcvt.f32.s32	s15, s15
 681:Follow_Balance.c ****     Follow_Balance_DW.DelayOneStep_DSTATE_d;
 1638              		.loc 1 681 22 view .LVU499
 1639 0ada 884C     		ldr	r4, .L191+28
 1640 0adc 94ED198A 		vldr.32	s16, [r4, #100]
 680:Follow_Balance.c ****     Follow_Balance_DW.DelayOneStep_DSTATE_d;
 1641              		.loc 1 680 14 view .LVU500
 1642 0ae0 77EEC88A 		vsub.f32	s17, s15, s16
 1643              	.LVL140:
 682:Follow_Balance.c **** 
 683:Follow_Balance.c ****   /* Sum: '<S39>/Add2' incorporates:
 684:Follow_Balance.c ****    *  Constant: '<S39>/Constant1'
ARM GAS  C:\Users\ysl\AppData\Local\Temp\ccJ1ill4.s 			page 46


 685:Follow_Balance.c ****    *  Delay: '<S39>/Delay'
 686:Follow_Balance.c ****    *  Gain: '<S39>/Gain'
 687:Follow_Balance.c ****    *  Product: '<S39>/Product3'
 688:Follow_Balance.c ****    */
 689:Follow_Balance.c ****   Follow_Balance_DW.Delay_DSTATE_g += (real32_T)(0.03 * rtb_Add1_e);
 1644              		.loc 1 689 3 is_stmt 1 view .LVU501
 1645              		.loc 1 689 55 is_stmt 0 view .LVU502
 1646 0ae4 18EE900A 		vmov	r0, s17
 1647 0ae8 FFF7FEFF 		bl	__aeabi_f2d
 1648              	.LVL141:
 1649 0aec 8046     		mov	r8, r0
 1650 0aee 8946     		mov	r9, r1
 1651 0af0 7FA3     		adr	r3, .L191+16
 1652 0af2 D3E90023 		ldrd	r2, [r3]
 1653 0af6 FFF7FEFF 		bl	__aeabi_dmul
 1654              	.LVL142:
 1655              		.loc 1 689 39 view .LVU503
 1656 0afa FFF7FEFF 		bl	__aeabi_d2f
 1657              	.LVL143:
 1658 0afe 07EE900A 		vmov	s15, r0
 1659              		.loc 1 689 36 view .LVU504
 1660 0b02 94ED1B7A 		vldr.32	s14, [r4, #108]
 1661 0b06 77EE877A 		vadd.f32	s15, s15, s14
 1662 0b0a C4ED1B7A 		vstr.32	s15, [r4, #108]
 690:Follow_Balance.c **** 
 691:Follow_Balance.c ****   /* Saturate: '<S39>/Saturation' */
 692:Follow_Balance.c ****   if (Follow_Balance_DW.Delay_DSTATE_g > 2000.0F) {
 1663              		.loc 1 692 3 is_stmt 1 view .LVU505
 1664              		.loc 1 692 6 is_stmt 0 view .LVU506
 1665 0b0e 9FED7C7A 		vldr.32	s14, .L191+32
 1666 0b12 F4EEC77A 		vcmpe.f32	s15, s14
 1667 0b16 F1EE10FA 		vmrs	APSR_nzcv, FPSCR
 1668 0b1a 40F38B80 		ble	.L154
 693:Follow_Balance.c ****     /* Sum: '<S39>/Add2' */
 694:Follow_Balance.c ****     Follow_Balance_DW.Delay_DSTATE_g = 2000.0F;
 1669              		.loc 1 694 5 is_stmt 1 view .LVU507
 1670              		.loc 1 694 38 is_stmt 0 view .LVU508
 1671 0b1e 84ED1B7A 		vstr.32	s14, [r4, #108]
 1672              	.L69:
 695:Follow_Balance.c ****   } else if (Follow_Balance_DW.Delay_DSTATE_g < -2000.0F) {
 696:Follow_Balance.c ****     /* Sum: '<S39>/Add2' */
 697:Follow_Balance.c ****     Follow_Balance_DW.Delay_DSTATE_g = -2000.0F;
 698:Follow_Balance.c ****   }
 699:Follow_Balance.c **** 
 700:Follow_Balance.c ****   /* End of Saturate: '<S39>/Saturation' */
 701:Follow_Balance.c **** 
 702:Follow_Balance.c ****   /* Sum: '<S33>/Add' incorporates:
 703:Follow_Balance.c ****    *  Constant: '<S38>/Constant2'
 704:Follow_Balance.c ****    *  Constant: '<S40>/Constant'
 705:Follow_Balance.c ****    *  Delay: '<S39>/Delay'
 706:Follow_Balance.c ****    *  Product: '<S38>/Product2'
 707:Follow_Balance.c ****    *  Product: '<S40>/Product'
 708:Follow_Balance.c ****    *  Sum: '<S41>/Diff'
 709:Follow_Balance.c ****    *  UnitDelay: '<S41>/UD'
 710:Follow_Balance.c ****    *
 711:Follow_Balance.c ****    * Block description for '<S41>/Diff':
 712:Follow_Balance.c ****    *
ARM GAS  C:\Users\ysl\AppData\Local\Temp\ccJ1ill4.s 			page 47


 713:Follow_Balance.c ****    *  Add in CPU
 714:Follow_Balance.c ****    *
 715:Follow_Balance.c ****    * Block description for '<S41>/UD':
 716:Follow_Balance.c ****    *
 717:Follow_Balance.c ****    *  Store in Global RAM
 718:Follow_Balance.c ****    */
 719:Follow_Balance.c ****   rtb_Add1 = (7.0 * rtb_Add1_e + Follow_Balance_DW.Delay_DSTATE_g) + (rtb_Add1_e
 1673              		.loc 1 719 3 is_stmt 1 view .LVU509
 1674              		.loc 1 719 19 is_stmt 0 view .LVU510
 1675 0b22 0022     		movs	r2, #0
 1676 0b24 774B     		ldr	r3, .L191+36
 1677 0b26 4046     		mov	r0, r8
 1678 0b28 4946     		mov	r1, r9
 1679 0b2a FFF7FEFF 		bl	__aeabi_dmul
 1680              	.LVL144:
 1681 0b2e 0446     		mov	r4, r0
 1682 0b30 0D46     		mov	r5, r1
 1683              		.loc 1 719 51 view .LVU511
 1684 0b32 DFF8C881 		ldr	r8, .L191+28
 1685 0b36 D8F86C00 		ldr	r0, [r8, #108]	@ float
 1686 0b3a FFF7FEFF 		bl	__aeabi_f2d
 1687              	.LVL145:
 1688 0b3e 0246     		mov	r2, r0
 1689 0b40 0B46     		mov	r3, r1
 1690              		.loc 1 719 32 view .LVU512
 1691 0b42 2046     		mov	r0, r4
 1692 0b44 2946     		mov	r1, r5
 1693 0b46 FFF7FEFF 		bl	__aeabi_dadd
 1694              	.LVL146:
 1695 0b4a 0446     		mov	r4, r0
 1696 0b4c 0D46     		mov	r5, r1
 720:Follow_Balance.c ****     - Follow_Balance_DW.UD_DSTATE_k) * 4.0;
 1697              		.loc 1 720 24 view .LVU513
 1698 0b4e D8ED1C7A 		vldr.32	s15, [r8, #112]
 1699              		.loc 1 720 5 view .LVU514
 1700 0b52 78EEE77A 		vsub.f32	s15, s17, s15
 1701 0b56 17EE900A 		vmov	r0, s15
 1702 0b5a FFF7FEFF 		bl	__aeabi_f2d
 1703              	.LVL147:
 1704              		.loc 1 720 38 view .LVU515
 1705 0b5e 0022     		movs	r2, #0
 1706 0b60 694B     		ldr	r3, .L191+40
 1707 0b62 FFF7FEFF 		bl	__aeabi_dmul
 1708              	.LVL148:
 1709 0b66 0246     		mov	r2, r0
 1710 0b68 0B46     		mov	r3, r1
 719:Follow_Balance.c ****     - Follow_Balance_DW.UD_DSTATE_k) * 4.0;
 1711              		.loc 1 719 12 view .LVU516
 1712 0b6a 2046     		mov	r0, r4
 1713 0b6c 2946     		mov	r1, r5
 1714 0b6e FFF7FEFF 		bl	__aeabi_dadd
 1715              	.LVL149:
 1716 0b72 0446     		mov	r4, r0
 1717 0b74 0D46     		mov	r5, r1
 1718              	.LVL150:
 721:Follow_Balance.c **** 
 722:Follow_Balance.c ****   /* Switch: '<S21>/Switch1' incorporates:
ARM GAS  C:\Users\ysl\AppData\Local\Temp\ccJ1ill4.s 			page 48


 723:Follow_Balance.c ****    *  DataStoreWrite: '<Root>/Data Store Write7'
 724:Follow_Balance.c ****    *  Delay: '<S13>/Delay One Step'
 725:Follow_Balance.c ****    *  Switch: '<S21>/Switch3'
 726:Follow_Balance.c ****    */
 727:Follow_Balance.c ****   if (Follow_Balance_DW.DelayOneStep_DSTATE_d > -30.0F) {
 1719              		.loc 1 727 3 is_stmt 1 view .LVU517
 1720              		.loc 1 727 6 is_stmt 0 view .LVU518
 1721 0b76 FBEE0E7A 		vmov.f32	s15, #-3.0e+1
 1722 0b7a B4EEE78A 		vcmpe.f32	s16, s15
 1723 0b7e F1EE10FA 		vmrs	APSR_nzcv, FPSCR
 1724 0b82 40F3DB80 		ble	.L155
 728:Follow_Balance.c ****     /* Switch: '<S21>/Switch' */
 729:Follow_Balance.c ****     if (Follow_Balance_DW.DelayOneStep_DSTATE_d > 30.0F) {
 1725              		.loc 1 729 5 is_stmt 1 view .LVU519
 1726              		.loc 1 729 8 is_stmt 0 view .LVU520
 1727 0b86 F3EE0E7A 		vmov.f32	s15, #3.0e+1
 1728 0b8a B4EEE78A 		vcmpe.f32	s16, s15
 1729 0b8e F1EE10FA 		vmrs	APSR_nzcv, FPSCR
 1730 0b92 7BDD     		ble	.L156
 730:Follow_Balance.c ****       /* Switch: '<S21>/Switch2' */
 731:Follow_Balance.c ****       if (rtb_Add1 > 0.0) {
 1731              		.loc 1 731 7 is_stmt 1 view .LVU521
 1732              		.loc 1 731 10 is_stmt 0 view .LVU522
 1733 0b94 0022     		movs	r2, #0
 1734 0b96 0023     		movs	r3, #0
 1735 0b98 FFF7FEFF 		bl	__aeabi_dcmpgt
 1736              	.LVL151:
 1737 0b9c 0028     		cmp	r0, #0
 1738 0b9e 55D1     		bne	.L175
 732:Follow_Balance.c ****         tmp = floor(rtb_Add1);
 733:Follow_Balance.c ****         if (rtIsInf(tmp)) {
 734:Follow_Balance.c ****           /* Switch: '<S21>/Switch1' */
 735:Follow_Balance.c ****           Follow_Balance_B.Saturation1 = 0;
 736:Follow_Balance.c ****         } else {
 737:Follow_Balance.c ****           /* Switch: '<S21>/Switch1' */
 738:Follow_Balance.c ****           Follow_Balance_B.Saturation1 = (int16_T)(int32_T)fmod(tmp, 65536.0);
 739:Follow_Balance.c ****         }
 740:Follow_Balance.c ****       } else {
 741:Follow_Balance.c ****         /* Switch: '<S21>/Switch1' incorporates:
 742:Follow_Balance.c ****          *  Constant: '<S21>/Constant'
 743:Follow_Balance.c ****          */
 744:Follow_Balance.c ****         Follow_Balance_B.Saturation1 = 10;
 1739              		.loc 1 744 9 is_stmt 1 view .LVU523
 1740              		.loc 1 744 38 is_stmt 0 view .LVU524
 1741 0ba0 554B     		ldr	r3, .L191+24
 1742 0ba2 0A22     		movs	r2, #10
 1743 0ba4 A3F8A220 		strh	r2, [r3, #162]	@ movhi
 1744 0ba8 D4E0     		b	.L78
 1745              	.LVL152:
 1746              	.L152:
 645:Follow_Balance.c ****     if (rtIsNaN(tmp) || rtIsInf(tmp)) {
 1747              		.loc 1 645 5 is_stmt 1 view .LVU525
 645:Follow_Balance.c ****     if (rtIsNaN(tmp) || rtIsInf(tmp)) {
 1748              		.loc 1 645 11 is_stmt 0 view .LVU526
 1749 0baa 45EC104B 		vmov	d0, r4, r5
 1750 0bae FFF7FEFF 		bl	floor
 1751              	.LVL153:
ARM GAS  C:\Users\ysl\AppData\Local\Temp\ccJ1ill4.s 			page 49


 1752 0bb2 B0EE408A 		vmov.f32	s16, s0
 1753 0bb6 F0EE608A 		vmov.f32	s17, s1
 1754              	.LVL154:
 646:Follow_Balance.c ****       tmp = 0.0;
 1755              		.loc 1 646 5 is_stmt 1 view .LVU527
 646:Follow_Balance.c ****       tmp = 0.0;
 1756              		.loc 1 646 9 is_stmt 0 view .LVU528
 1757 0bba FFF7FEFF 		bl	rtIsNaN
 1758              	.LVL155:
 646:Follow_Balance.c ****       tmp = 0.0;
 1759              		.loc 1 646 8 view .LVU529
 1760 0bbe 88B1     		cbz	r0, .L176
 647:Follow_Balance.c ****     } else {
 1761              		.loc 1 647 11 view .LVU530
 1762 0bc0 0024     		movs	r4, #0
 1763              	.LVL156:
 647:Follow_Balance.c ****     } else {
 1764              		.loc 1 647 11 view .LVU531
 1765 0bc2 0025     		movs	r5, #0
 1766              	.LVL157:
 1767              	.L61:
 655:Follow_Balance.c ****       -(int16_T)(uint16_T)-tmp : (int32_T)(int16_T)(uint16_T)tmp);
 1768              		.loc 1 655 5 is_stmt 1 view .LVU532
 655:Follow_Balance.c ****       -(int16_T)(uint16_T)-tmp : (int32_T)(int16_T)(uint16_T)tmp);
 1769              		.loc 1 655 37 is_stmt 0 view .LVU533
 1770 0bc4 0022     		movs	r2, #0
 1771 0bc6 0023     		movs	r3, #0
 1772 0bc8 2046     		mov	r0, r4
 1773 0bca 2946     		mov	r1, r5
 1774 0bcc FFF7FEFF 		bl	__aeabi_dcmplt
 1775              	.LVL158:
 1776 0bd0 E8B9     		cbnz	r0, .L177
 656:Follow_Balance.c ****   }
 1777              		.loc 1 656 52 discriminator 2 view .LVU534
 1778 0bd2 2046     		mov	r0, r4
 1779 0bd4 2946     		mov	r1, r5
 1780 0bd6 FFF7FEFF 		bl	__aeabi_d2uiz
 1781              	.LVL159:
 655:Follow_Balance.c ****       -(int16_T)(uint16_T)-tmp : (int32_T)(int16_T)(uint16_T)tmp);
 1782              		.loc 1 655 37 discriminator 2 view .LVU535
 1783 0bda 03B2     		sxth	r3, r0
 1784              	.L64:
 655:Follow_Balance.c ****       -(int16_T)(uint16_T)-tmp : (int32_T)(int16_T)(uint16_T)tmp);
 1785              		.loc 1 655 35 discriminator 4 view .LVU536
 1786 0bdc 464A     		ldr	r2, .L191+24
 1787 0bde A2F8A030 		strh	r3, [r2, #160]	@ movhi
 1788 0be2 68E7     		b	.L54
 1789              	.LVL160:
 1790              	.L176:
 646:Follow_Balance.c ****       tmp = 0.0;
 1791              		.loc 1 646 25 discriminator 1 view .LVU537
 1792 0be4 B0EE480A 		vmov.f32	s0, s16
 1793 0be8 F0EE680A 		vmov.f32	s1, s17
 1794 0bec FFF7FEFF 		bl	rtIsInf
 1795              	.LVL161:
 646:Follow_Balance.c ****       tmp = 0.0;
 1796              		.loc 1 646 22 discriminator 1 view .LVU538
ARM GAS  C:\Users\ysl\AppData\Local\Temp\ccJ1ill4.s 			page 50


 1797 0bf0 10B1     		cbz	r0, .L178
 647:Follow_Balance.c ****     } else {
 1798              		.loc 1 647 11 view .LVU539
 1799 0bf2 0024     		movs	r4, #0
 1800              	.LVL162:
 647:Follow_Balance.c ****     } else {
 1801              		.loc 1 647 11 view .LVU540
 1802 0bf4 0025     		movs	r5, #0
 1803 0bf6 E5E7     		b	.L61
 1804              	.LVL163:
 1805              	.L178:
 649:Follow_Balance.c ****     }
 1806              		.loc 1 649 7 is_stmt 1 view .LVU541
 649:Follow_Balance.c ****     }
 1807              		.loc 1 649 13 is_stmt 0 view .LVU542
 1808 0bf8 9FED3B1B 		vldr.64	d1, .L191+8
 1809 0bfc B0EE480A 		vmov.f32	s0, s16
 1810 0c00 F0EE680A 		vmov.f32	s1, s17
 1811 0c04 FFF7FEFF 		bl	fmod
 1812              	.LVL164:
 1813 0c08 55EC104B 		vmov	r4, r5, d0
 1814              	.LVL165:
 649:Follow_Balance.c ****     }
 1815              		.loc 1 649 13 view .LVU543
 1816 0c0c DAE7     		b	.L61
 1817              	.L177:
 656:Follow_Balance.c ****   }
 1818              		.loc 1 656 27 discriminator 1 view .LVU544
 1819 0c0e 2046     		mov	r0, r4
 1820 0c10 05F10041 		add	r1, r5, #-2147483648
 656:Follow_Balance.c ****   }
 1821              		.loc 1 656 17 discriminator 1 view .LVU545
 1822 0c14 FFF7FEFF 		bl	__aeabi_d2uiz
 1823              	.LVL166:
 1824 0c18 83B2     		uxth	r3, r0
 655:Follow_Balance.c ****       -(int16_T)(uint16_T)-tmp : (int32_T)(int16_T)(uint16_T)tmp);
 1825              		.loc 1 655 68 discriminator 1 view .LVU546
 1826 0c1a 5B42     		rsbs	r3, r3, #0
 655:Follow_Balance.c ****       -(int16_T)(uint16_T)-tmp : (int32_T)(int16_T)(uint16_T)tmp);
 1827              		.loc 1 655 37 discriminator 1 view .LVU547
 1828 0c1c 1BB2     		sxth	r3, r3
 1829 0c1e DDE7     		b	.L64
 1830              	.LVL167:
 1831              	.L65:
 667:Follow_Balance.c ****     /* Switch: '<S20>/Switch1' incorporates:
 1832              		.loc 1 667 10 is_stmt 1 view .LVU548
 667:Follow_Balance.c ****     /* Switch: '<S20>/Switch1' incorporates:
 1833              		.loc 1 667 13 is_stmt 0 view .LVU549
 1834 0c20 3A4A     		ldr	r2, .L191+44
 1835 0c22 9342     		cmp	r3, r2
 1836 0c24 BFF652AF 		bge	.L66
 671:Follow_Balance.c ****   }
 1837              		.loc 1 671 5 is_stmt 1 view .LVU550
 671:Follow_Balance.c ****   }
 1838              		.loc 1 671 35 is_stmt 0 view .LVU551
 1839 0c28 334B     		ldr	r3, .L191+24
 1840 0c2a 4EF69872 		movw	r2, #61336
ARM GAS  C:\Users\ysl\AppData\Local\Temp\ccJ1ill4.s 			page 51


 1841 0c2e A3F8A020 		strh	r2, [r3, #160]	@ movhi
 1842 0c32 4BE7     		b	.L66
 1843              	.LVL168:
 1844              	.L154:
 695:Follow_Balance.c ****     /* Sum: '<S39>/Add2' */
 1845              		.loc 1 695 10 is_stmt 1 view .LVU552
 695:Follow_Balance.c ****     /* Sum: '<S39>/Add2' */
 1846              		.loc 1 695 13 is_stmt 0 view .LVU553
 1847 0c34 9FED367A 		vldr.32	s14, .L191+48
 1848 0c38 F4EEC77A 		vcmpe.f32	s15, s14
 1849 0c3c F1EE10FA 		vmrs	APSR_nzcv, FPSCR
 1850 0c40 7FF56FAF 		bpl	.L69
 697:Follow_Balance.c ****   }
 1851              		.loc 1 697 5 is_stmt 1 view .LVU554
 697:Follow_Balance.c ****   }
 1852              		.loc 1 697 38 is_stmt 0 view .LVU555
 1853 0c44 2D4B     		ldr	r3, .L191+28
 1854 0c46 83ED1B7A 		vstr.32	s14, [r3, #108]
 1855 0c4a 6AE7     		b	.L69
 1856              	.LVL169:
 1857              	.L175:
 732:Follow_Balance.c ****         if (rtIsInf(tmp)) {
 1858              		.loc 1 732 9 is_stmt 1 view .LVU556
 732:Follow_Balance.c ****         if (rtIsInf(tmp)) {
 1859              		.loc 1 732 15 is_stmt 0 view .LVU557
 1860 0c4c 45EC104B 		vmov	d0, r4, r5
 1861 0c50 FFF7FEFF 		bl	floor
 1862              	.LVL170:
 1863 0c54 B0EE40AA 		vmov.f32	s20, s0
 1864 0c58 F0EE60AA 		vmov.f32	s21, s1
 1865              	.LVL171:
 733:Follow_Balance.c ****           /* Switch: '<S21>/Switch1' */
 1866              		.loc 1 733 9 is_stmt 1 view .LVU558
 733:Follow_Balance.c ****           /* Switch: '<S21>/Switch1' */
 1867              		.loc 1 733 13 is_stmt 0 view .LVU559
 1868 0c5c FFF7FEFF 		bl	rtIsInf
 1869              	.LVL172:
 733:Follow_Balance.c ****           /* Switch: '<S21>/Switch1' */
 1870              		.loc 1 733 12 view .LVU560
 1871 0c60 20B1     		cbz	r0, .L77
 735:Follow_Balance.c ****         } else {
 1872              		.loc 1 735 11 is_stmt 1 view .LVU561
 735:Follow_Balance.c ****         } else {
 1873              		.loc 1 735 40 is_stmt 0 view .LVU562
 1874 0c62 254B     		ldr	r3, .L191+24
 1875 0c64 0022     		movs	r2, #0
 1876 0c66 A3F8A220 		strh	r2, [r3, #162]	@ movhi
 1877 0c6a 73E0     		b	.L78
 1878              	.L77:
 738:Follow_Balance.c ****         }
 1879              		.loc 1 738 11 is_stmt 1 view .LVU563
 738:Follow_Balance.c ****         }
 1880              		.loc 1 738 60 is_stmt 0 view .LVU564
 1881 0c6c 9FED1E1B 		vldr.64	d1, .L191+8
 1882 0c70 B0EE4A0A 		vmov.f32	s0, s20
 1883 0c74 F0EE6A0A 		vmov.f32	s1, s21
 1884 0c78 FFF7FEFF 		bl	fmod
ARM GAS  C:\Users\ysl\AppData\Local\Temp\ccJ1ill4.s 			page 52


 1885              	.LVL173:
 1886 0c7c 51EC100B 		vmov	r0, r1, d0
 738:Follow_Balance.c ****         }
 1887              		.loc 1 738 51 view .LVU565
 1888 0c80 FFF7FEFF 		bl	__aeabi_d2iz
 1889              	.LVL174:
 738:Follow_Balance.c ****         }
 1890              		.loc 1 738 40 view .LVU566
 1891 0c84 1C4B     		ldr	r3, .L191+24
 1892 0c86 A3F8A200 		strh	r0, [r3, #162]	@ movhi
 1893 0c8a 63E0     		b	.L78
 1894              	.LVL175:
 1895              	.L156:
 745:Follow_Balance.c ****       }
 746:Follow_Balance.c **** 
 747:Follow_Balance.c ****       /* End of Switch: '<S21>/Switch2' */
 748:Follow_Balance.c ****     } else {
 749:Follow_Balance.c ****       tmp = floor(rtb_Add1);
 1896              		.loc 1 749 7 is_stmt 1 view .LVU567
 1897              		.loc 1 749 13 is_stmt 0 view .LVU568
 1898 0c8c 45EC104B 		vmov	d0, r4, r5
 1899 0c90 FFF7FEFF 		bl	floor
 1900              	.LVL176:
 1901 0c94 B0EE40AA 		vmov.f32	s20, s0
 1902 0c98 F0EE60AA 		vmov.f32	s21, s1
 1903              	.LVL177:
 750:Follow_Balance.c ****       if (rtIsNaN(tmp) || rtIsInf(tmp)) {
 1904              		.loc 1 750 7 is_stmt 1 view .LVU569
 1905              		.loc 1 750 11 is_stmt 0 view .LVU570
 1906 0c9c FFF7FEFF 		bl	rtIsNaN
 1907              	.LVL178:
 1908              		.loc 1 750 10 view .LVU571
 1909 0ca0 88B1     		cbz	r0, .L179
 751:Follow_Balance.c ****         tmp = 0.0;
 1910              		.loc 1 751 13 view .LVU572
 1911 0ca2 0024     		movs	r4, #0
 1912              	.LVL179:
 1913              		.loc 1 751 13 view .LVU573
 1914 0ca4 0025     		movs	r5, #0
 1915              	.LVL180:
 1916              	.L79:
 752:Follow_Balance.c ****       } else {
 753:Follow_Balance.c ****         tmp = fmod(tmp, 65536.0);
 754:Follow_Balance.c ****       }
 755:Follow_Balance.c **** 
 756:Follow_Balance.c ****       /* Switch: '<S21>/Switch1' */
 757:Follow_Balance.c ****       Follow_Balance_B.Saturation1 = (int16_T)(tmp < 0.0 ? (int32_T)(int16_T)
 1917              		.loc 1 757 7 is_stmt 1 view .LVU574
 1918              		.loc 1 757 38 is_stmt 0 view .LVU575
 1919 0ca6 0022     		movs	r2, #0
 1920 0ca8 0023     		movs	r3, #0
 1921 0caa 2046     		mov	r0, r4
 1922 0cac 2946     		mov	r1, r5
 1923 0cae FFF7FEFF 		bl	__aeabi_dcmplt
 1924              	.LVL181:
 1925 0cb2 D0BB     		cbnz	r0, .L180
 758:Follow_Balance.c ****         -(int16_T)(uint16_T)-tmp : (int32_T)(int16_T)(uint16_T)tmp);
ARM GAS  C:\Users\ysl\AppData\Local\Temp\ccJ1ill4.s 			page 53


 1926              		.loc 1 758 54 discriminator 2 view .LVU576
 1927 0cb4 2046     		mov	r0, r4
 1928 0cb6 2946     		mov	r1, r5
 1929 0cb8 FFF7FEFF 		bl	__aeabi_d2uiz
 1930              	.LVL182:
 757:Follow_Balance.c ****         -(int16_T)(uint16_T)-tmp : (int32_T)(int16_T)(uint16_T)tmp);
 1931              		.loc 1 757 38 discriminator 2 view .LVU577
 1932 0cbc 03B2     		sxth	r3, r0
 1933              	.L82:
 757:Follow_Balance.c ****         -(int16_T)(uint16_T)-tmp : (int32_T)(int16_T)(uint16_T)tmp);
 1934              		.loc 1 757 36 discriminator 4 view .LVU578
 1935 0cbe 0E4A     		ldr	r2, .L191+24
 1936 0cc0 A2F8A230 		strh	r3, [r2, #162]	@ movhi
 1937 0cc4 46E0     		b	.L78
 1938              	.LVL183:
 1939              	.L179:
 750:Follow_Balance.c ****         tmp = 0.0;
 1940              		.loc 1 750 27 discriminator 1 view .LVU579
 1941 0cc6 B0EE4A0A 		vmov.f32	s0, s20
 1942 0cca F0EE6A0A 		vmov.f32	s1, s21
 1943 0cce FFF7FEFF 		bl	rtIsInf
 1944              	.LVL184:
 750:Follow_Balance.c ****         tmp = 0.0;
 1945              		.loc 1 750 24 discriminator 1 view .LVU580
 1946 0cd2 F8B1     		cbz	r0, .L181
 751:Follow_Balance.c ****       } else {
 1947              		.loc 1 751 13 view .LVU581
 1948 0cd4 0024     		movs	r4, #0
 1949              	.LVL185:
 751:Follow_Balance.c ****       } else {
 1950              		.loc 1 751 13 view .LVU582
 1951 0cd6 0025     		movs	r5, #0
 1952 0cd8 E5E7     		b	.L79
 1953              	.L192:
 1954 0cda 00BFAFF3 		.align	3
 1954      0080
 1955              	.L191:
 1956 0ce0 00000000 		.word	0
 1957 0ce4 00409FC0 		.word	-1063305216
 1958 0ce8 00000000 		.word	0
 1959 0cec 0000F040 		.word	1089470464
 1960 0cf0 B81E85EB 		.word	-343597384
 1961 0cf4 51B89E3F 		.word	1067366481
 1962 0cf8 00000000 		.word	.LANCHOR0
 1963 0cfc 00000000 		.word	.LANCHOR1
 1964 0d00 0000FA44 		.word	1157234688
 1965 0d04 00001C40 		.word	1075576832
 1966 0d08 00001040 		.word	1074790400
 1967 0d0c 98EFFFFF 		.word	-4200
 1968 0d10 0000FAC4 		.word	-990248960
 1969              	.LVL186:
 1970              	.L181:
 753:Follow_Balance.c ****       }
 1971              		.loc 1 753 9 is_stmt 1 view .LVU583
 753:Follow_Balance.c ****       }
 1972              		.loc 1 753 15 is_stmt 0 view .LVU584
 1973 0d14 9FEDAC1B 		vldr.64	d1, .L193
ARM GAS  C:\Users\ysl\AppData\Local\Temp\ccJ1ill4.s 			page 54


 1974 0d18 B0EE4A0A 		vmov.f32	s0, s20
 1975 0d1c F0EE6A0A 		vmov.f32	s1, s21
 1976 0d20 FFF7FEFF 		bl	fmod
 1977              	.LVL187:
 1978 0d24 55EC104B 		vmov	r4, r5, d0
 1979              	.LVL188:
 753:Follow_Balance.c ****       }
 1980              		.loc 1 753 15 view .LVU585
 1981 0d28 BDE7     		b	.L79
 1982              	.L180:
 1983              		.loc 1 758 29 discriminator 1 view .LVU586
 1984 0d2a 2046     		mov	r0, r4
 1985 0d2c 05F10041 		add	r1, r5, #-2147483648
 1986              		.loc 1 758 19 discriminator 1 view .LVU587
 1987 0d30 FFF7FEFF 		bl	__aeabi_d2uiz
 1988              	.LVL189:
 1989 0d34 83B2     		uxth	r3, r0
 757:Follow_Balance.c ****         -(int16_T)(uint16_T)-tmp : (int32_T)(int16_T)(uint16_T)tmp);
 1990              		.loc 1 757 69 discriminator 1 view .LVU588
 1991 0d36 5B42     		rsbs	r3, r3, #0
 757:Follow_Balance.c ****         -(int16_T)(uint16_T)-tmp : (int32_T)(int16_T)(uint16_T)tmp);
 1992              		.loc 1 757 38 discriminator 1 view .LVU589
 1993 0d38 1BB2     		sxth	r3, r3
 1994 0d3a C0E7     		b	.L82
 1995              	.LVL190:
 1996              	.L155:
 759:Follow_Balance.c ****     }
 760:Follow_Balance.c **** 
 761:Follow_Balance.c ****     /* End of Switch: '<S21>/Switch' */
 762:Follow_Balance.c ****   } else if (rtb_Add1 > 0.0) {
 1997              		.loc 1 762 10 is_stmt 1 view .LVU590
 1998              		.loc 1 762 13 is_stmt 0 view .LVU591
 1999 0d3c 0022     		movs	r2, #0
 2000 0d3e 0023     		movs	r3, #0
 2001 0d40 FFF7FEFF 		bl	__aeabi_dcmpgt
 2002              	.LVL191:
 2003 0d44 0028     		cmp	r0, #0
 2004 0d46 00F0B080 		beq	.L159
 763:Follow_Balance.c ****     /* Switch: '<S21>/Switch1' incorporates:
 764:Follow_Balance.c ****      *  Constant: '<S21>/Constant1'
 765:Follow_Balance.c ****      *  Switch: '<S21>/Switch3'
 766:Follow_Balance.c ****      */
 767:Follow_Balance.c ****     Follow_Balance_B.Saturation1 = -10;
 2005              		.loc 1 767 5 is_stmt 1 view .LVU592
 2006              		.loc 1 767 34 is_stmt 0 view .LVU593
 2007 0d4a A54B     		ldr	r3, .L193+24
 2008 0d4c 4FF6F672 		movw	r2, #65526
 2009 0d50 A3F8A220 		strh	r2, [r3, #162]	@ movhi
 2010              	.LVL192:
 2011              	.L78:
 768:Follow_Balance.c ****   } else {
 769:Follow_Balance.c ****     /* Switch: '<S21>/Switch3' */
 770:Follow_Balance.c ****     tmp = floor(rtb_Add1);
 771:Follow_Balance.c ****     if (rtIsNaN(tmp) || rtIsInf(tmp)) {
 772:Follow_Balance.c ****       tmp = 0.0;
 773:Follow_Balance.c ****     } else {
 774:Follow_Balance.c ****       tmp = fmod(tmp, 65536.0);
ARM GAS  C:\Users\ysl\AppData\Local\Temp\ccJ1ill4.s 			page 55


 775:Follow_Balance.c ****     }
 776:Follow_Balance.c **** 
 777:Follow_Balance.c ****     /* Switch: '<S21>/Switch1' incorporates:
 778:Follow_Balance.c ****      *  Switch: '<S21>/Switch3'
 779:Follow_Balance.c ****      */
 780:Follow_Balance.c ****     Follow_Balance_B.Saturation1 = (int16_T)(tmp < 0.0 ? (int32_T)(int16_T)
 781:Follow_Balance.c ****       -(int16_T)(uint16_T)-tmp : (int32_T)(int16_T)(uint16_T)tmp);
 782:Follow_Balance.c ****   }
 783:Follow_Balance.c **** 
 784:Follow_Balance.c ****   /* End of Switch: '<S21>/Switch1' */
 785:Follow_Balance.c **** 
 786:Follow_Balance.c ****   /* Saturate: '<Root>/Saturation1' */
 787:Follow_Balance.c ****   if (Follow_Balance_B.Saturation1 > 4200) {
 2012              		.loc 1 787 3 is_stmt 1 view .LVU594
 2013              		.loc 1 787 23 is_stmt 0 view .LVU595
 2014 0d54 A24B     		ldr	r3, .L193+24
 2015 0d56 B3F9A230 		ldrsh	r3, [r3, #162]
 2016              		.loc 1 787 6 view .LVU596
 2017 0d5a 41F26802 		movw	r2, #4200
 2018 0d5e 9342     		cmp	r3, r2
 2019 0d60 40F3DE80 		ble	.L89
 788:Follow_Balance.c ****     /* Switch: '<S21>/Switch1' incorporates:
 789:Follow_Balance.c ****      *  Saturate: '<Root>/Saturation1'
 790:Follow_Balance.c ****      */
 791:Follow_Balance.c ****     Follow_Balance_B.Saturation1 = 4200;
 2020              		.loc 1 791 5 is_stmt 1 view .LVU597
 2021              		.loc 1 791 34 is_stmt 0 view .LVU598
 2022 0d64 9E4B     		ldr	r3, .L193+24
 2023 0d66 A3F8A220 		strh	r2, [r3, #162]	@ movhi
 2024              	.L90:
 792:Follow_Balance.c ****   } else if (Follow_Balance_B.Saturation1 < -4200) {
 793:Follow_Balance.c ****     /* Switch: '<S21>/Switch1' incorporates:
 794:Follow_Balance.c ****      *  Saturate: '<Root>/Saturation1'
 795:Follow_Balance.c ****      */
 796:Follow_Balance.c ****     Follow_Balance_B.Saturation1 = -4200;
 797:Follow_Balance.c ****   }
 798:Follow_Balance.c **** 
 799:Follow_Balance.c ****   /* End of Saturate: '<Root>/Saturation1' */
 800:Follow_Balance.c **** 
 801:Follow_Balance.c ****   /* DataStoreWrite: '<Root>/Data Store Write15' incorporates:
 802:Follow_Balance.c ****    *  Constant: '<Root>/Constant'
 803:Follow_Balance.c ****    */
 804:Follow_Balance.c ****   Follow_Balance_DW.machine_mid = 2.0;
 2025              		.loc 1 804 3 is_stmt 1 view .LVU599
 2026              		.loc 1 804 33 is_stmt 0 view .LVU600
 2027 0d6a 9E4C     		ldr	r4, .L193+28
 2028 0d6c 0022     		movs	r2, #0
 2029 0d6e 4FF08043 		mov	r3, #1073741824
 2030 0d72 C4E91623 		strd	r2, [r4, #88]
 805:Follow_Balance.c **** 
 806:Follow_Balance.c ****   /* S-Function (StackLiteDualDrive_DataLinkInput): '<Root>/DataLinkInput' */
 807:Follow_Balance.c **** 
 808:Follow_Balance.c ****   /*Input Data*/
 809:Follow_Balance.c ****   Follow_Balance_B.DataLinkInput_o1= DataLink_RevData[0].point;
 2031              		.loc 1 809 3 is_stmt 1 view .LVU601
 2032              		.loc 1 809 57 is_stmt 0 view .LVU602
 2033 0d76 9C4A     		ldr	r2, .L193+32
ARM GAS  C:\Users\ysl\AppData\Local\Temp\ccJ1ill4.s 			page 56


 2034 0d78 1168     		ldr	r1, [r2]	@ unaligned
 2035              		.loc 1 809 36 view .LVU603
 2036 0d7a 994B     		ldr	r3, .L193+24
 2037 0d7c 5963     		str	r1, [r3, #52]	@ float
 810:Follow_Balance.c ****   Follow_Balance_B.DataLinkInput_o2= DataLink_RevData[1].point;
 2038              		.loc 1 810 3 is_stmt 1 view .LVU604
 2039              		.loc 1 810 57 is_stmt 0 view .LVU605
 2040 0d7e 5168     		ldr	r1, [r2, #4]	@ unaligned
 2041              		.loc 1 810 36 view .LVU606
 2042 0d80 9963     		str	r1, [r3, #56]	@ float
 811:Follow_Balance.c ****   Follow_Balance_B.DataLinkInput_o3= DataLink_RevData[2].point;
 2043              		.loc 1 811 3 is_stmt 1 view .LVU607
 2044              		.loc 1 811 57 is_stmt 0 view .LVU608
 2045 0d82 9168     		ldr	r1, [r2, #8]	@ unaligned
 2046              		.loc 1 811 36 view .LVU609
 2047 0d84 D963     		str	r1, [r3, #60]	@ float
 812:Follow_Balance.c ****   Follow_Balance_B.DataLinkInput_o4= DataLink_RevData[3].point;
 2048              		.loc 1 812 3 is_stmt 1 view .LVU610
 2049              		.loc 1 812 57 is_stmt 0 view .LVU611
 2050 0d86 D168     		ldr	r1, [r2, #12]	@ unaligned
 2051              		.loc 1 812 36 view .LVU612
 2052 0d88 1964     		str	r1, [r3, #64]	@ float
 813:Follow_Balance.c ****   Follow_Balance_B.DataLinkInput_o5= DataLink_RevData[4].point;
 2053              		.loc 1 813 3 is_stmt 1 view .LVU613
 2054              		.loc 1 813 57 is_stmt 0 view .LVU614
 2055 0d8a 1169     		ldr	r1, [r2, #16]	@ unaligned
 2056              		.loc 1 813 36 view .LVU615
 2057 0d8c 5964     		str	r1, [r3, #68]	@ float
 814:Follow_Balance.c ****   Follow_Balance_B.DataLinkInput_o6= DataLink_RevData[5].point;
 2058              		.loc 1 814 3 is_stmt 1 view .LVU616
 2059              		.loc 1 814 57 is_stmt 0 view .LVU617
 2060 0d8e 5169     		ldr	r1, [r2, #20]	@ unaligned
 2061              		.loc 1 814 36 view .LVU618
 2062 0d90 9964     		str	r1, [r3, #72]	@ float
 815:Follow_Balance.c ****   Follow_Balance_B.DataLinkInput_o7= DataLink_RevData[6].point;
 2063              		.loc 1 815 3 is_stmt 1 view .LVU619
 2064              		.loc 1 815 57 is_stmt 0 view .LVU620
 2065 0d92 9169     		ldr	r1, [r2, #24]	@ unaligned
 2066              		.loc 1 815 36 view .LVU621
 2067 0d94 D964     		str	r1, [r3, #76]	@ float
 816:Follow_Balance.c ****   Follow_Balance_B.DataLinkInput_o8= DataLink_RevData[7].point;
 2068              		.loc 1 816 3 is_stmt 1 view .LVU622
 2069              		.loc 1 816 57 is_stmt 0 view .LVU623
 2070 0d96 D169     		ldr	r1, [r2, #28]	@ unaligned
 2071              		.loc 1 816 36 view .LVU624
 2072 0d98 1965     		str	r1, [r3, #80]	@ float
 817:Follow_Balance.c ****   Follow_Balance_B.DataLinkInput_o9= DataLink_RevData[8].point;
 2073              		.loc 1 817 3 is_stmt 1 view .LVU625
 2074              		.loc 1 817 57 is_stmt 0 view .LVU626
 2075 0d9a 116A     		ldr	r1, [r2, #32]	@ unaligned
 2076              		.loc 1 817 36 view .LVU627
 2077 0d9c 5965     		str	r1, [r3, #84]	@ float
 818:Follow_Balance.c ****   Follow_Balance_B.DataLinkInput_o10= DataLink_RevData[9].point;
 2078              		.loc 1 818 3 is_stmt 1 view .LVU628
 2079              		.loc 1 818 58 is_stmt 0 view .LVU629
 2080 0d9e 526A     		ldr	r2, [r2, #36]	@ unaligned
 2081              		.loc 1 818 37 view .LVU630
ARM GAS  C:\Users\ysl\AppData\Local\Temp\ccJ1ill4.s 			page 57


 2082 0da0 9A65     		str	r2, [r3, #88]	@ float
 819:Follow_Balance.c **** 
 820:Follow_Balance.c ****   /* S-Function (StackLiteDualDrive_RPiDataInput): '<Root>/RPiDataInput' */
 821:Follow_Balance.c **** 
 822:Follow_Balance.c ****   /*RPi Input Data*/
 823:Follow_Balance.c ****   Follow_Balance_B.RPiDataInput_o1= RPi_Revdata[0];
 2083              		.loc 1 823 3 is_stmt 1 view .LVU631
 2084              		.loc 1 823 48 is_stmt 0 view .LVU632
 2085 0da2 924A     		ldr	r2, .L193+36
 2086 0da4 1168     		ldr	r1, [r2]
 2087              		.loc 1 823 35 view .LVU633
 2088 0da6 1967     		str	r1, [r3, #112]
 824:Follow_Balance.c ****   Follow_Balance_B.RPiDataInput_o2= RPi_Revdata[1];
 2089              		.loc 1 824 3 is_stmt 1 view .LVU634
 2090              		.loc 1 824 48 is_stmt 0 view .LVU635
 2091 0da8 5168     		ldr	r1, [r2, #4]
 2092              		.loc 1 824 35 view .LVU636
 2093 0daa 5967     		str	r1, [r3, #116]
 825:Follow_Balance.c ****   Follow_Balance_B.RPiDataInput_o3= RPi_Revdata[2];
 2094              		.loc 1 825 3 is_stmt 1 view .LVU637
 2095              		.loc 1 825 48 is_stmt 0 view .LVU638
 2096 0dac 9168     		ldr	r1, [r2, #8]
 2097              		.loc 1 825 35 view .LVU639
 2098 0dae 9967     		str	r1, [r3, #120]
 826:Follow_Balance.c ****   Follow_Balance_B.RPiDataInput_o4= RPi_Revdata[3];
 2099              		.loc 1 826 3 is_stmt 1 view .LVU640
 2100              		.loc 1 826 48 is_stmt 0 view .LVU641
 2101 0db0 D268     		ldr	r2, [r2, #12]
 2102              		.loc 1 826 35 view .LVU642
 2103 0db2 DA67     		str	r2, [r3, #124]
 827:Follow_Balance.c **** 
 828:Follow_Balance.c ****   /* DataTypeConversion: '<Root>/Data Type Conversion4' incorporates:
 829:Follow_Balance.c ****    *  DataStoreWrite: '<Root>/Data Store Write13'
 830:Follow_Balance.c ****    */
 831:Follow_Balance.c ****   Follow_Balance_DW.usart_input4 = (real32_T)Follow_Balance_B.RPiDataInput_o4;
 2104              		.loc 1 831 3 is_stmt 1 view .LVU643
 2105              		.loc 1 831 36 is_stmt 0 view .LVU644
 2106 0db4 07EE902A 		vmov	s15, r2	@ int
 2107 0db8 B8EEE78A 		vcvt.f32.s32	s16, s15
 2108              		.loc 1 831 34 view .LVU645
 2109 0dbc 84ED488A 		vstr.32	s16, [r4, #288]
 832:Follow_Balance.c **** 
 833:Follow_Balance.c ****   /* DataTypeConversion: '<Root>/Data Type Conversion' incorporates:
 834:Follow_Balance.c ****    *  DataStoreWrite: '<Root>/Data Store Write4'
 835:Follow_Balance.c ****    */
 836:Follow_Balance.c ****   Follow_Balance_DW.usart_input3 = (real32_T)Follow_Balance_B.RPiDataInput_o3;
 2110              		.loc 1 836 3 is_stmt 1 view .LVU646
 2111              		.loc 1 836 36 is_stmt 0 view .LVU647
 2112 0dc0 07EE901A 		vmov	s15, r1	@ int
 2113 0dc4 F8EEE79A 		vcvt.f32.s32	s19, s15
 2114              		.loc 1 836 34 view .LVU648
 2115 0dc8 C4ED469A 		vstr.32	s19, [r4, #280]
 837:Follow_Balance.c **** 
 838:Follow_Balance.c ****   /* DataStoreRead: '<S18>/Data Store Read17' */
 839:Follow_Balance.c ****   rtb_Add1 = Follow_Balance_DW.tar_lenth;
 2116              		.loc 1 839 3 is_stmt 1 view .LVU649
 2117              		.loc 1 839 12 is_stmt 0 view .LVU650
ARM GAS  C:\Users\ysl\AppData\Local\Temp\ccJ1ill4.s 			page 58


 2118 0dcc D4E914AB 		ldrd	r10, [r4, #80]
 2119              	.LVL193:
 840:Follow_Balance.c **** 
 841:Follow_Balance.c ****   /* Gain: '<S53>/Gain1' incorporates:
 842:Follow_Balance.c ****    *  Constant: '<S53>/Constant1'
 843:Follow_Balance.c ****    *  DataStoreRead: '<S18>/Data Store Read17'
 844:Follow_Balance.c ****    *  Delay: '<S53>/Delay'
 845:Follow_Balance.c ****    *  Product: '<S53>/Product3'
 846:Follow_Balance.c ****    *  Sum: '<S53>/Add2'
 847:Follow_Balance.c ****    */
 848:Follow_Balance.c ****   Follow_Balance_DW.Delay_DSTATE_a = ((real32_T)(-0.1 *
 2120              		.loc 1 848 3 is_stmt 1 view .LVU651
 2121              		.loc 1 848 55 is_stmt 0 view .LVU652
 2122 0dd0 7FA3     		adr	r3, .L193+8
 2123 0dd2 D3E90023 		ldrd	r2, [r3]
 2124 0dd6 5046     		mov	r0, r10
 2125 0dd8 5946     		mov	r1, fp
 2126 0dda FFF7FEFF 		bl	__aeabi_dmul
 2127              	.LVL194:
 2128              		.loc 1 848 39 view .LVU653
 2129 0dde FFF7FEFF 		bl	__aeabi_d2f
 2130              	.LVL195:
 2131 0de2 FFF7FEFF 		bl	__aeabi_f2d
 2132              	.LVL196:
 849:Follow_Balance.c ****     Follow_Balance_DW.tar_lenth) + Follow_Balance_DW.Delay_DSTATE_a) * 0.995;
 2133              		.loc 1 849 34 view .LVU654
 2134 0de6 D4E90223 		ldrd	r2, [r4, #8]
 2135 0dea FFF7FEFF 		bl	__aeabi_dadd
 2136              	.LVL197:
 2137              		.loc 1 849 70 view .LVU655
 2138 0dee 7AA3     		adr	r3, .L193+16
 2139 0df0 D3E90023 		ldrd	r2, [r3]
 2140 0df4 FFF7FEFF 		bl	__aeabi_dmul
 2141              	.LVL198:
 2142 0df8 8046     		mov	r8, r0
 2143 0dfa 8946     		mov	r9, r1
 848:Follow_Balance.c ****     Follow_Balance_DW.tar_lenth) + Follow_Balance_DW.Delay_DSTATE_a) * 0.995;
 2144              		.loc 1 848 36 view .LVU656
 2145 0dfc C4E90289 		strd	r8, [r4, #8]
 850:Follow_Balance.c **** 
 851:Follow_Balance.c ****   /* Sum: '<S18>/Add4' incorporates:
 852:Follow_Balance.c ****    *  Constant: '<S50>/Constant2'
 853:Follow_Balance.c ****    *  Constant: '<S54>/Constant'
 854:Follow_Balance.c ****    *  DataStoreRead: '<S18>/Data Store Read17'
 855:Follow_Balance.c ****    *  DataStoreWrite: '<S18>/Data Store Write14'
 856:Follow_Balance.c ****    *  Delay: '<S53>/Delay'
 857:Follow_Balance.c ****    *  Product: '<S50>/Product2'
 858:Follow_Balance.c ****    *  Product: '<S54>/Product'
 859:Follow_Balance.c ****    *  Sum: '<S57>/Diff'
 860:Follow_Balance.c ****    *  UnitDelay: '<S57>/UD'
 861:Follow_Balance.c ****    *
 862:Follow_Balance.c ****    * Block description for '<S57>/Diff':
 863:Follow_Balance.c ****    *
 864:Follow_Balance.c ****    *  Add in CPU
 865:Follow_Balance.c ****    *
 866:Follow_Balance.c ****    * Block description for '<S57>/UD':
 867:Follow_Balance.c ****    *
ARM GAS  C:\Users\ysl\AppData\Local\Temp\ccJ1ill4.s 			page 59


 868:Follow_Balance.c ****    *  Store in Global RAM
 869:Follow_Balance.c ****    */
 870:Follow_Balance.c ****   Follow_Balance_DW.tar_speed = (-10.0 * Follow_Balance_DW.tar_lenth +
 2146              		.loc 1 870 3 is_stmt 1 view .LVU657
 2147              		.loc 1 870 40 is_stmt 0 view .LVU658
 2148 0e00 0022     		movs	r2, #0
 2149 0e02 7B4B     		ldr	r3, .L193+40
 2150 0e04 5046     		mov	r0, r10
 2151 0e06 5946     		mov	r1, fp
 2152 0e08 FFF7FEFF 		bl	__aeabi_dmul
 2153              	.LVL199:
 2154 0e0c 0246     		mov	r2, r0
 2155 0e0e 0B46     		mov	r3, r1
 2156              		.loc 1 870 70 view .LVU659
 2157 0e10 4046     		mov	r0, r8
 2158 0e12 4946     		mov	r1, r9
 2159 0e14 FFF7FEFF 		bl	__aeabi_dadd
 2160              	.LVL200:
 2161 0e18 8046     		mov	r8, r0
 2162 0e1a 8946     		mov	r9, r1
 871:Follow_Balance.c ****     Follow_Balance_DW.Delay_DSTATE_a) + (Follow_Balance_DW.tar_lenth -
 2163              		.loc 1 871 70 view .LVU660
 2164 0e1c D4E90423 		ldrd	r2, [r4, #16]
 2165 0e20 5046     		mov	r0, r10
 2166 0e22 5946     		mov	r1, fp
 2167 0e24 FFF7FEFF 		bl	__aeabi_dsub
 2168              	.LVL201:
 872:Follow_Balance.c ****     Follow_Balance_DW.UD_DSTATE) * 0.0;
 2169              		.loc 1 872 34 view .LVU661
 2170 0e28 0022     		movs	r2, #0
 2171 0e2a 0023     		movs	r3, #0
 2172 0e2c FFF7FEFF 		bl	__aeabi_dmul
 2173              	.LVL202:
 2174 0e30 0246     		mov	r2, r0
 2175 0e32 0B46     		mov	r3, r1
 871:Follow_Balance.c ****     Follow_Balance_DW.Delay_DSTATE_a) + (Follow_Balance_DW.tar_lenth -
 2176              		.loc 1 871 39 view .LVU662
 2177 0e34 4046     		mov	r0, r8
 2178 0e36 4946     		mov	r1, r9
 2179 0e38 FFF7FEFF 		bl	__aeabi_dadd
 2180              	.LVL203:
 870:Follow_Balance.c ****     Follow_Balance_DW.Delay_DSTATE_a) + (Follow_Balance_DW.tar_lenth -
 2181              		.loc 1 870 31 view .LVU663
 2182 0e3c C4E90E01 		strd	r0, [r4, #56]
 873:Follow_Balance.c **** 
 874:Follow_Balance.c ****   /* Outputs for Enabled SubSystem: '<S18>/Enabled Subsystem' incorporates:
 875:Follow_Balance.c ****    *  EnablePort: '<S51>/Enable'
 876:Follow_Balance.c ****    */
 877:Follow_Balance.c ****   /* Switch: '<S18>/Switch3' incorporates:
 878:Follow_Balance.c ****    *  DataStoreRead: '<S18>/Data Store Read16'
 879:Follow_Balance.c ****    *  Logic: '<S55>/AND1'
 880:Follow_Balance.c ****    *  Logic: '<S55>/AND2'
 881:Follow_Balance.c ****    *  Logic: '<S55>/NOT'
 882:Follow_Balance.c ****    *  Logic: '<S55>/NOT1'
 883:Follow_Balance.c ****    *  Logic: '<S55>/NOT2'
 884:Follow_Balance.c ****    *  Logic: '<S55>/OR'
 885:Follow_Balance.c ****    */
ARM GAS  C:\Users\ysl\AppData\Local\Temp\ccJ1ill4.s 			page 60


 886:Follow_Balance.c ****   if (!(Follow_Balance_DW.usart_input4 != 0.0F)) {
 2183              		.loc 1 886 3 is_stmt 1 view .LVU664
 2184              		.loc 1 886 6 is_stmt 0 view .LVU665
 2185 0e40 B5EE408A 		vcmp.f32	s16, #0
 2186 0e44 F1EE10FA 		vmrs	APSR_nzcv, FPSCR
 2187 0e48 74D1     		bne	.L91
 887:Follow_Balance.c ****     /* DataStoreWrite: '<S51>/Data Store Write' incorporates:
 888:Follow_Balance.c ****      *  Constant: '<S51>/Constant'
 889:Follow_Balance.c ****      */
 890:Follow_Balance.c ****     Follow_Balance_DW.tar_lenth = 0.0;
 2188              		.loc 1 890 5 is_stmt 1 view .LVU666
 2189              		.loc 1 890 33 is_stmt 0 view .LVU667
 2190 0e4a 0020     		movs	r0, #0
 2191 0e4c 0021     		movs	r1, #0
 2192 0e4e C4E91401 		strd	r0, [r4, #80]
 2193              	.L92:
 891:Follow_Balance.c ****   } else {
 892:Follow_Balance.c ****     int32_T rtb_Switch1_l;
 893:Follow_Balance.c **** 
 894:Follow_Balance.c ****     /* Outputs for Enabled SubSystem: '<S18>/Subsystem' incorporates:
 895:Follow_Balance.c ****      *  EnablePort: '<S55>/Enable'
 896:Follow_Balance.c ****      */
 897:Follow_Balance.c ****     /* Switch: '<S55>/Switch2' */
 898:Follow_Balance.c ****     rtb_Add1_m = (Follow_Balance_DW.usart_input4 > 37.0F);
 899:Follow_Balance.c **** 
 900:Follow_Balance.c ****     /* Switch: '<S55>/Switch1' */
 901:Follow_Balance.c ****     rtb_Switch1_l = !(Follow_Balance_DW.usart_input4 > 32.0F);
 902:Follow_Balance.c **** 
 903:Follow_Balance.c ****     /* Outputs for Enabled SubSystem: '<S55>/Enabled Subsystem' incorporates:
 904:Follow_Balance.c ****      *  EnablePort: '<S58>/Enable'
 905:Follow_Balance.c ****      */
 906:Follow_Balance.c ****     if ((rtb_Add1_m == 0) && (rtb_Switch1_l == 0)) {
 907:Follow_Balance.c ****       /* DataStoreWrite: '<S58>/Data Store Write' incorporates:
 908:Follow_Balance.c ****        *  Constant: '<S58>/Constant'
 909:Follow_Balance.c ****        */
 910:Follow_Balance.c ****       Follow_Balance_DW.tar_lenth = 0.0;
 911:Follow_Balance.c ****     }
 912:Follow_Balance.c **** 
 913:Follow_Balance.c ****     /* End of Outputs for SubSystem: '<S55>/Enabled Subsystem' */
 914:Follow_Balance.c **** 
 915:Follow_Balance.c ****     /* Outputs for Enabled SubSystem: '<S55>/Enabled Subsystem1' incorporates:
 916:Follow_Balance.c ****      *  EnablePort: '<S59>/Enable'
 917:Follow_Balance.c ****      */
 918:Follow_Balance.c ****     if ((rtb_Add1_m != 0) && (rtb_Switch1_l == 0)) {
 919:Follow_Balance.c ****       /* Sum: '<S59>/Add' incorporates:
 920:Follow_Balance.c ****        *  Constant: '<S59>/Constant'
 921:Follow_Balance.c ****        *  DataStoreWrite: '<S59>/Data Store Write'
 922:Follow_Balance.c ****        */
 923:Follow_Balance.c ****       Follow_Balance_DW.tar_lenth = 37.0 - Follow_Balance_DW.usart_input4;
 924:Follow_Balance.c ****     }
 925:Follow_Balance.c **** 
 926:Follow_Balance.c ****     /* End of Outputs for SubSystem: '<S55>/Enabled Subsystem1' */
 927:Follow_Balance.c **** 
 928:Follow_Balance.c ****     /* Outputs for Enabled SubSystem: '<S55>/Enabled Subsystem2' incorporates:
 929:Follow_Balance.c ****      *  EnablePort: '<S60>/Enable'
 930:Follow_Balance.c ****      */
 931:Follow_Balance.c ****     if ((rtb_Add1_m == 0) && (rtb_Switch1_l != 0)) {
ARM GAS  C:\Users\ysl\AppData\Local\Temp\ccJ1ill4.s 			page 61


 932:Follow_Balance.c ****       /* Sum: '<S60>/Add' incorporates:
 933:Follow_Balance.c ****        *  Constant: '<S60>/Constant'
 934:Follow_Balance.c ****        *  DataStoreWrite: '<S60>/Data Store Write'
 935:Follow_Balance.c ****        */
 936:Follow_Balance.c ****       Follow_Balance_DW.tar_lenth = 32.0 - Follow_Balance_DW.usart_input4;
 937:Follow_Balance.c ****     }
 938:Follow_Balance.c **** 
 939:Follow_Balance.c ****     /* End of Outputs for SubSystem: '<S55>/Enabled Subsystem2' */
 940:Follow_Balance.c ****     /* End of Outputs for SubSystem: '<S18>/Subsystem' */
 941:Follow_Balance.c ****   }
 942:Follow_Balance.c **** 
 943:Follow_Balance.c ****   /* End of Switch: '<S18>/Switch3' */
 944:Follow_Balance.c ****   /* End of Outputs for SubSystem: '<S18>/Enabled Subsystem' */
 945:Follow_Balance.c **** 
 946:Follow_Balance.c ****   /* Outputs for Enabled SubSystem: '<S18>/Subsystem1' incorporates:
 947:Follow_Balance.c ****    *  EnablePort: '<S56>/Enable'
 948:Follow_Balance.c ****    */
 949:Follow_Balance.c ****   /* Switch: '<S18>/Switch1' incorporates:
 950:Follow_Balance.c ****    *  DataStoreRead: '<S18>/Data Store Read18'
 951:Follow_Balance.c ****    */
 952:Follow_Balance.c ****   if ((boolean_T)(Follow_Balance_DW.usart_input3 != 0.0F)) {
 2194              		.loc 1 952 3 is_stmt 1 view .LVU668
 2195              		.loc 1 952 6 is_stmt 0 view .LVU669
 2196 0e52 F5EE409A 		vcmp.f32	s19, #0
 2197 0e56 F1EE10FA 		vmrs	APSR_nzcv, FPSCR
 2198 0e5a 00F0AF80 		beq	.L96
 953:Follow_Balance.c ****     /* Gain: '<S56>/Gain5' incorporates:
 954:Follow_Balance.c ****      *  DataStoreWrite: '<S56>/Data Store Write11'
 955:Follow_Balance.c ****      */
 956:Follow_Balance.c ****     Follow_Balance_DW.tar_yaw = -Follow_Balance_DW.usart_input3;
 2199              		.loc 1 956 5 is_stmt 1 view .LVU670
 2200              		.loc 1 956 33 is_stmt 0 view .LVU671
 2201 0e5e F1EE697A 		vneg.f32	s15, s19
 2202              		.loc 1 956 31 view .LVU672
 2203 0e62 604B     		ldr	r3, .L193+28
 2204 0e64 C3ED477A 		vstr.32	s15, [r3, #284]
 957:Follow_Balance.c **** 
 958:Follow_Balance.c ****     /* Delay: '<S56>/Delay' */
 959:Follow_Balance.c ****     Follow_Balance_B.Delay = Follow_Balance_DW.Delay_DSTATE_p;
 2205              		.loc 1 959 5 is_stmt 1 view .LVU673
 2206              		.loc 1 959 47 is_stmt 0 view .LVU674
 2207 0e68 596F     		ldr	r1, [r3, #116]	@ float
 2208              		.loc 1 959 28 view .LVU675
 2209 0e6a 5D4A     		ldr	r2, .L193+24
 2210 0e6c D165     		str	r1, [r2, #92]	@ float
 960:Follow_Balance.c **** 
 961:Follow_Balance.c ****     /* Update for Delay: '<S56>/Delay' incorporates:
 962:Follow_Balance.c ****      *  DataStoreWrite: '<S56>/Data Store Write11'
 963:Follow_Balance.c ****      */
 964:Follow_Balance.c ****     Follow_Balance_DW.Delay_DSTATE_p = Follow_Balance_DW.tar_yaw;
 2211              		.loc 1 964 5 is_stmt 1 view .LVU676
 2212              		.loc 1 964 38 is_stmt 0 view .LVU677
 2213 0e6e C3ED1D7A 		vstr.32	s15, [r3, #116]
 2214              	.L97:
 965:Follow_Balance.c ****   } else {
 966:Follow_Balance.c ****     /* Outputs for Enabled SubSystem: '<S18>/Enabled Subsystem1' incorporates:
 967:Follow_Balance.c ****      *  EnablePort: '<S52>/Enable'
ARM GAS  C:\Users\ysl\AppData\Local\Temp\ccJ1ill4.s 			page 62


 968:Follow_Balance.c ****      */
 969:Follow_Balance.c ****     /* DataStoreWrite: '<S52>/Data Store Write' */
 970:Follow_Balance.c ****     Follow_Balance_DW.tar_yaw = Follow_Balance_B.Delay;
 971:Follow_Balance.c **** 
 972:Follow_Balance.c ****     /* End of Outputs for SubSystem: '<S18>/Enabled Subsystem1' */
 973:Follow_Balance.c ****   }
 974:Follow_Balance.c **** 
 975:Follow_Balance.c ****   /* End of Switch: '<S18>/Switch1' */
 976:Follow_Balance.c ****   /* End of Outputs for SubSystem: '<S18>/Subsystem1' */
 977:Follow_Balance.c **** 
 978:Follow_Balance.c ****   /* Outputs for Enabled SubSystem: '<Root>/yaw to zero' incorporates:
 979:Follow_Balance.c ****    *  EnablePort: '<S19>/Enable'
 980:Follow_Balance.c ****    */
 981:Follow_Balance.c ****   /* Logic: '<Root>/AND' incorporates:
 982:Follow_Balance.c ****    *  Constant: '<S5>/Constant'
 983:Follow_Balance.c ****    *  DataStoreRead: '<Root>/Data Store Read11'
 984:Follow_Balance.c ****    *  DataStoreRead: '<Root>/Data Store Read12'
 985:Follow_Balance.c ****    *  RelationalOperator: '<S5>/Compare'
 986:Follow_Balance.c ****    *  RelationalOperator: '<S6>/Compare'
 987:Follow_Balance.c ****    */
 988:Follow_Balance.c ****   if ((Follow_Balance_DW.flag == 0.0) && (angle_yaw != 0)) {
 2215              		.loc 1 988 3 is_stmt 1 view .LVU678
 2216              		.loc 1 988 6 is_stmt 0 view .LVU679
 2217 0e72 0022     		movs	r2, #0
 2218 0e74 0023     		movs	r3, #0
 2219 0e76 5B49     		ldr	r1, .L193+28
 2220 0e78 D1E90C01 		ldrd	r0, [r1, #48]
 2221 0e7c FFF7FEFF 		bl	__aeabi_dcmpeq
 2222              	.LVL204:
 2223 0e80 38B1     		cbz	r0, .L98
 2224              		.loc 1 988 39 discriminator 1 view .LVU680
 2225 0e82 37B1     		cbz	r7, .L98
 989:Follow_Balance.c ****     /* DataStoreWrite: '<S19>/Data Store Write1' incorporates:
 990:Follow_Balance.c ****      *  Constant: '<S19>/Constant'
 991:Follow_Balance.c ****      */
 992:Follow_Balance.c ****     Follow_Balance_DW.flag = 1.0;
 2226              		.loc 1 992 5 is_stmt 1 view .LVU681
 2227              		.loc 1 992 28 is_stmt 0 view .LVU682
 2228 0e84 574B     		ldr	r3, .L193+28
 2229 0e86 0020     		movs	r0, #0
 2230 0e88 5A49     		ldr	r1, .L193+44
 2231 0e8a C3E90C01 		strd	r0, [r3, #48]
 993:Follow_Balance.c **** 
 994:Follow_Balance.c ****     /* DataStoreWrite: '<S19>/Data Store Write' incorporates:
 995:Follow_Balance.c ****      *  DataStoreRead: '<S19>/Data Store Read'
 996:Follow_Balance.c ****      */
 997:Follow_Balance.c ****     Follow_Balance_DW.yaw_begin = angle_yaw;
 2232              		.loc 1 997 5 is_stmt 1 view .LVU683
 2233              		.loc 1 997 33 is_stmt 0 view .LVU684
 2234 0e8e C3F82461 		str	r6, [r3, #292]
 2235              	.L98:
 998:Follow_Balance.c ****   }
 999:Follow_Balance.c **** 
1000:Follow_Balance.c ****   /* End of Logic: '<Root>/AND' */
1001:Follow_Balance.c ****   /* End of Outputs for SubSystem: '<Root>/yaw to zero' */
1002:Follow_Balance.c **** 
1003:Follow_Balance.c ****   /* Update for UnitDelay: '<S37>/UD'
ARM GAS  C:\Users\ysl\AppData\Local\Temp\ccJ1ill4.s 			page 63


1004:Follow_Balance.c ****    *
1005:Follow_Balance.c ****    * Block description for '<S37>/UD':
1006:Follow_Balance.c ****    *
1007:Follow_Balance.c ****    *  Store in Global RAM
1008:Follow_Balance.c ****    */
1009:Follow_Balance.c ****   Follow_Balance_DW.UD_DSTATE_f = rtb_Product3_p;
 2236              		.loc 1 1009 3 is_stmt 1 view .LVU685
 2237              		.loc 1 1009 33 is_stmt 0 view .LVU686
 2238 0e92 544B     		ldr	r3, .L193+28
 2239 0e94 83ED1A9A 		vstr.32	s18, [r3, #104]
1010:Follow_Balance.c **** 
1011:Follow_Balance.c ****   /* Update for UnitDelay: '<S41>/UD'
1012:Follow_Balance.c ****    *
1013:Follow_Balance.c ****    * Block description for '<S41>/UD':
1014:Follow_Balance.c ****    *
1015:Follow_Balance.c ****    *  Store in Global RAM
1016:Follow_Balance.c ****    */
1017:Follow_Balance.c ****   Follow_Balance_DW.UD_DSTATE_k = rtb_Add1_e;
 2240              		.loc 1 1017 3 is_stmt 1 view .LVU687
 2241              		.loc 1 1017 33 is_stmt 0 view .LVU688
 2242 0e98 C3ED1C8A 		vstr.32	s17, [r3, #112]
1018:Follow_Balance.c **** 
1019:Follow_Balance.c ****   /* Update for UnitDelay: '<S57>/UD'
1020:Follow_Balance.c ****    *
1021:Follow_Balance.c ****    * Block description for '<S57>/UD':
1022:Follow_Balance.c ****    *
1023:Follow_Balance.c ****    *  Store in Global RAM
1024:Follow_Balance.c ****    */
1025:Follow_Balance.c ****   Follow_Balance_DW.UD_DSTATE = rtb_Add1;
 2243              		.loc 1 1025 3 is_stmt 1 view .LVU689
 2244              		.loc 1 1025 31 is_stmt 0 view .LVU690
 2245 0e9c C3E904AB 		strd	r10, [r3, #16]
1026:Follow_Balance.c **** }
 2246              		.loc 1 1026 1 view .LVU691
 2247 0ea0 07B0     		add	sp, sp, #28
 2248              	.LCFI3:
 2249              		.cfi_remember_state
 2250              		.cfi_def_cfa_offset 60
 2251              		@ sp needed
 2252 0ea2 BDEC068B 		vldm	sp!, {d8-d10}
 2253              	.LCFI4:
 2254              		.cfi_restore 84
 2255              		.cfi_restore 85
 2256              		.cfi_restore 82
 2257              		.cfi_restore 83
 2258              		.cfi_restore 80
 2259              		.cfi_restore 81
 2260              		.cfi_def_cfa_offset 36
 2261              	.LVL205:
 2262              		.loc 1 1026 1 view .LVU692
 2263 0ea6 BDE8F08F 		pop	{r4, r5, r6, r7, r8, r9, r10, fp, pc}
 2264              	.LVL206:
 2265              	.L159:
 2266              	.LCFI5:
 2267              		.cfi_restore_state
 770:Follow_Balance.c ****     if (rtIsNaN(tmp) || rtIsInf(tmp)) {
 2268              		.loc 1 770 5 is_stmt 1 view .LVU693
ARM GAS  C:\Users\ysl\AppData\Local\Temp\ccJ1ill4.s 			page 64


 770:Follow_Balance.c ****     if (rtIsNaN(tmp) || rtIsInf(tmp)) {
 2269              		.loc 1 770 11 is_stmt 0 view .LVU694
 2270 0eaa 45EC104B 		vmov	d0, r4, r5
 2271 0eae FFF7FEFF 		bl	floor
 2272              	.LVL207:
 2273 0eb2 B0EE40AA 		vmov.f32	s20, s0
 2274 0eb6 F0EE60AA 		vmov.f32	s21, s1
 2275              	.LVL208:
 771:Follow_Balance.c ****       tmp = 0.0;
 2276              		.loc 1 771 5 is_stmt 1 view .LVU695
 771:Follow_Balance.c ****       tmp = 0.0;
 2277              		.loc 1 771 9 is_stmt 0 view .LVU696
 2278 0eba FFF7FEFF 		bl	rtIsNaN
 2279              	.LVL209:
 771:Follow_Balance.c ****       tmp = 0.0;
 2280              		.loc 1 771 8 view .LVU697
 2281 0ebe 88B1     		cbz	r0, .L182
 772:Follow_Balance.c ****     } else {
 2282              		.loc 1 772 11 view .LVU698
 2283 0ec0 0024     		movs	r4, #0
 2284              	.LVL210:
 772:Follow_Balance.c ****     } else {
 2285              		.loc 1 772 11 view .LVU699
 2286 0ec2 0025     		movs	r5, #0
 2287              	.LVL211:
 2288              	.L85:
 780:Follow_Balance.c ****       -(int16_T)(uint16_T)-tmp : (int32_T)(int16_T)(uint16_T)tmp);
 2289              		.loc 1 780 5 is_stmt 1 view .LVU700
 780:Follow_Balance.c ****       -(int16_T)(uint16_T)-tmp : (int32_T)(int16_T)(uint16_T)tmp);
 2290              		.loc 1 780 36 is_stmt 0 view .LVU701
 2291 0ec4 0022     		movs	r2, #0
 2292 0ec6 0023     		movs	r3, #0
 2293 0ec8 2046     		mov	r0, r4
 2294 0eca 2946     		mov	r1, r5
 2295 0ecc FFF7FEFF 		bl	__aeabi_dcmplt
 2296              	.LVL212:
 2297 0ed0 E8B9     		cbnz	r0, .L183
 781:Follow_Balance.c ****   }
 2298              		.loc 1 781 52 discriminator 2 view .LVU702
 2299 0ed2 2046     		mov	r0, r4
 2300 0ed4 2946     		mov	r1, r5
 2301 0ed6 FFF7FEFF 		bl	__aeabi_d2uiz
 2302              	.LVL213:
 780:Follow_Balance.c ****       -(int16_T)(uint16_T)-tmp : (int32_T)(int16_T)(uint16_T)tmp);
 2303              		.loc 1 780 36 discriminator 2 view .LVU703
 2304 0eda 03B2     		sxth	r3, r0
 2305              	.L88:
 780:Follow_Balance.c ****       -(int16_T)(uint16_T)-tmp : (int32_T)(int16_T)(uint16_T)tmp);
 2306              		.loc 1 780 34 discriminator 4 view .LVU704
 2307 0edc 404A     		ldr	r2, .L193+24
 2308 0ede A2F8A230 		strh	r3, [r2, #162]	@ movhi
 2309 0ee2 37E7     		b	.L78
 2310              	.LVL214:
 2311              	.L182:
 771:Follow_Balance.c ****       tmp = 0.0;
 2312              		.loc 1 771 25 discriminator 1 view .LVU705
 2313 0ee4 B0EE4A0A 		vmov.f32	s0, s20
ARM GAS  C:\Users\ysl\AppData\Local\Temp\ccJ1ill4.s 			page 65


 2314 0ee8 F0EE6A0A 		vmov.f32	s1, s21
 2315 0eec FFF7FEFF 		bl	rtIsInf
 2316              	.LVL215:
 771:Follow_Balance.c ****       tmp = 0.0;
 2317              		.loc 1 771 22 discriminator 1 view .LVU706
 2318 0ef0 10B1     		cbz	r0, .L184
 772:Follow_Balance.c ****     } else {
 2319              		.loc 1 772 11 view .LVU707
 2320 0ef2 0024     		movs	r4, #0
 2321              	.LVL216:
 772:Follow_Balance.c ****     } else {
 2322              		.loc 1 772 11 view .LVU708
 2323 0ef4 0025     		movs	r5, #0
 2324 0ef6 E5E7     		b	.L85
 2325              	.LVL217:
 2326              	.L184:
 774:Follow_Balance.c ****     }
 2327              		.loc 1 774 7 is_stmt 1 view .LVU709
 774:Follow_Balance.c ****     }
 2328              		.loc 1 774 13 is_stmt 0 view .LVU710
 2329 0ef8 9FED331B 		vldr.64	d1, .L193
 2330 0efc B0EE4A0A 		vmov.f32	s0, s20
 2331 0f00 F0EE6A0A 		vmov.f32	s1, s21
 2332 0f04 FFF7FEFF 		bl	fmod
 2333              	.LVL218:
 2334 0f08 55EC104B 		vmov	r4, r5, d0
 2335              	.LVL219:
 774:Follow_Balance.c ****     }
 2336              		.loc 1 774 13 view .LVU711
 2337 0f0c DAE7     		b	.L85
 2338              	.L183:
 781:Follow_Balance.c ****   }
 2339              		.loc 1 781 27 discriminator 1 view .LVU712
 2340 0f0e 2046     		mov	r0, r4
 2341 0f10 05F10041 		add	r1, r5, #-2147483648
 781:Follow_Balance.c ****   }
 2342              		.loc 1 781 17 discriminator 1 view .LVU713
 2343 0f14 FFF7FEFF 		bl	__aeabi_d2uiz
 2344              	.LVL220:
 2345 0f18 83B2     		uxth	r3, r0
 780:Follow_Balance.c ****       -(int16_T)(uint16_T)-tmp : (int32_T)(int16_T)(uint16_T)tmp);
 2346              		.loc 1 780 67 discriminator 1 view .LVU714
 2347 0f1a 5B42     		rsbs	r3, r3, #0
 780:Follow_Balance.c ****       -(int16_T)(uint16_T)-tmp : (int32_T)(int16_T)(uint16_T)tmp);
 2348              		.loc 1 780 36 discriminator 1 view .LVU715
 2349 0f1c 1BB2     		sxth	r3, r3
 2350 0f1e DDE7     		b	.L88
 2351              	.LVL221:
 2352              	.L89:
 792:Follow_Balance.c ****     /* Switch: '<S21>/Switch1' incorporates:
 2353              		.loc 1 792 10 is_stmt 1 view .LVU716
 792:Follow_Balance.c ****     /* Switch: '<S21>/Switch1' incorporates:
 2354              		.loc 1 792 13 is_stmt 0 view .LVU717
 2355 0f20 354A     		ldr	r2, .L193+48
 2356 0f22 9342     		cmp	r3, r2
 2357 0f24 BFF621AF 		bge	.L90
 796:Follow_Balance.c ****   }
ARM GAS  C:\Users\ysl\AppData\Local\Temp\ccJ1ill4.s 			page 66


 2358              		.loc 1 796 5 is_stmt 1 view .LVU718
 796:Follow_Balance.c ****   }
 2359              		.loc 1 796 34 is_stmt 0 view .LVU719
 2360 0f28 2D4B     		ldr	r3, .L193+24
 2361 0f2a 4EF69872 		movw	r2, #61336
 2362 0f2e A3F8A220 		strh	r2, [r3, #162]	@ movhi
 2363 0f32 1AE7     		b	.L90
 2364              	.LVL222:
 2365              	.L91:
 2366              	.LBB3:
 892:Follow_Balance.c **** 
 2367              		.loc 1 892 5 is_stmt 1 view .LVU720
 898:Follow_Balance.c **** 
 2368              		.loc 1 898 5 view .LVU721
 901:Follow_Balance.c **** 
 2369              		.loc 1 901 5 view .LVU722
 901:Follow_Balance.c **** 
 2370              		.loc 1 901 54 is_stmt 0 view .LVU723
 2371 0f34 DFED317A 		vldr.32	s15, .L193+52
 2372 0f38 B4EEE78A 		vcmpe.f32	s16, s15
 2373 0f3c F1EE10FA 		vmrs	APSR_nzcv, FPSCR
 901:Follow_Balance.c **** 
 2374              		.loc 1 901 21 view .LVU724
 2375 0f40 D4BF     		ite	le
 2376 0f42 0124     		movle	r4, #1
 2377 0f44 0024     		movgt	r4, #0
 2378              	.LVL223:
 906:Follow_Balance.c ****       /* DataStoreWrite: '<S58>/Data Store Write' incorporates:
 2379              		.loc 1 906 5 is_stmt 1 view .LVU725
 906:Follow_Balance.c ****       /* DataStoreWrite: '<S58>/Data Store Write' incorporates:
 2380              		.loc 1 906 8 is_stmt 0 view .LVU726
 2381 0f46 DFED2E7A 		vldr.32	s15, .L193+56
 2382 0f4a B4EEE78A 		vcmpe.f32	s16, s15
 2383 0f4e F1EE10FA 		vmrs	APSR_nzcv, FPSCR
 2384 0f52 05DC     		bgt	.L93
 906:Follow_Balance.c ****       /* DataStoreWrite: '<S58>/Data Store Write' incorporates:
 2385              		.loc 1 906 27 discriminator 1 view .LVU727
 2386 0f54 24B9     		cbnz	r4, .L93
 910:Follow_Balance.c ****     }
 2387              		.loc 1 910 7 is_stmt 1 view .LVU728
 910:Follow_Balance.c ****     }
 2388              		.loc 1 910 35 is_stmt 0 view .LVU729
 2389 0f56 234B     		ldr	r3, .L193+28
 2390 0f58 0020     		movs	r0, #0
 2391 0f5a 0021     		movs	r1, #0
 2392 0f5c C3E91401 		strd	r0, [r3, #80]
 2393              	.L93:
 918:Follow_Balance.c ****       /* Sum: '<S59>/Add' incorporates:
 2394              		.loc 1 918 5 is_stmt 1 view .LVU730
 918:Follow_Balance.c ****       /* Sum: '<S59>/Add' incorporates:
 2395              		.loc 1 918 8 is_stmt 0 view .LVU731
 2396 0f60 DFED277A 		vldr.32	s15, .L193+56
 2397 0f64 B4EEE78A 		vcmpe.f32	s16, s15
 2398 0f68 F1EE10FA 		vmrs	APSR_nzcv, FPSCR
 2399 0f6c 0DDD     		ble	.L94
 918:Follow_Balance.c ****       /* Sum: '<S59>/Add' incorporates:
 2400              		.loc 1 918 27 discriminator 1 view .LVU732
ARM GAS  C:\Users\ysl\AppData\Local\Temp\ccJ1ill4.s 			page 67


 2401 0f6e 64B9     		cbnz	r4, .L94
 923:Follow_Balance.c ****     }
 2402              		.loc 1 923 7 is_stmt 1 view .LVU733
 923:Follow_Balance.c ****     }
 2403              		.loc 1 923 61 is_stmt 0 view .LVU734
 2404 0f70 18EE100A 		vmov	r0, s16
 2405 0f74 FFF7FEFF 		bl	__aeabi_f2d
 2406              	.LVL224:
 2407 0f78 0246     		mov	r2, r0
 2408 0f7a 0B46     		mov	r3, r1
 923:Follow_Balance.c ****     }
 2409              		.loc 1 923 42 view .LVU735
 2410 0f7c 0020     		movs	r0, #0
 2411 0f7e 2149     		ldr	r1, .L193+60
 2412 0f80 FFF7FEFF 		bl	__aeabi_dsub
 2413              	.LVL225:
 923:Follow_Balance.c ****     }
 2414              		.loc 1 923 35 view .LVU736
 2415 0f84 174B     		ldr	r3, .L193+28
 2416 0f86 C3E91401 		strd	r0, [r3, #80]
 2417              	.L94:
 931:Follow_Balance.c ****       /* Sum: '<S60>/Add' incorporates:
 2418              		.loc 1 931 5 is_stmt 1 view .LVU737
 931:Follow_Balance.c ****       /* Sum: '<S60>/Add' incorporates:
 2419              		.loc 1 931 8 is_stmt 0 view .LVU738
 2420 0f8a DFED1D7A 		vldr.32	s15, .L193+56
 2421 0f8e B4EEE78A 		vcmpe.f32	s16, s15
 2422 0f92 F1EE10FA 		vmrs	APSR_nzcv, FPSCR
 2423 0f96 3FF75CAF 		bgt	.L92
 931:Follow_Balance.c ****       /* Sum: '<S60>/Add' incorporates:
 2424              		.loc 1 931 27 discriminator 1 view .LVU739
 2425 0f9a 002C     		cmp	r4, #0
 2426 0f9c 3FF459AF 		beq	.L92
 936:Follow_Balance.c ****     }
 2427              		.loc 1 936 7 is_stmt 1 view .LVU740
 936:Follow_Balance.c ****     }
 2428              		.loc 1 936 61 is_stmt 0 view .LVU741
 2429 0fa0 18EE100A 		vmov	r0, s16
 2430 0fa4 FFF7FEFF 		bl	__aeabi_f2d
 2431              	.LVL226:
 2432 0fa8 0246     		mov	r2, r0
 2433 0faa 0B46     		mov	r3, r1
 936:Follow_Balance.c ****     }
 2434              		.loc 1 936 42 view .LVU742
 2435 0fac 0020     		movs	r0, #0
 2436 0fae 1649     		ldr	r1, .L193+64
 2437 0fb0 FFF7FEFF 		bl	__aeabi_dsub
 2438              	.LVL227:
 936:Follow_Balance.c ****     }
 2439              		.loc 1 936 35 view .LVU743
 2440 0fb4 0B4B     		ldr	r3, .L193+28
 2441 0fb6 C3E91401 		strd	r0, [r3, #80]
 2442 0fba 4AE7     		b	.L92
 2443              	.LVL228:
 2444              	.L96:
 936:Follow_Balance.c ****     }
 2445              		.loc 1 936 35 view .LVU744
ARM GAS  C:\Users\ysl\AppData\Local\Temp\ccJ1ill4.s 			page 68


 2446              	.LBE3:
 970:Follow_Balance.c **** 
 2447              		.loc 1 970 5 is_stmt 1 view .LVU745
 970:Follow_Balance.c **** 
 2448              		.loc 1 970 49 is_stmt 0 view .LVU746
 2449 0fbc 084B     		ldr	r3, .L193+24
 2450 0fbe DA6D     		ldr	r2, [r3, #92]	@ float
 970:Follow_Balance.c **** 
 2451              		.loc 1 970 31 view .LVU747
 2452 0fc0 084B     		ldr	r3, .L193+28
 2453 0fc2 C3F81C21 		str	r2, [r3, #284]	@ float
 2454 0fc6 54E7     		b	.L97
 2455              	.L194:
 2456              		.align	3
 2457              	.L193:
 2458 0fc8 00000000 		.word	0
 2459 0fcc 0000F040 		.word	1089470464
 2460 0fd0 9A999999 		.word	-1717986918
 2461 0fd4 9999B9BF 		.word	-1078355559
 2462 0fd8 D7A3703D 		.word	1030792151
 2463 0fdc 0AD7EF3F 		.word	1072682762
 2464 0fe0 00000000 		.word	.LANCHOR0
 2465 0fe4 00000000 		.word	.LANCHOR1
 2466 0fe8 00000000 		.word	DataLink_RevData
 2467 0fec 00000000 		.word	RPi_Revdata
 2468 0ff0 000024C0 		.word	-1071382528
 2469 0ff4 0000F03F 		.word	1072693248
 2470 0ff8 98EFFFFF 		.word	-4200
 2471 0ffc 00000042 		.word	1107296256
 2472 1000 00001442 		.word	1108606976
 2473 1004 00804240 		.word	1078099968
 2474 1008 00004040 		.word	1077936128
 2475              		.cfi_endproc
 2476              	.LFE238:
 2478              		.section	.text.Follow_Balance_initialize,"ax",%progbits
 2479              		.align	1
 2480              		.global	Follow_Balance_initialize
 2481              		.syntax unified
 2482              		.thumb
 2483              		.thumb_func
 2485              	Follow_Balance_initialize:
 2486              	.LFB239:
1027:Follow_Balance.c **** 
1028:Follow_Balance.c **** /* Model initialize function */
1029:Follow_Balance.c **** void Follow_Balance_initialize(void)
1030:Follow_Balance.c **** {
 2487              		.loc 1 1030 1 is_stmt 1 view -0
 2488              		.cfi_startproc
 2489              		@ args = 0, pretend = 0, frame = 0
 2490              		@ frame_needed = 0, uses_anonymous_args = 0
 2491 0000 08B5     		push	{r3, lr}
 2492              	.LCFI6:
 2493              		.cfi_def_cfa_offset 8
 2494              		.cfi_offset 3, -8
 2495              		.cfi_offset 14, -4
1031:Follow_Balance.c ****   /* Registration code */
1032:Follow_Balance.c **** 
ARM GAS  C:\Users\ysl\AppData\Local\Temp\ccJ1ill4.s 			page 69


1033:Follow_Balance.c ****   /* initialize non-finites */
1034:Follow_Balance.c ****   rt_InitInfAndNaN(sizeof(real_T));
 2496              		.loc 1 1034 3 view .LVU749
 2497 0002 0820     		movs	r0, #8
 2498 0004 FFF7FEFF 		bl	rt_InitInfAndNaN
 2499              	.LVL229:
1035:Follow_Balance.c **** }
 2500              		.loc 1 1035 1 is_stmt 0 view .LVU750
 2501 0008 08BD     		pop	{r3, pc}
 2502              		.cfi_endproc
 2503              	.LFE239:
 2505              		.section	.text.Follow_Balance_terminate,"ax",%progbits
 2506              		.align	1
 2507              		.global	Follow_Balance_terminate
 2508              		.syntax unified
 2509              		.thumb
 2510              		.thumb_func
 2512              	Follow_Balance_terminate:
 2513              	.LFB240:
1036:Follow_Balance.c **** 
1037:Follow_Balance.c **** /* Model terminate function */
1038:Follow_Balance.c **** void Follow_Balance_terminate(void)
1039:Follow_Balance.c **** {
 2514              		.loc 1 1039 1 is_stmt 1 view -0
 2515              		.cfi_startproc
 2516              		@ args = 0, pretend = 0, frame = 0
 2517              		@ frame_needed = 0, uses_anonymous_args = 0
 2518              		@ link register save eliminated.
1040:Follow_Balance.c ****   /* (no terminate code required) */
1041:Follow_Balance.c **** }
 2519              		.loc 1 1041 1 view .LVU752
 2520 0000 7047     		bx	lr
 2521              		.cfi_endproc
 2522              	.LFE240:
 2524              		.global	Follow_Balance_M
 2525              		.global	Follow_Balance_DW
 2526              		.global	Follow_Balance_B
 2527              		.global	Follow_Balance_U8GND
 2528              		.section	.bss.Follow_Balance_B,"aw",%nobits
 2529              		.align	3
 2530              		.set	.LANCHOR0,. + 0
 2533              	Follow_Balance_B:
 2534 0000 00000000 		.space	168
 2534      00000000 
 2534      00000000 
 2534      00000000 
 2534      00000000 
 2535              		.section	.bss.Follow_Balance_DW,"aw",%nobits
 2536              		.align	3
 2537              		.set	.LANCHOR1,. + 0
 2540              	Follow_Balance_DW:
 2541 0000 00000000 		.space	304
 2541      00000000 
 2541      00000000 
 2541      00000000 
 2541      00000000 
 2542              		.section	.bss.Follow_Balance_M_,"aw",%nobits
ARM GAS  C:\Users\ysl\AppData\Local\Temp\ccJ1ill4.s 			page 70


 2543              		.align	2
 2546              	Follow_Balance_M_:
 2547 0000 00000000 		.space	4
 2548              		.section	.rodata.Follow_Balance_M,"a"
 2549              		.align	2
 2552              	Follow_Balance_M:
 2553 0000 00000000 		.word	Follow_Balance_M_
 2554              		.section	.rodata.Follow_Balance_U8GND,"a"
 2555              		.set	.LANCHOR2,. + 0
 2558              	Follow_Balance_U8GND:
 2559 0000 00       		.space	1
 2560              		.text
 2561              	.Letext0:
 2562              		.file 2 "c:\\program files (x86)\\arm gnu toolchain arm-none-eabi\\11.2 2022.02\\arm-none-eabi\\in
 2563              		.file 3 "c:\\program files (x86)\\arm gnu toolchain arm-none-eabi\\11.2 2022.02\\arm-none-eabi\\in
 2564              		.file 4 "../STM32CUBEMX/Drivers/CMSIS/Device/ST/STM32F4xx/Include/stm32f405xx.h"
 2565              		.file 5 "c:\\program files (x86)\\arm gnu toolchain arm-none-eabi\\11.2 2022.02\\lib\\gcc\\arm-non
 2566              		.file 6 "../STM32CUBEMX/Drivers/STM32F4xx_HAL_Driver/Inc/stm32f4xx_hal_def.h"
 2567              		.file 7 "../STM32CUBEMX/Drivers/STM32F4xx_HAL_Driver/Inc/stm32f4xx_hal_gpio.h"
 2568              		.file 8 "../STM32CUBEMX/Drivers/STM32F4xx_HAL_Driver/Inc/stm32f4xx_hal_dma.h"
 2569              		.file 9 "../STM32CUBEMX/Drivers/STM32F4xx_HAL_Driver/Inc/stm32f4xx_hal_tim.h"
 2570              		.file 10 "../STM32CUBEMX/Core/Inc/ifr-scope_device.h"
 2571              		.file 11 "../STM32CUBEMX/Core/Inc/tim.h"
 2572              		.file 12 "rtwtypes.h"
 2573              		.file 13 "Follow_Balance_types.h"
 2574              		.file 14 "Follow_Balance.h"
 2575              		.file 15 "rt_nonfinite.h"
 2576              		.file 16 "c:\\program files (x86)\\arm gnu toolchain arm-none-eabi\\11.2 2022.02\\arm-none-eabi\\i
 2577              		.file 17 "c:\\program files (x86)\\arm gnu toolchain arm-none-eabi\\11.2 2022.02\\arm-none-eabi\\i
ARM GAS  C:\Users\ysl\AppData\Local\Temp\ccJ1ill4.s 			page 71

