ARM GAS  C:\Users\ysl\AppData\Local\Temp\ccZawjpV.s 			page 1


   1              		.cpu cortex-m4
   2              		.arch armv7e-m
   3              		.fpu fpv4-sp-d16
   4              		.eabi_attribute 27, 1
   5              		.eabi_attribute 28, 1
   6              		.eabi_attribute 20, 1
   7              		.eabi_attribute 21, 1
   8              		.eabi_attribute 23, 3
   9              		.eabi_attribute 24, 1
  10              		.eabi_attribute 25, 1
  11              		.eabi_attribute 26, 1
  12              		.eabi_attribute 30, 1
  13              		.eabi_attribute 34, 1
  14              		.eabi_attribute 18, 4
  15              		.file	"stm32f4xx_it.c"
  16              		.text
  17              	.Ltext0:
  18              		.cfi_sections	.debug_frame
  19              		.section	.text.NMI_Handler,"ax",%progbits
  20              		.align	1
  21              		.global	NMI_Handler
  22              		.syntax unified
  23              		.thumb
  24              		.thumb_func
  26              	NMI_Handler:
  27              	.LFB235:
  28              		.file 1 "../STM32CUBEMX/Core/Src/stm32f4xx_it.c"
   1:../STM32CUBEMX/Core/Src/stm32f4xx_it.c **** /* USER CODE BEGIN Header */
   2:../STM32CUBEMX/Core/Src/stm32f4xx_it.c **** /**
   3:../STM32CUBEMX/Core/Src/stm32f4xx_it.c ****   ******************************************************************************
   4:../STM32CUBEMX/Core/Src/stm32f4xx_it.c ****   * @file    stm32f4xx_it.c
   5:../STM32CUBEMX/Core/Src/stm32f4xx_it.c ****   * @brief   Interrupt Service Routines.
   6:../STM32CUBEMX/Core/Src/stm32f4xx_it.c ****   ******************************************************************************
   7:../STM32CUBEMX/Core/Src/stm32f4xx_it.c ****   * @attention
   8:../STM32CUBEMX/Core/Src/stm32f4xx_it.c ****   *
   9:../STM32CUBEMX/Core/Src/stm32f4xx_it.c ****   * Copyright (c) 2022 STMicroelectronics.
  10:../STM32CUBEMX/Core/Src/stm32f4xx_it.c ****   * All rights reserved.
  11:../STM32CUBEMX/Core/Src/stm32f4xx_it.c ****   *
  12:../STM32CUBEMX/Core/Src/stm32f4xx_it.c ****   * This software is licensed under terms that can be found in the LICENSE file
  13:../STM32CUBEMX/Core/Src/stm32f4xx_it.c ****   * in the root directory of this software component.
  14:../STM32CUBEMX/Core/Src/stm32f4xx_it.c ****   * If no LICENSE file comes with this software, it is provided AS-IS.
  15:../STM32CUBEMX/Core/Src/stm32f4xx_it.c ****   *
  16:../STM32CUBEMX/Core/Src/stm32f4xx_it.c ****   ******************************************************************************
  17:../STM32CUBEMX/Core/Src/stm32f4xx_it.c ****   */
  18:../STM32CUBEMX/Core/Src/stm32f4xx_it.c **** /* USER CODE END Header */
  19:../STM32CUBEMX/Core/Src/stm32f4xx_it.c **** 
  20:../STM32CUBEMX/Core/Src/stm32f4xx_it.c **** /* Includes ------------------------------------------------------------------*/
  21:../STM32CUBEMX/Core/Src/stm32f4xx_it.c **** #include "main.h"
  22:../STM32CUBEMX/Core/Src/stm32f4xx_it.c **** #include "stm32f4xx_it.h"
  23:../STM32CUBEMX/Core/Src/stm32f4xx_it.c **** /* Private includes ----------------------------------------------------------*/
  24:../STM32CUBEMX/Core/Src/stm32f4xx_it.c **** /* USER CODE BEGIN Includes */
  25:../STM32CUBEMX/Core/Src/stm32f4xx_it.c **** /* USER CODE END Includes */
  26:../STM32CUBEMX/Core/Src/stm32f4xx_it.c **** 
  27:../STM32CUBEMX/Core/Src/stm32f4xx_it.c **** /* Private typedef -----------------------------------------------------------*/
  28:../STM32CUBEMX/Core/Src/stm32f4xx_it.c **** /* USER CODE BEGIN TD */
  29:../STM32CUBEMX/Core/Src/stm32f4xx_it.c **** 
  30:../STM32CUBEMX/Core/Src/stm32f4xx_it.c **** /* USER CODE END TD */
ARM GAS  C:\Users\ysl\AppData\Local\Temp\ccZawjpV.s 			page 2


  31:../STM32CUBEMX/Core/Src/stm32f4xx_it.c **** 
  32:../STM32CUBEMX/Core/Src/stm32f4xx_it.c **** /* Private define ------------------------------------------------------------*/
  33:../STM32CUBEMX/Core/Src/stm32f4xx_it.c **** /* USER CODE BEGIN PD */
  34:../STM32CUBEMX/Core/Src/stm32f4xx_it.c **** 
  35:../STM32CUBEMX/Core/Src/stm32f4xx_it.c **** /* USER CODE END PD */
  36:../STM32CUBEMX/Core/Src/stm32f4xx_it.c **** 
  37:../STM32CUBEMX/Core/Src/stm32f4xx_it.c **** /* Private macro -------------------------------------------------------------*/
  38:../STM32CUBEMX/Core/Src/stm32f4xx_it.c **** /* USER CODE BEGIN PM */
  39:../STM32CUBEMX/Core/Src/stm32f4xx_it.c **** 
  40:../STM32CUBEMX/Core/Src/stm32f4xx_it.c **** /* USER CODE END PM */
  41:../STM32CUBEMX/Core/Src/stm32f4xx_it.c **** 
  42:../STM32CUBEMX/Core/Src/stm32f4xx_it.c **** /* Private variables ---------------------------------------------------------*/
  43:../STM32CUBEMX/Core/Src/stm32f4xx_it.c **** /* USER CODE BEGIN PV */
  44:../STM32CUBEMX/Core/Src/stm32f4xx_it.c **** 
  45:../STM32CUBEMX/Core/Src/stm32f4xx_it.c **** /* USER CODE END PV */
  46:../STM32CUBEMX/Core/Src/stm32f4xx_it.c **** 
  47:../STM32CUBEMX/Core/Src/stm32f4xx_it.c **** /* Private function prototypes -----------------------------------------------*/
  48:../STM32CUBEMX/Core/Src/stm32f4xx_it.c **** /* USER CODE BEGIN PFP */
  49:../STM32CUBEMX/Core/Src/stm32f4xx_it.c **** void USER_UART_RxIdleCallback(UART_HandleTypeDef *huart);
  50:../STM32CUBEMX/Core/Src/stm32f4xx_it.c **** /* USER CODE END PFP */
  51:../STM32CUBEMX/Core/Src/stm32f4xx_it.c **** 
  52:../STM32CUBEMX/Core/Src/stm32f4xx_it.c **** /* Private user code ---------------------------------------------------------*/
  53:../STM32CUBEMX/Core/Src/stm32f4xx_it.c **** /* USER CODE BEGIN 0 */
  54:../STM32CUBEMX/Core/Src/stm32f4xx_it.c **** 
  55:../STM32CUBEMX/Core/Src/stm32f4xx_it.c **** /* USER CODE END 0 */
  56:../STM32CUBEMX/Core/Src/stm32f4xx_it.c **** 
  57:../STM32CUBEMX/Core/Src/stm32f4xx_it.c **** /* External variables --------------------------------------------------------*/
  58:../STM32CUBEMX/Core/Src/stm32f4xx_it.c **** extern DMA_HandleTypeDef hdma_adc1;
  59:../STM32CUBEMX/Core/Src/stm32f4xx_it.c **** extern DMA_HandleTypeDef hdma_adc2;
  60:../STM32CUBEMX/Core/Src/stm32f4xx_it.c **** extern DMA_HandleTypeDef hdma_tim4_ch1;
  61:../STM32CUBEMX/Core/Src/stm32f4xx_it.c **** extern DMA_HandleTypeDef hdma_tim4_ch2;
  62:../STM32CUBEMX/Core/Src/stm32f4xx_it.c **** extern TIM_HandleTypeDef htim7;
  63:../STM32CUBEMX/Core/Src/stm32f4xx_it.c **** extern DMA_HandleTypeDef hdma_uart4_rx;
  64:../STM32CUBEMX/Core/Src/stm32f4xx_it.c **** extern DMA_HandleTypeDef hdma_uart4_tx;
  65:../STM32CUBEMX/Core/Src/stm32f4xx_it.c **** extern DMA_HandleTypeDef hdma_usart1_rx;
  66:../STM32CUBEMX/Core/Src/stm32f4xx_it.c **** extern DMA_HandleTypeDef hdma_usart1_tx;
  67:../STM32CUBEMX/Core/Src/stm32f4xx_it.c **** extern DMA_HandleTypeDef hdma_usart3_rx;
  68:../STM32CUBEMX/Core/Src/stm32f4xx_it.c **** extern UART_HandleTypeDef huart4;
  69:../STM32CUBEMX/Core/Src/stm32f4xx_it.c **** extern UART_HandleTypeDef huart1;
  70:../STM32CUBEMX/Core/Src/stm32f4xx_it.c **** extern UART_HandleTypeDef huart3;
  71:../STM32CUBEMX/Core/Src/stm32f4xx_it.c **** /* USER CODE BEGIN EV */
  72:../STM32CUBEMX/Core/Src/stm32f4xx_it.c **** 
  73:../STM32CUBEMX/Core/Src/stm32f4xx_it.c **** /* USER CODE END EV */
  74:../STM32CUBEMX/Core/Src/stm32f4xx_it.c **** 
  75:../STM32CUBEMX/Core/Src/stm32f4xx_it.c **** /******************************************************************************/
  76:../STM32CUBEMX/Core/Src/stm32f4xx_it.c **** /*           Cortex-M4 Processor Interruption and Exception Handlers          */
  77:../STM32CUBEMX/Core/Src/stm32f4xx_it.c **** /******************************************************************************/
  78:../STM32CUBEMX/Core/Src/stm32f4xx_it.c **** /**
  79:../STM32CUBEMX/Core/Src/stm32f4xx_it.c ****   * @brief This function handles Non maskable interrupt.
  80:../STM32CUBEMX/Core/Src/stm32f4xx_it.c ****   */
  81:../STM32CUBEMX/Core/Src/stm32f4xx_it.c **** void NMI_Handler(void)
  82:../STM32CUBEMX/Core/Src/stm32f4xx_it.c **** {
  29              		.loc 1 82 1 view -0
  30              		.cfi_startproc
  31              		@ Volatile: function does not return.
  32              		@ args = 0, pretend = 0, frame = 0
  33              		@ frame_needed = 0, uses_anonymous_args = 0
ARM GAS  C:\Users\ysl\AppData\Local\Temp\ccZawjpV.s 			page 3


  34              		@ link register save eliminated.
  35              	.L2:
  83:../STM32CUBEMX/Core/Src/stm32f4xx_it.c ****   /* USER CODE BEGIN NonMaskableInt_IRQn 0 */
  84:../STM32CUBEMX/Core/Src/stm32f4xx_it.c **** 
  85:../STM32CUBEMX/Core/Src/stm32f4xx_it.c ****   /* USER CODE END NonMaskableInt_IRQn 0 */
  86:../STM32CUBEMX/Core/Src/stm32f4xx_it.c ****   /* USER CODE BEGIN NonMaskableInt_IRQn 1 */
  87:../STM32CUBEMX/Core/Src/stm32f4xx_it.c ****   while (1)
  36              		.loc 1 87 3 discriminator 1 view .LVU1
  88:../STM32CUBEMX/Core/Src/stm32f4xx_it.c ****   {
  89:../STM32CUBEMX/Core/Src/stm32f4xx_it.c ****   }
  37              		.loc 1 89 3 discriminator 1 view .LVU2
  87:../STM32CUBEMX/Core/Src/stm32f4xx_it.c ****   {
  38              		.loc 1 87 9 discriminator 1 view .LVU3
  39 0000 FEE7     		b	.L2
  40              		.cfi_endproc
  41              	.LFE235:
  43              		.section	.text.HardFault_Handler,"ax",%progbits
  44              		.align	1
  45              		.global	HardFault_Handler
  46              		.syntax unified
  47              		.thumb
  48              		.thumb_func
  50              	HardFault_Handler:
  51              	.LFB236:
  90:../STM32CUBEMX/Core/Src/stm32f4xx_it.c ****   /* USER CODE END NonMaskableInt_IRQn 1 */
  91:../STM32CUBEMX/Core/Src/stm32f4xx_it.c **** }
  92:../STM32CUBEMX/Core/Src/stm32f4xx_it.c **** 
  93:../STM32CUBEMX/Core/Src/stm32f4xx_it.c **** /**
  94:../STM32CUBEMX/Core/Src/stm32f4xx_it.c ****   * @brief This function handles Hard fault interrupt.
  95:../STM32CUBEMX/Core/Src/stm32f4xx_it.c ****   */
  96:../STM32CUBEMX/Core/Src/stm32f4xx_it.c **** void HardFault_Handler(void)
  97:../STM32CUBEMX/Core/Src/stm32f4xx_it.c **** {
  52              		.loc 1 97 1 view -0
  53              		.cfi_startproc
  54              		@ Volatile: function does not return.
  55              		@ args = 0, pretend = 0, frame = 0
  56              		@ frame_needed = 0, uses_anonymous_args = 0
  57              		@ link register save eliminated.
  58              	.L4:
  98:../STM32CUBEMX/Core/Src/stm32f4xx_it.c ****   /* USER CODE BEGIN HardFault_IRQn 0 */
  99:../STM32CUBEMX/Core/Src/stm32f4xx_it.c **** 
 100:../STM32CUBEMX/Core/Src/stm32f4xx_it.c ****   /* USER CODE END HardFault_IRQn 0 */
 101:../STM32CUBEMX/Core/Src/stm32f4xx_it.c ****   while (1)
  59              		.loc 1 101 3 discriminator 1 view .LVU5
 102:../STM32CUBEMX/Core/Src/stm32f4xx_it.c ****   {
 103:../STM32CUBEMX/Core/Src/stm32f4xx_it.c ****     /* USER CODE BEGIN W1_HardFault_IRQn 0 */
 104:../STM32CUBEMX/Core/Src/stm32f4xx_it.c ****     /* USER CODE END W1_HardFault_IRQn 0 */
 105:../STM32CUBEMX/Core/Src/stm32f4xx_it.c ****   }
  60              		.loc 1 105 3 discriminator 1 view .LVU6
 101:../STM32CUBEMX/Core/Src/stm32f4xx_it.c ****   {
  61              		.loc 1 101 9 discriminator 1 view .LVU7
  62 0000 FEE7     		b	.L4
  63              		.cfi_endproc
  64              	.LFE236:
  66              		.section	.text.MemManage_Handler,"ax",%progbits
  67              		.align	1
  68              		.global	MemManage_Handler
ARM GAS  C:\Users\ysl\AppData\Local\Temp\ccZawjpV.s 			page 4


  69              		.syntax unified
  70              		.thumb
  71              		.thumb_func
  73              	MemManage_Handler:
  74              	.LFB237:
 106:../STM32CUBEMX/Core/Src/stm32f4xx_it.c **** }
 107:../STM32CUBEMX/Core/Src/stm32f4xx_it.c **** 
 108:../STM32CUBEMX/Core/Src/stm32f4xx_it.c **** /**
 109:../STM32CUBEMX/Core/Src/stm32f4xx_it.c ****   * @brief This function handles Memory management fault.
 110:../STM32CUBEMX/Core/Src/stm32f4xx_it.c ****   */
 111:../STM32CUBEMX/Core/Src/stm32f4xx_it.c **** void MemManage_Handler(void)
 112:../STM32CUBEMX/Core/Src/stm32f4xx_it.c **** {
  75              		.loc 1 112 1 view -0
  76              		.cfi_startproc
  77              		@ Volatile: function does not return.
  78              		@ args = 0, pretend = 0, frame = 0
  79              		@ frame_needed = 0, uses_anonymous_args = 0
  80              		@ link register save eliminated.
  81              	.L6:
 113:../STM32CUBEMX/Core/Src/stm32f4xx_it.c ****   /* USER CODE BEGIN MemoryManagement_IRQn 0 */
 114:../STM32CUBEMX/Core/Src/stm32f4xx_it.c **** 
 115:../STM32CUBEMX/Core/Src/stm32f4xx_it.c ****   /* USER CODE END MemoryManagement_IRQn 0 */
 116:../STM32CUBEMX/Core/Src/stm32f4xx_it.c ****   while (1)
  82              		.loc 1 116 3 discriminator 1 view .LVU9
 117:../STM32CUBEMX/Core/Src/stm32f4xx_it.c ****   {
 118:../STM32CUBEMX/Core/Src/stm32f4xx_it.c ****     /* USER CODE BEGIN W1_MemoryManagement_IRQn 0 */
 119:../STM32CUBEMX/Core/Src/stm32f4xx_it.c ****     /* USER CODE END W1_MemoryManagement_IRQn 0 */
 120:../STM32CUBEMX/Core/Src/stm32f4xx_it.c ****   }
  83              		.loc 1 120 3 discriminator 1 view .LVU10
 116:../STM32CUBEMX/Core/Src/stm32f4xx_it.c ****   {
  84              		.loc 1 116 9 discriminator 1 view .LVU11
  85 0000 FEE7     		b	.L6
  86              		.cfi_endproc
  87              	.LFE237:
  89              		.section	.text.BusFault_Handler,"ax",%progbits
  90              		.align	1
  91              		.global	BusFault_Handler
  92              		.syntax unified
  93              		.thumb
  94              		.thumb_func
  96              	BusFault_Handler:
  97              	.LFB238:
 121:../STM32CUBEMX/Core/Src/stm32f4xx_it.c **** }
 122:../STM32CUBEMX/Core/Src/stm32f4xx_it.c **** 
 123:../STM32CUBEMX/Core/Src/stm32f4xx_it.c **** /**
 124:../STM32CUBEMX/Core/Src/stm32f4xx_it.c ****   * @brief This function handles Pre-fetch fault, memory access fault.
 125:../STM32CUBEMX/Core/Src/stm32f4xx_it.c ****   */
 126:../STM32CUBEMX/Core/Src/stm32f4xx_it.c **** void BusFault_Handler(void)
 127:../STM32CUBEMX/Core/Src/stm32f4xx_it.c **** {
  98              		.loc 1 127 1 view -0
  99              		.cfi_startproc
 100              		@ Volatile: function does not return.
 101              		@ args = 0, pretend = 0, frame = 0
 102              		@ frame_needed = 0, uses_anonymous_args = 0
 103              		@ link register save eliminated.
 104              	.L8:
 128:../STM32CUBEMX/Core/Src/stm32f4xx_it.c ****   /* USER CODE BEGIN BusFault_IRQn 0 */
ARM GAS  C:\Users\ysl\AppData\Local\Temp\ccZawjpV.s 			page 5


 129:../STM32CUBEMX/Core/Src/stm32f4xx_it.c **** 
 130:../STM32CUBEMX/Core/Src/stm32f4xx_it.c ****   /* USER CODE END BusFault_IRQn 0 */
 131:../STM32CUBEMX/Core/Src/stm32f4xx_it.c ****   while (1)
 105              		.loc 1 131 3 discriminator 1 view .LVU13
 132:../STM32CUBEMX/Core/Src/stm32f4xx_it.c ****   {
 133:../STM32CUBEMX/Core/Src/stm32f4xx_it.c ****     /* USER CODE BEGIN W1_BusFault_IRQn 0 */
 134:../STM32CUBEMX/Core/Src/stm32f4xx_it.c ****     /* USER CODE END W1_BusFault_IRQn 0 */
 135:../STM32CUBEMX/Core/Src/stm32f4xx_it.c ****   }
 106              		.loc 1 135 3 discriminator 1 view .LVU14
 131:../STM32CUBEMX/Core/Src/stm32f4xx_it.c ****   {
 107              		.loc 1 131 9 discriminator 1 view .LVU15
 108 0000 FEE7     		b	.L8
 109              		.cfi_endproc
 110              	.LFE238:
 112              		.section	.text.UsageFault_Handler,"ax",%progbits
 113              		.align	1
 114              		.global	UsageFault_Handler
 115              		.syntax unified
 116              		.thumb
 117              		.thumb_func
 119              	UsageFault_Handler:
 120              	.LFB239:
 136:../STM32CUBEMX/Core/Src/stm32f4xx_it.c **** }
 137:../STM32CUBEMX/Core/Src/stm32f4xx_it.c **** 
 138:../STM32CUBEMX/Core/Src/stm32f4xx_it.c **** /**
 139:../STM32CUBEMX/Core/Src/stm32f4xx_it.c ****   * @brief This function handles Undefined instruction or illegal state.
 140:../STM32CUBEMX/Core/Src/stm32f4xx_it.c ****   */
 141:../STM32CUBEMX/Core/Src/stm32f4xx_it.c **** void UsageFault_Handler(void)
 142:../STM32CUBEMX/Core/Src/stm32f4xx_it.c **** {
 121              		.loc 1 142 1 view -0
 122              		.cfi_startproc
 123              		@ Volatile: function does not return.
 124              		@ args = 0, pretend = 0, frame = 0
 125              		@ frame_needed = 0, uses_anonymous_args = 0
 126              		@ link register save eliminated.
 127              	.L10:
 143:../STM32CUBEMX/Core/Src/stm32f4xx_it.c ****   /* USER CODE BEGIN UsageFault_IRQn 0 */
 144:../STM32CUBEMX/Core/Src/stm32f4xx_it.c **** 
 145:../STM32CUBEMX/Core/Src/stm32f4xx_it.c ****   /* USER CODE END UsageFault_IRQn 0 */
 146:../STM32CUBEMX/Core/Src/stm32f4xx_it.c ****   while (1)
 128              		.loc 1 146 3 discriminator 1 view .LVU17
 147:../STM32CUBEMX/Core/Src/stm32f4xx_it.c ****   {
 148:../STM32CUBEMX/Core/Src/stm32f4xx_it.c ****     /* USER CODE BEGIN W1_UsageFault_IRQn 0 */
 149:../STM32CUBEMX/Core/Src/stm32f4xx_it.c ****     /* USER CODE END W1_UsageFault_IRQn 0 */
 150:../STM32CUBEMX/Core/Src/stm32f4xx_it.c ****   }
 129              		.loc 1 150 3 discriminator 1 view .LVU18
 146:../STM32CUBEMX/Core/Src/stm32f4xx_it.c ****   {
 130              		.loc 1 146 9 discriminator 1 view .LVU19
 131 0000 FEE7     		b	.L10
 132              		.cfi_endproc
 133              	.LFE239:
 135              		.section	.text.SVC_Handler,"ax",%progbits
 136              		.align	1
 137              		.global	SVC_Handler
 138              		.syntax unified
 139              		.thumb
 140              		.thumb_func
ARM GAS  C:\Users\ysl\AppData\Local\Temp\ccZawjpV.s 			page 6


 142              	SVC_Handler:
 143              	.LFB240:
 151:../STM32CUBEMX/Core/Src/stm32f4xx_it.c **** }
 152:../STM32CUBEMX/Core/Src/stm32f4xx_it.c **** 
 153:../STM32CUBEMX/Core/Src/stm32f4xx_it.c **** /**
 154:../STM32CUBEMX/Core/Src/stm32f4xx_it.c ****   * @brief This function handles System service call via SWI instruction.
 155:../STM32CUBEMX/Core/Src/stm32f4xx_it.c ****   */
 156:../STM32CUBEMX/Core/Src/stm32f4xx_it.c **** void SVC_Handler(void)
 157:../STM32CUBEMX/Core/Src/stm32f4xx_it.c **** {
 144              		.loc 1 157 1 view -0
 145              		.cfi_startproc
 146              		@ args = 0, pretend = 0, frame = 0
 147              		@ frame_needed = 0, uses_anonymous_args = 0
 148              		@ link register save eliminated.
 158:../STM32CUBEMX/Core/Src/stm32f4xx_it.c ****   /* USER CODE BEGIN SVCall_IRQn 0 */
 159:../STM32CUBEMX/Core/Src/stm32f4xx_it.c **** 
 160:../STM32CUBEMX/Core/Src/stm32f4xx_it.c ****   /* USER CODE END SVCall_IRQn 0 */
 161:../STM32CUBEMX/Core/Src/stm32f4xx_it.c ****   /* USER CODE BEGIN SVCall_IRQn 1 */
 162:../STM32CUBEMX/Core/Src/stm32f4xx_it.c **** 
 163:../STM32CUBEMX/Core/Src/stm32f4xx_it.c ****   /* USER CODE END SVCall_IRQn 1 */
 164:../STM32CUBEMX/Core/Src/stm32f4xx_it.c **** }
 149              		.loc 1 164 1 view .LVU21
 150 0000 7047     		bx	lr
 151              		.cfi_endproc
 152              	.LFE240:
 154              		.section	.text.DebugMon_Handler,"ax",%progbits
 155              		.align	1
 156              		.global	DebugMon_Handler
 157              		.syntax unified
 158              		.thumb
 159              		.thumb_func
 161              	DebugMon_Handler:
 162              	.LFB241:
 165:../STM32CUBEMX/Core/Src/stm32f4xx_it.c **** 
 166:../STM32CUBEMX/Core/Src/stm32f4xx_it.c **** /**
 167:../STM32CUBEMX/Core/Src/stm32f4xx_it.c ****   * @brief This function handles Debug monitor.
 168:../STM32CUBEMX/Core/Src/stm32f4xx_it.c ****   */
 169:../STM32CUBEMX/Core/Src/stm32f4xx_it.c **** void DebugMon_Handler(void)
 170:../STM32CUBEMX/Core/Src/stm32f4xx_it.c **** {
 163              		.loc 1 170 1 view -0
 164              		.cfi_startproc
 165              		@ args = 0, pretend = 0, frame = 0
 166              		@ frame_needed = 0, uses_anonymous_args = 0
 167              		@ link register save eliminated.
 171:../STM32CUBEMX/Core/Src/stm32f4xx_it.c ****   /* USER CODE BEGIN DebugMonitor_IRQn 0 */
 172:../STM32CUBEMX/Core/Src/stm32f4xx_it.c **** 
 173:../STM32CUBEMX/Core/Src/stm32f4xx_it.c ****   /* USER CODE END DebugMonitor_IRQn 0 */
 174:../STM32CUBEMX/Core/Src/stm32f4xx_it.c ****   /* USER CODE BEGIN DebugMonitor_IRQn 1 */
 175:../STM32CUBEMX/Core/Src/stm32f4xx_it.c **** 
 176:../STM32CUBEMX/Core/Src/stm32f4xx_it.c ****   /* USER CODE END DebugMonitor_IRQn 1 */
 177:../STM32CUBEMX/Core/Src/stm32f4xx_it.c **** }
 168              		.loc 1 177 1 view .LVU23
 169 0000 7047     		bx	lr
 170              		.cfi_endproc
 171              	.LFE241:
 173              		.section	.text.PendSV_Handler,"ax",%progbits
 174              		.align	1
ARM GAS  C:\Users\ysl\AppData\Local\Temp\ccZawjpV.s 			page 7


 175              		.global	PendSV_Handler
 176              		.syntax unified
 177              		.thumb
 178              		.thumb_func
 180              	PendSV_Handler:
 181              	.LFB242:
 178:../STM32CUBEMX/Core/Src/stm32f4xx_it.c **** 
 179:../STM32CUBEMX/Core/Src/stm32f4xx_it.c **** /**
 180:../STM32CUBEMX/Core/Src/stm32f4xx_it.c ****   * @brief This function handles Pendable request for system service.
 181:../STM32CUBEMX/Core/Src/stm32f4xx_it.c ****   */
 182:../STM32CUBEMX/Core/Src/stm32f4xx_it.c **** void PendSV_Handler(void)
 183:../STM32CUBEMX/Core/Src/stm32f4xx_it.c **** {
 182              		.loc 1 183 1 view -0
 183              		.cfi_startproc
 184              		@ args = 0, pretend = 0, frame = 0
 185              		@ frame_needed = 0, uses_anonymous_args = 0
 186              		@ link register save eliminated.
 184:../STM32CUBEMX/Core/Src/stm32f4xx_it.c ****   /* USER CODE BEGIN PendSV_IRQn 0 */
 185:../STM32CUBEMX/Core/Src/stm32f4xx_it.c **** 
 186:../STM32CUBEMX/Core/Src/stm32f4xx_it.c ****   /* USER CODE END PendSV_IRQn 0 */
 187:../STM32CUBEMX/Core/Src/stm32f4xx_it.c ****   /* USER CODE BEGIN PendSV_IRQn 1 */
 188:../STM32CUBEMX/Core/Src/stm32f4xx_it.c **** 
 189:../STM32CUBEMX/Core/Src/stm32f4xx_it.c ****   /* USER CODE END PendSV_IRQn 1 */
 190:../STM32CUBEMX/Core/Src/stm32f4xx_it.c **** }
 187              		.loc 1 190 1 view .LVU25
 188 0000 7047     		bx	lr
 189              		.cfi_endproc
 190              	.LFE242:
 192              		.section	.text.SysTick_Handler,"ax",%progbits
 193              		.align	1
 194              		.global	SysTick_Handler
 195              		.syntax unified
 196              		.thumb
 197              		.thumb_func
 199              	SysTick_Handler:
 200              	.LFB243:
 191:../STM32CUBEMX/Core/Src/stm32f4xx_it.c **** 
 192:../STM32CUBEMX/Core/Src/stm32f4xx_it.c **** /**
 193:../STM32CUBEMX/Core/Src/stm32f4xx_it.c ****   * @brief This function handles System tick timer.
 194:../STM32CUBEMX/Core/Src/stm32f4xx_it.c ****   */
 195:../STM32CUBEMX/Core/Src/stm32f4xx_it.c **** void SysTick_Handler(void)
 196:../STM32CUBEMX/Core/Src/stm32f4xx_it.c **** {
 201              		.loc 1 196 1 view -0
 202              		.cfi_startproc
 203              		@ args = 0, pretend = 0, frame = 0
 204              		@ frame_needed = 0, uses_anonymous_args = 0
 205 0000 08B5     		push	{r3, lr}
 206              	.LCFI0:
 207              		.cfi_def_cfa_offset 8
 208              		.cfi_offset 3, -8
 209              		.cfi_offset 14, -4
 197:../STM32CUBEMX/Core/Src/stm32f4xx_it.c ****   /* USER CODE BEGIN SysTick_IRQn 0 */
 198:../STM32CUBEMX/Core/Src/stm32f4xx_it.c **** 
 199:../STM32CUBEMX/Core/Src/stm32f4xx_it.c ****   /* USER CODE END SysTick_IRQn 0 */
 200:../STM32CUBEMX/Core/Src/stm32f4xx_it.c ****   HAL_IncTick();
 210              		.loc 1 200 3 view .LVU27
 211 0002 FFF7FEFF 		bl	HAL_IncTick
ARM GAS  C:\Users\ysl\AppData\Local\Temp\ccZawjpV.s 			page 8


 212              	.LVL0:
 201:../STM32CUBEMX/Core/Src/stm32f4xx_it.c ****   /* USER CODE BEGIN SysTick_IRQn 1 */
 202:../STM32CUBEMX/Core/Src/stm32f4xx_it.c **** 
 203:../STM32CUBEMX/Core/Src/stm32f4xx_it.c ****   /* USER CODE END SysTick_IRQn 1 */
 204:../STM32CUBEMX/Core/Src/stm32f4xx_it.c **** }
 213              		.loc 1 204 1 is_stmt 0 view .LVU28
 214 0006 08BD     		pop	{r3, pc}
 215              		.cfi_endproc
 216              	.LFE243:
 218              		.section	.text.DMA1_Stream0_IRQHandler,"ax",%progbits
 219              		.align	1
 220              		.global	DMA1_Stream0_IRQHandler
 221              		.syntax unified
 222              		.thumb
 223              		.thumb_func
 225              	DMA1_Stream0_IRQHandler:
 226              	.LFB244:
 205:../STM32CUBEMX/Core/Src/stm32f4xx_it.c **** 
 206:../STM32CUBEMX/Core/Src/stm32f4xx_it.c **** /******************************************************************************/
 207:../STM32CUBEMX/Core/Src/stm32f4xx_it.c **** /* STM32F4xx Peripheral Interrupt Handlers                                    */
 208:../STM32CUBEMX/Core/Src/stm32f4xx_it.c **** /* Add here the Interrupt Handlers for the used peripherals.                  */
 209:../STM32CUBEMX/Core/Src/stm32f4xx_it.c **** /* For the available peripheral interrupt handler names,                      */
 210:../STM32CUBEMX/Core/Src/stm32f4xx_it.c **** /* please refer to the startup file (startup_stm32f4xx.s).                    */
 211:../STM32CUBEMX/Core/Src/stm32f4xx_it.c **** /******************************************************************************/
 212:../STM32CUBEMX/Core/Src/stm32f4xx_it.c **** 
 213:../STM32CUBEMX/Core/Src/stm32f4xx_it.c **** /**
 214:../STM32CUBEMX/Core/Src/stm32f4xx_it.c ****   * @brief This function handles DMA1 stream0 global interrupt.
 215:../STM32CUBEMX/Core/Src/stm32f4xx_it.c ****   */
 216:../STM32CUBEMX/Core/Src/stm32f4xx_it.c **** void DMA1_Stream0_IRQHandler(void)
 217:../STM32CUBEMX/Core/Src/stm32f4xx_it.c **** {
 227              		.loc 1 217 1 is_stmt 1 view -0
 228              		.cfi_startproc
 229              		@ args = 0, pretend = 0, frame = 0
 230              		@ frame_needed = 0, uses_anonymous_args = 0
 231 0000 08B5     		push	{r3, lr}
 232              	.LCFI1:
 233              		.cfi_def_cfa_offset 8
 234              		.cfi_offset 3, -8
 235              		.cfi_offset 14, -4
 218:../STM32CUBEMX/Core/Src/stm32f4xx_it.c ****   /* USER CODE BEGIN DMA1_Stream0_IRQn 0 */
 219:../STM32CUBEMX/Core/Src/stm32f4xx_it.c **** 
 220:../STM32CUBEMX/Core/Src/stm32f4xx_it.c ****   /* USER CODE END DMA1_Stream0_IRQn 0 */
 221:../STM32CUBEMX/Core/Src/stm32f4xx_it.c ****   HAL_DMA_IRQHandler(&hdma_tim4_ch1);
 236              		.loc 1 221 3 view .LVU30
 237 0002 0248     		ldr	r0, .L18
 238 0004 FFF7FEFF 		bl	HAL_DMA_IRQHandler
 239              	.LVL1:
 222:../STM32CUBEMX/Core/Src/stm32f4xx_it.c ****   /* USER CODE BEGIN DMA1_Stream0_IRQn 1 */
 223:../STM32CUBEMX/Core/Src/stm32f4xx_it.c **** 
 224:../STM32CUBEMX/Core/Src/stm32f4xx_it.c ****   /* USER CODE END DMA1_Stream0_IRQn 1 */
 225:../STM32CUBEMX/Core/Src/stm32f4xx_it.c **** }
 240              		.loc 1 225 1 is_stmt 0 view .LVU31
 241 0008 08BD     		pop	{r3, pc}
 242              	.L19:
 243 000a 00BF     		.align	2
 244              	.L18:
 245 000c 00000000 		.word	hdma_tim4_ch1
ARM GAS  C:\Users\ysl\AppData\Local\Temp\ccZawjpV.s 			page 9


 246              		.cfi_endproc
 247              	.LFE244:
 249              		.section	.text.DMA1_Stream1_IRQHandler,"ax",%progbits
 250              		.align	1
 251              		.global	DMA1_Stream1_IRQHandler
 252              		.syntax unified
 253              		.thumb
 254              		.thumb_func
 256              	DMA1_Stream1_IRQHandler:
 257              	.LFB245:
 226:../STM32CUBEMX/Core/Src/stm32f4xx_it.c **** 
 227:../STM32CUBEMX/Core/Src/stm32f4xx_it.c **** /**
 228:../STM32CUBEMX/Core/Src/stm32f4xx_it.c ****   * @brief This function handles DMA1 stream1 global interrupt.
 229:../STM32CUBEMX/Core/Src/stm32f4xx_it.c ****   */
 230:../STM32CUBEMX/Core/Src/stm32f4xx_it.c **** void DMA1_Stream1_IRQHandler(void)
 231:../STM32CUBEMX/Core/Src/stm32f4xx_it.c **** {
 258              		.loc 1 231 1 is_stmt 1 view -0
 259              		.cfi_startproc
 260              		@ args = 0, pretend = 0, frame = 0
 261              		@ frame_needed = 0, uses_anonymous_args = 0
 262 0000 08B5     		push	{r3, lr}
 263              	.LCFI2:
 264              		.cfi_def_cfa_offset 8
 265              		.cfi_offset 3, -8
 266              		.cfi_offset 14, -4
 232:../STM32CUBEMX/Core/Src/stm32f4xx_it.c ****   /* USER CODE BEGIN DMA1_Stream1_IRQn 0 */
 233:../STM32CUBEMX/Core/Src/stm32f4xx_it.c **** 
 234:../STM32CUBEMX/Core/Src/stm32f4xx_it.c ****   /* USER CODE END DMA1_Stream1_IRQn 0 */
 235:../STM32CUBEMX/Core/Src/stm32f4xx_it.c ****   HAL_DMA_IRQHandler(&hdma_usart3_rx);
 267              		.loc 1 235 3 view .LVU33
 268 0002 0248     		ldr	r0, .L22
 269 0004 FFF7FEFF 		bl	HAL_DMA_IRQHandler
 270              	.LVL2:
 236:../STM32CUBEMX/Core/Src/stm32f4xx_it.c ****   /* USER CODE BEGIN DMA1_Stream1_IRQn 1 */
 237:../STM32CUBEMX/Core/Src/stm32f4xx_it.c **** 
 238:../STM32CUBEMX/Core/Src/stm32f4xx_it.c ****   /* USER CODE END DMA1_Stream1_IRQn 1 */
 239:../STM32CUBEMX/Core/Src/stm32f4xx_it.c **** }
 271              		.loc 1 239 1 is_stmt 0 view .LVU34
 272 0008 08BD     		pop	{r3, pc}
 273              	.L23:
 274 000a 00BF     		.align	2
 275              	.L22:
 276 000c 00000000 		.word	hdma_usart3_rx
 277              		.cfi_endproc
 278              	.LFE245:
 280              		.section	.text.DMA1_Stream2_IRQHandler,"ax",%progbits
 281              		.align	1
 282              		.global	DMA1_Stream2_IRQHandler
 283              		.syntax unified
 284              		.thumb
 285              		.thumb_func
 287              	DMA1_Stream2_IRQHandler:
 288              	.LFB246:
 240:../STM32CUBEMX/Core/Src/stm32f4xx_it.c **** 
 241:../STM32CUBEMX/Core/Src/stm32f4xx_it.c **** /**
 242:../STM32CUBEMX/Core/Src/stm32f4xx_it.c ****   * @brief This function handles DMA1 stream2 global interrupt.
 243:../STM32CUBEMX/Core/Src/stm32f4xx_it.c ****   */
ARM GAS  C:\Users\ysl\AppData\Local\Temp\ccZawjpV.s 			page 10


 244:../STM32CUBEMX/Core/Src/stm32f4xx_it.c **** void DMA1_Stream2_IRQHandler(void)
 245:../STM32CUBEMX/Core/Src/stm32f4xx_it.c **** {
 289              		.loc 1 245 1 is_stmt 1 view -0
 290              		.cfi_startproc
 291              		@ args = 0, pretend = 0, frame = 0
 292              		@ frame_needed = 0, uses_anonymous_args = 0
 293 0000 08B5     		push	{r3, lr}
 294              	.LCFI3:
 295              		.cfi_def_cfa_offset 8
 296              		.cfi_offset 3, -8
 297              		.cfi_offset 14, -4
 246:../STM32CUBEMX/Core/Src/stm32f4xx_it.c ****   /* USER CODE BEGIN DMA1_Stream2_IRQn 0 */
 247:../STM32CUBEMX/Core/Src/stm32f4xx_it.c **** 
 248:../STM32CUBEMX/Core/Src/stm32f4xx_it.c ****   /* USER CODE END DMA1_Stream2_IRQn 0 */
 249:../STM32CUBEMX/Core/Src/stm32f4xx_it.c ****   HAL_DMA_IRQHandler(&hdma_uart4_rx);
 298              		.loc 1 249 3 view .LVU36
 299 0002 0248     		ldr	r0, .L26
 300 0004 FFF7FEFF 		bl	HAL_DMA_IRQHandler
 301              	.LVL3:
 250:../STM32CUBEMX/Core/Src/stm32f4xx_it.c ****   /* USER CODE BEGIN DMA1_Stream2_IRQn 1 */
 251:../STM32CUBEMX/Core/Src/stm32f4xx_it.c **** 
 252:../STM32CUBEMX/Core/Src/stm32f4xx_it.c ****   /* USER CODE END DMA1_Stream2_IRQn 1 */
 253:../STM32CUBEMX/Core/Src/stm32f4xx_it.c **** }
 302              		.loc 1 253 1 is_stmt 0 view .LVU37
 303 0008 08BD     		pop	{r3, pc}
 304              	.L27:
 305 000a 00BF     		.align	2
 306              	.L26:
 307 000c 00000000 		.word	hdma_uart4_rx
 308              		.cfi_endproc
 309              	.LFE246:
 311              		.section	.text.DMA1_Stream3_IRQHandler,"ax",%progbits
 312              		.align	1
 313              		.global	DMA1_Stream3_IRQHandler
 314              		.syntax unified
 315              		.thumb
 316              		.thumb_func
 318              	DMA1_Stream3_IRQHandler:
 319              	.LFB247:
 254:../STM32CUBEMX/Core/Src/stm32f4xx_it.c **** 
 255:../STM32CUBEMX/Core/Src/stm32f4xx_it.c **** /**
 256:../STM32CUBEMX/Core/Src/stm32f4xx_it.c ****   * @brief This function handles DMA1 stream3 global interrupt.
 257:../STM32CUBEMX/Core/Src/stm32f4xx_it.c ****   */
 258:../STM32CUBEMX/Core/Src/stm32f4xx_it.c **** void DMA1_Stream3_IRQHandler(void)
 259:../STM32CUBEMX/Core/Src/stm32f4xx_it.c **** {
 320              		.loc 1 259 1 is_stmt 1 view -0
 321              		.cfi_startproc
 322              		@ args = 0, pretend = 0, frame = 0
 323              		@ frame_needed = 0, uses_anonymous_args = 0
 324 0000 08B5     		push	{r3, lr}
 325              	.LCFI4:
 326              		.cfi_def_cfa_offset 8
 327              		.cfi_offset 3, -8
 328              		.cfi_offset 14, -4
 260:../STM32CUBEMX/Core/Src/stm32f4xx_it.c ****   /* USER CODE BEGIN DMA1_Stream3_IRQn 0 */
 261:../STM32CUBEMX/Core/Src/stm32f4xx_it.c **** 
 262:../STM32CUBEMX/Core/Src/stm32f4xx_it.c ****   /* USER CODE END DMA1_Stream3_IRQn 0 */
ARM GAS  C:\Users\ysl\AppData\Local\Temp\ccZawjpV.s 			page 11


 263:../STM32CUBEMX/Core/Src/stm32f4xx_it.c ****   HAL_DMA_IRQHandler(&hdma_tim4_ch2);
 329              		.loc 1 263 3 view .LVU39
 330 0002 0248     		ldr	r0, .L30
 331 0004 FFF7FEFF 		bl	HAL_DMA_IRQHandler
 332              	.LVL4:
 264:../STM32CUBEMX/Core/Src/stm32f4xx_it.c ****   /* USER CODE BEGIN DMA1_Stream3_IRQn 1 */
 265:../STM32CUBEMX/Core/Src/stm32f4xx_it.c **** 
 266:../STM32CUBEMX/Core/Src/stm32f4xx_it.c ****   /* USER CODE END DMA1_Stream3_IRQn 1 */
 267:../STM32CUBEMX/Core/Src/stm32f4xx_it.c **** }
 333              		.loc 1 267 1 is_stmt 0 view .LVU40
 334 0008 08BD     		pop	{r3, pc}
 335              	.L31:
 336 000a 00BF     		.align	2
 337              	.L30:
 338 000c 00000000 		.word	hdma_tim4_ch2
 339              		.cfi_endproc
 340              	.LFE247:
 342              		.section	.text.DMA1_Stream4_IRQHandler,"ax",%progbits
 343              		.align	1
 344              		.global	DMA1_Stream4_IRQHandler
 345              		.syntax unified
 346              		.thumb
 347              		.thumb_func
 349              	DMA1_Stream4_IRQHandler:
 350              	.LFB248:
 268:../STM32CUBEMX/Core/Src/stm32f4xx_it.c **** 
 269:../STM32CUBEMX/Core/Src/stm32f4xx_it.c **** /**
 270:../STM32CUBEMX/Core/Src/stm32f4xx_it.c ****   * @brief This function handles DMA1 stream4 global interrupt.
 271:../STM32CUBEMX/Core/Src/stm32f4xx_it.c ****   */
 272:../STM32CUBEMX/Core/Src/stm32f4xx_it.c **** void DMA1_Stream4_IRQHandler(void)
 273:../STM32CUBEMX/Core/Src/stm32f4xx_it.c **** {
 351              		.loc 1 273 1 is_stmt 1 view -0
 352              		.cfi_startproc
 353              		@ args = 0, pretend = 0, frame = 0
 354              		@ frame_needed = 0, uses_anonymous_args = 0
 355 0000 08B5     		push	{r3, lr}
 356              	.LCFI5:
 357              		.cfi_def_cfa_offset 8
 358              		.cfi_offset 3, -8
 359              		.cfi_offset 14, -4
 274:../STM32CUBEMX/Core/Src/stm32f4xx_it.c ****   /* USER CODE BEGIN DMA1_Stream4_IRQn 0 */
 275:../STM32CUBEMX/Core/Src/stm32f4xx_it.c **** 
 276:../STM32CUBEMX/Core/Src/stm32f4xx_it.c ****   /* USER CODE END DMA1_Stream4_IRQn 0 */
 277:../STM32CUBEMX/Core/Src/stm32f4xx_it.c ****   HAL_DMA_IRQHandler(&hdma_uart4_tx);
 360              		.loc 1 277 3 view .LVU42
 361 0002 0248     		ldr	r0, .L34
 362 0004 FFF7FEFF 		bl	HAL_DMA_IRQHandler
 363              	.LVL5:
 278:../STM32CUBEMX/Core/Src/stm32f4xx_it.c ****   /* USER CODE BEGIN DMA1_Stream4_IRQn 1 */
 279:../STM32CUBEMX/Core/Src/stm32f4xx_it.c **** 
 280:../STM32CUBEMX/Core/Src/stm32f4xx_it.c ****   /* USER CODE END DMA1_Stream4_IRQn 1 */
 281:../STM32CUBEMX/Core/Src/stm32f4xx_it.c **** }
 364              		.loc 1 281 1 is_stmt 0 view .LVU43
 365 0008 08BD     		pop	{r3, pc}
 366              	.L35:
 367 000a 00BF     		.align	2
 368              	.L34:
ARM GAS  C:\Users\ysl\AppData\Local\Temp\ccZawjpV.s 			page 12


 369 000c 00000000 		.word	hdma_uart4_tx
 370              		.cfi_endproc
 371              	.LFE248:
 373              		.section	.text.USART1_IRQHandler,"ax",%progbits
 374              		.align	1
 375              		.global	USART1_IRQHandler
 376              		.syntax unified
 377              		.thumb
 378              		.thumb_func
 380              	USART1_IRQHandler:
 381              	.LFB249:
 282:../STM32CUBEMX/Core/Src/stm32f4xx_it.c **** 
 283:../STM32CUBEMX/Core/Src/stm32f4xx_it.c **** /**
 284:../STM32CUBEMX/Core/Src/stm32f4xx_it.c ****   * @brief This function handles USART1 global interrupt.
 285:../STM32CUBEMX/Core/Src/stm32f4xx_it.c ****   */
 286:../STM32CUBEMX/Core/Src/stm32f4xx_it.c **** void USART1_IRQHandler(void)
 287:../STM32CUBEMX/Core/Src/stm32f4xx_it.c **** {
 382              		.loc 1 287 1 is_stmt 1 view -0
 383              		.cfi_startproc
 384              		@ args = 0, pretend = 0, frame = 0
 385              		@ frame_needed = 0, uses_anonymous_args = 0
 386 0000 10B5     		push	{r4, lr}
 387              	.LCFI6:
 388              		.cfi_def_cfa_offset 8
 389              		.cfi_offset 4, -8
 390              		.cfi_offset 14, -4
 288:../STM32CUBEMX/Core/Src/stm32f4xx_it.c ****   /* USER CODE BEGIN USART1_IRQn 0 */
 289:../STM32CUBEMX/Core/Src/stm32f4xx_it.c **** 
 290:../STM32CUBEMX/Core/Src/stm32f4xx_it.c ****   /* USER CODE END USART1_IRQn 0 */
 291:../STM32CUBEMX/Core/Src/stm32f4xx_it.c ****   HAL_UART_IRQHandler(&huart1);
 391              		.loc 1 291 3 view .LVU45
 392 0002 044C     		ldr	r4, .L38
 393 0004 2046     		mov	r0, r4
 394 0006 FFF7FEFF 		bl	HAL_UART_IRQHandler
 395              	.LVL6:
 292:../STM32CUBEMX/Core/Src/stm32f4xx_it.c ****   /* USER CODE BEGIN USART1_IRQn 1 */
 293:../STM32CUBEMX/Core/Src/stm32f4xx_it.c ****   USER_UART_RxIdleCallback(&huart1);
 396              		.loc 1 293 3 view .LVU46
 397 000a 2046     		mov	r0, r4
 398 000c FFF7FEFF 		bl	USER_UART_RxIdleCallback
 399              	.LVL7:
 294:../STM32CUBEMX/Core/Src/stm32f4xx_it.c ****   /* USER CODE END USART1_IRQn 1 */
 295:../STM32CUBEMX/Core/Src/stm32f4xx_it.c **** }
 400              		.loc 1 295 1 is_stmt 0 view .LVU47
 401 0010 10BD     		pop	{r4, pc}
 402              	.L39:
 403 0012 00BF     		.align	2
 404              	.L38:
 405 0014 00000000 		.word	huart1
 406              		.cfi_endproc
 407              	.LFE249:
 409              		.section	.text.USART3_IRQHandler,"ax",%progbits
 410              		.align	1
 411              		.global	USART3_IRQHandler
 412              		.syntax unified
 413              		.thumb
 414              		.thumb_func
ARM GAS  C:\Users\ysl\AppData\Local\Temp\ccZawjpV.s 			page 13


 416              	USART3_IRQHandler:
 417              	.LFB250:
 296:../STM32CUBEMX/Core/Src/stm32f4xx_it.c **** 
 297:../STM32CUBEMX/Core/Src/stm32f4xx_it.c **** /**
 298:../STM32CUBEMX/Core/Src/stm32f4xx_it.c ****   * @brief This function handles USART3 global interrupt.
 299:../STM32CUBEMX/Core/Src/stm32f4xx_it.c ****   */
 300:../STM32CUBEMX/Core/Src/stm32f4xx_it.c **** void USART3_IRQHandler(void)
 301:../STM32CUBEMX/Core/Src/stm32f4xx_it.c **** {
 418              		.loc 1 301 1 is_stmt 1 view -0
 419              		.cfi_startproc
 420              		@ args = 0, pretend = 0, frame = 0
 421              		@ frame_needed = 0, uses_anonymous_args = 0
 422 0000 10B5     		push	{r4, lr}
 423              	.LCFI7:
 424              		.cfi_def_cfa_offset 8
 425              		.cfi_offset 4, -8
 426              		.cfi_offset 14, -4
 302:../STM32CUBEMX/Core/Src/stm32f4xx_it.c ****   /* USER CODE BEGIN USART3_IRQn 0 */
 303:../STM32CUBEMX/Core/Src/stm32f4xx_it.c **** 
 304:../STM32CUBEMX/Core/Src/stm32f4xx_it.c ****   /* USER CODE END USART3_IRQn 0 */
 305:../STM32CUBEMX/Core/Src/stm32f4xx_it.c ****   HAL_UART_IRQHandler(&huart3);
 427              		.loc 1 305 3 view .LVU49
 428 0002 044C     		ldr	r4, .L42
 429 0004 2046     		mov	r0, r4
 430 0006 FFF7FEFF 		bl	HAL_UART_IRQHandler
 431              	.LVL8:
 306:../STM32CUBEMX/Core/Src/stm32f4xx_it.c ****   /* USER CODE BEGIN USART3_IRQn 1 */
 307:../STM32CUBEMX/Core/Src/stm32f4xx_it.c ****   USER_UART_RxIdleCallback(&huart3);
 432              		.loc 1 307 3 view .LVU50
 433 000a 2046     		mov	r0, r4
 434 000c FFF7FEFF 		bl	USER_UART_RxIdleCallback
 435              	.LVL9:
 308:../STM32CUBEMX/Core/Src/stm32f4xx_it.c ****   /* USER CODE END USART3_IRQn 1 */
 309:../STM32CUBEMX/Core/Src/stm32f4xx_it.c **** }
 436              		.loc 1 309 1 is_stmt 0 view .LVU51
 437 0010 10BD     		pop	{r4, pc}
 438              	.L43:
 439 0012 00BF     		.align	2
 440              	.L42:
 441 0014 00000000 		.word	huart3
 442              		.cfi_endproc
 443              	.LFE250:
 445              		.section	.text.UART4_IRQHandler,"ax",%progbits
 446              		.align	1
 447              		.global	UART4_IRQHandler
 448              		.syntax unified
 449              		.thumb
 450              		.thumb_func
 452              	UART4_IRQHandler:
 453              	.LFB251:
 310:../STM32CUBEMX/Core/Src/stm32f4xx_it.c **** 
 311:../STM32CUBEMX/Core/Src/stm32f4xx_it.c **** /**
 312:../STM32CUBEMX/Core/Src/stm32f4xx_it.c ****   * @brief This function handles UART4 global interrupt.
 313:../STM32CUBEMX/Core/Src/stm32f4xx_it.c ****   */
 314:../STM32CUBEMX/Core/Src/stm32f4xx_it.c **** void UART4_IRQHandler(void)
 315:../STM32CUBEMX/Core/Src/stm32f4xx_it.c **** {
 454              		.loc 1 315 1 is_stmt 1 view -0
ARM GAS  C:\Users\ysl\AppData\Local\Temp\ccZawjpV.s 			page 14


 455              		.cfi_startproc
 456              		@ args = 0, pretend = 0, frame = 0
 457              		@ frame_needed = 0, uses_anonymous_args = 0
 458 0000 10B5     		push	{r4, lr}
 459              	.LCFI8:
 460              		.cfi_def_cfa_offset 8
 461              		.cfi_offset 4, -8
 462              		.cfi_offset 14, -4
 316:../STM32CUBEMX/Core/Src/stm32f4xx_it.c ****   /* USER CODE BEGIN UART4_IRQn 0 */
 317:../STM32CUBEMX/Core/Src/stm32f4xx_it.c **** 
 318:../STM32CUBEMX/Core/Src/stm32f4xx_it.c ****   /* USER CODE END UART4_IRQn 0 */
 319:../STM32CUBEMX/Core/Src/stm32f4xx_it.c ****   HAL_UART_IRQHandler(&huart4);
 463              		.loc 1 319 3 view .LVU53
 464 0002 044C     		ldr	r4, .L46
 465 0004 2046     		mov	r0, r4
 466 0006 FFF7FEFF 		bl	HAL_UART_IRQHandler
 467              	.LVL10:
 320:../STM32CUBEMX/Core/Src/stm32f4xx_it.c ****   /* USER CODE BEGIN UART4_IRQn 1 */
 321:../STM32CUBEMX/Core/Src/stm32f4xx_it.c ****   USER_UART_RxIdleCallback(&huart4);
 468              		.loc 1 321 3 view .LVU54
 469 000a 2046     		mov	r0, r4
 470 000c FFF7FEFF 		bl	USER_UART_RxIdleCallback
 471              	.LVL11:
 322:../STM32CUBEMX/Core/Src/stm32f4xx_it.c ****   /* USER CODE END UART4_IRQn 1 */
 323:../STM32CUBEMX/Core/Src/stm32f4xx_it.c **** }
 472              		.loc 1 323 1 is_stmt 0 view .LVU55
 473 0010 10BD     		pop	{r4, pc}
 474              	.L47:
 475 0012 00BF     		.align	2
 476              	.L46:
 477 0014 00000000 		.word	huart4
 478              		.cfi_endproc
 479              	.LFE251:
 481              		.section	.text.TIM7_IRQHandler,"ax",%progbits
 482              		.align	1
 483              		.global	TIM7_IRQHandler
 484              		.syntax unified
 485              		.thumb
 486              		.thumb_func
 488              	TIM7_IRQHandler:
 489              	.LFB252:
 324:../STM32CUBEMX/Core/Src/stm32f4xx_it.c **** 
 325:../STM32CUBEMX/Core/Src/stm32f4xx_it.c **** /**
 326:../STM32CUBEMX/Core/Src/stm32f4xx_it.c ****   * @brief This function handles TIM7 global interrupt.
 327:../STM32CUBEMX/Core/Src/stm32f4xx_it.c ****   */
 328:../STM32CUBEMX/Core/Src/stm32f4xx_it.c **** void TIM7_IRQHandler(void)
 329:../STM32CUBEMX/Core/Src/stm32f4xx_it.c **** {
 490              		.loc 1 329 1 is_stmt 1 view -0
 491              		.cfi_startproc
 492              		@ args = 0, pretend = 0, frame = 0
 493              		@ frame_needed = 0, uses_anonymous_args = 0
 494 0000 08B5     		push	{r3, lr}
 495              	.LCFI9:
 496              		.cfi_def_cfa_offset 8
 497              		.cfi_offset 3, -8
 498              		.cfi_offset 14, -4
 330:../STM32CUBEMX/Core/Src/stm32f4xx_it.c ****   /* USER CODE BEGIN TIM7_IRQn 0 */
ARM GAS  C:\Users\ysl\AppData\Local\Temp\ccZawjpV.s 			page 15


 331:../STM32CUBEMX/Core/Src/stm32f4xx_it.c **** 
 332:../STM32CUBEMX/Core/Src/stm32f4xx_it.c ****   /* USER CODE END TIM7_IRQn 0 */
 333:../STM32CUBEMX/Core/Src/stm32f4xx_it.c ****   HAL_TIM_IRQHandler(&htim7);
 499              		.loc 1 333 3 view .LVU57
 500 0002 0248     		ldr	r0, .L50
 501 0004 FFF7FEFF 		bl	HAL_TIM_IRQHandler
 502              	.LVL12:
 334:../STM32CUBEMX/Core/Src/stm32f4xx_it.c ****   /* USER CODE BEGIN TIM7_IRQn 1 */
 335:../STM32CUBEMX/Core/Src/stm32f4xx_it.c **** 
 336:../STM32CUBEMX/Core/Src/stm32f4xx_it.c ****   /* USER CODE END TIM7_IRQn 1 */
 337:../STM32CUBEMX/Core/Src/stm32f4xx_it.c **** }
 503              		.loc 1 337 1 is_stmt 0 view .LVU58
 504 0008 08BD     		pop	{r3, pc}
 505              	.L51:
 506 000a 00BF     		.align	2
 507              	.L50:
 508 000c 00000000 		.word	htim7
 509              		.cfi_endproc
 510              	.LFE252:
 512              		.section	.text.DMA2_Stream0_IRQHandler,"ax",%progbits
 513              		.align	1
 514              		.global	DMA2_Stream0_IRQHandler
 515              		.syntax unified
 516              		.thumb
 517              		.thumb_func
 519              	DMA2_Stream0_IRQHandler:
 520              	.LFB253:
 338:../STM32CUBEMX/Core/Src/stm32f4xx_it.c **** 
 339:../STM32CUBEMX/Core/Src/stm32f4xx_it.c **** /**
 340:../STM32CUBEMX/Core/Src/stm32f4xx_it.c ****   * @brief This function handles DMA2 stream0 global interrupt.
 341:../STM32CUBEMX/Core/Src/stm32f4xx_it.c ****   */
 342:../STM32CUBEMX/Core/Src/stm32f4xx_it.c **** void DMA2_Stream0_IRQHandler(void)
 343:../STM32CUBEMX/Core/Src/stm32f4xx_it.c **** {
 521              		.loc 1 343 1 is_stmt 1 view -0
 522              		.cfi_startproc
 523              		@ args = 0, pretend = 0, frame = 0
 524              		@ frame_needed = 0, uses_anonymous_args = 0
 525 0000 08B5     		push	{r3, lr}
 526              	.LCFI10:
 527              		.cfi_def_cfa_offset 8
 528              		.cfi_offset 3, -8
 529              		.cfi_offset 14, -4
 344:../STM32CUBEMX/Core/Src/stm32f4xx_it.c ****   /* USER CODE BEGIN DMA2_Stream0_IRQn 0 */
 345:../STM32CUBEMX/Core/Src/stm32f4xx_it.c **** 
 346:../STM32CUBEMX/Core/Src/stm32f4xx_it.c ****   /* USER CODE END DMA2_Stream0_IRQn 0 */
 347:../STM32CUBEMX/Core/Src/stm32f4xx_it.c ****   HAL_DMA_IRQHandler(&hdma_adc1);
 530              		.loc 1 347 3 view .LVU60
 531 0002 0248     		ldr	r0, .L54
 532 0004 FFF7FEFF 		bl	HAL_DMA_IRQHandler
 533              	.LVL13:
 348:../STM32CUBEMX/Core/Src/stm32f4xx_it.c ****   /* USER CODE BEGIN DMA2_Stream0_IRQn 1 */
 349:../STM32CUBEMX/Core/Src/stm32f4xx_it.c **** 
 350:../STM32CUBEMX/Core/Src/stm32f4xx_it.c ****   /* USER CODE END DMA2_Stream0_IRQn 1 */
 351:../STM32CUBEMX/Core/Src/stm32f4xx_it.c **** }
 534              		.loc 1 351 1 is_stmt 0 view .LVU61
 535 0008 08BD     		pop	{r3, pc}
 536              	.L55:
ARM GAS  C:\Users\ysl\AppData\Local\Temp\ccZawjpV.s 			page 16


 537 000a 00BF     		.align	2
 538              	.L54:
 539 000c 00000000 		.word	hdma_adc1
 540              		.cfi_endproc
 541              	.LFE253:
 543              		.section	.text.DMA2_Stream2_IRQHandler,"ax",%progbits
 544              		.align	1
 545              		.global	DMA2_Stream2_IRQHandler
 546              		.syntax unified
 547              		.thumb
 548              		.thumb_func
 550              	DMA2_Stream2_IRQHandler:
 551              	.LFB254:
 352:../STM32CUBEMX/Core/Src/stm32f4xx_it.c **** 
 353:../STM32CUBEMX/Core/Src/stm32f4xx_it.c **** /**
 354:../STM32CUBEMX/Core/Src/stm32f4xx_it.c ****   * @brief This function handles DMA2 stream2 global interrupt.
 355:../STM32CUBEMX/Core/Src/stm32f4xx_it.c ****   */
 356:../STM32CUBEMX/Core/Src/stm32f4xx_it.c **** void DMA2_Stream2_IRQHandler(void)
 357:../STM32CUBEMX/Core/Src/stm32f4xx_it.c **** {
 552              		.loc 1 357 1 is_stmt 1 view -0
 553              		.cfi_startproc
 554              		@ args = 0, pretend = 0, frame = 0
 555              		@ frame_needed = 0, uses_anonymous_args = 0
 556 0000 08B5     		push	{r3, lr}
 557              	.LCFI11:
 558              		.cfi_def_cfa_offset 8
 559              		.cfi_offset 3, -8
 560              		.cfi_offset 14, -4
 358:../STM32CUBEMX/Core/Src/stm32f4xx_it.c ****   /* USER CODE BEGIN DMA2_Stream2_IRQn 0 */
 359:../STM32CUBEMX/Core/Src/stm32f4xx_it.c **** 
 360:../STM32CUBEMX/Core/Src/stm32f4xx_it.c ****   /* USER CODE END DMA2_Stream2_IRQn 0 */
 361:../STM32CUBEMX/Core/Src/stm32f4xx_it.c ****   HAL_DMA_IRQHandler(&hdma_adc2);
 561              		.loc 1 361 3 view .LVU63
 562 0002 0248     		ldr	r0, .L58
 563 0004 FFF7FEFF 		bl	HAL_DMA_IRQHandler
 564              	.LVL14:
 362:../STM32CUBEMX/Core/Src/stm32f4xx_it.c ****   /* USER CODE BEGIN DMA2_Stream2_IRQn 1 */
 363:../STM32CUBEMX/Core/Src/stm32f4xx_it.c **** 
 364:../STM32CUBEMX/Core/Src/stm32f4xx_it.c ****   /* USER CODE END DMA2_Stream2_IRQn 1 */
 365:../STM32CUBEMX/Core/Src/stm32f4xx_it.c **** }
 565              		.loc 1 365 1 is_stmt 0 view .LVU64
 566 0008 08BD     		pop	{r3, pc}
 567              	.L59:
 568 000a 00BF     		.align	2
 569              	.L58:
 570 000c 00000000 		.word	hdma_adc2
 571              		.cfi_endproc
 572              	.LFE254:
 574              		.section	.text.DMA2_Stream5_IRQHandler,"ax",%progbits
 575              		.align	1
 576              		.global	DMA2_Stream5_IRQHandler
 577              		.syntax unified
 578              		.thumb
 579              		.thumb_func
 581              	DMA2_Stream5_IRQHandler:
 582              	.LFB255:
 366:../STM32CUBEMX/Core/Src/stm32f4xx_it.c **** 
ARM GAS  C:\Users\ysl\AppData\Local\Temp\ccZawjpV.s 			page 17


 367:../STM32CUBEMX/Core/Src/stm32f4xx_it.c **** /**
 368:../STM32CUBEMX/Core/Src/stm32f4xx_it.c ****   * @brief This function handles DMA2 stream5 global interrupt.
 369:../STM32CUBEMX/Core/Src/stm32f4xx_it.c ****   */
 370:../STM32CUBEMX/Core/Src/stm32f4xx_it.c **** void DMA2_Stream5_IRQHandler(void)
 371:../STM32CUBEMX/Core/Src/stm32f4xx_it.c **** {
 583              		.loc 1 371 1 is_stmt 1 view -0
 584              		.cfi_startproc
 585              		@ args = 0, pretend = 0, frame = 0
 586              		@ frame_needed = 0, uses_anonymous_args = 0
 587 0000 08B5     		push	{r3, lr}
 588              	.LCFI12:
 589              		.cfi_def_cfa_offset 8
 590              		.cfi_offset 3, -8
 591              		.cfi_offset 14, -4
 372:../STM32CUBEMX/Core/Src/stm32f4xx_it.c ****   /* USER CODE BEGIN DMA2_Stream5_IRQn 0 */
 373:../STM32CUBEMX/Core/Src/stm32f4xx_it.c **** 
 374:../STM32CUBEMX/Core/Src/stm32f4xx_it.c ****   /* USER CODE END DMA2_Stream5_IRQn 0 */
 375:../STM32CUBEMX/Core/Src/stm32f4xx_it.c ****   HAL_DMA_IRQHandler(&hdma_usart1_rx);
 592              		.loc 1 375 3 view .LVU66
 593 0002 0248     		ldr	r0, .L62
 594 0004 FFF7FEFF 		bl	HAL_DMA_IRQHandler
 595              	.LVL15:
 376:../STM32CUBEMX/Core/Src/stm32f4xx_it.c ****   /* USER CODE BEGIN DMA2_Stream5_IRQn 1 */
 377:../STM32CUBEMX/Core/Src/stm32f4xx_it.c **** 
 378:../STM32CUBEMX/Core/Src/stm32f4xx_it.c ****   /* USER CODE END DMA2_Stream5_IRQn 1 */
 379:../STM32CUBEMX/Core/Src/stm32f4xx_it.c **** }
 596              		.loc 1 379 1 is_stmt 0 view .LVU67
 597 0008 08BD     		pop	{r3, pc}
 598              	.L63:
 599 000a 00BF     		.align	2
 600              	.L62:
 601 000c 00000000 		.word	hdma_usart1_rx
 602              		.cfi_endproc
 603              	.LFE255:
 605              		.section	.text.DMA2_Stream7_IRQHandler,"ax",%progbits
 606              		.align	1
 607              		.global	DMA2_Stream7_IRQHandler
 608              		.syntax unified
 609              		.thumb
 610              		.thumb_func
 612              	DMA2_Stream7_IRQHandler:
 613              	.LFB256:
 380:../STM32CUBEMX/Core/Src/stm32f4xx_it.c **** 
 381:../STM32CUBEMX/Core/Src/stm32f4xx_it.c **** /**
 382:../STM32CUBEMX/Core/Src/stm32f4xx_it.c ****   * @brief This function handles DMA2 stream7 global interrupt.
 383:../STM32CUBEMX/Core/Src/stm32f4xx_it.c ****   */
 384:../STM32CUBEMX/Core/Src/stm32f4xx_it.c **** void DMA2_Stream7_IRQHandler(void)
 385:../STM32CUBEMX/Core/Src/stm32f4xx_it.c **** {
 614              		.loc 1 385 1 is_stmt 1 view -0
 615              		.cfi_startproc
 616              		@ args = 0, pretend = 0, frame = 0
 617              		@ frame_needed = 0, uses_anonymous_args = 0
 618 0000 08B5     		push	{r3, lr}
 619              	.LCFI13:
 620              		.cfi_def_cfa_offset 8
 621              		.cfi_offset 3, -8
 622              		.cfi_offset 14, -4
ARM GAS  C:\Users\ysl\AppData\Local\Temp\ccZawjpV.s 			page 18


 386:../STM32CUBEMX/Core/Src/stm32f4xx_it.c ****   /* USER CODE BEGIN DMA2_Stream7_IRQn 0 */
 387:../STM32CUBEMX/Core/Src/stm32f4xx_it.c **** 
 388:../STM32CUBEMX/Core/Src/stm32f4xx_it.c ****   /* USER CODE END DMA2_Stream7_IRQn 0 */
 389:../STM32CUBEMX/Core/Src/stm32f4xx_it.c ****   HAL_DMA_IRQHandler(&hdma_usart1_tx);
 623              		.loc 1 389 3 view .LVU69
 624 0002 0248     		ldr	r0, .L66
 625 0004 FFF7FEFF 		bl	HAL_DMA_IRQHandler
 626              	.LVL16:
 390:../STM32CUBEMX/Core/Src/stm32f4xx_it.c ****   /* USER CODE BEGIN DMA2_Stream7_IRQn 1 */
 391:../STM32CUBEMX/Core/Src/stm32f4xx_it.c **** 
 392:../STM32CUBEMX/Core/Src/stm32f4xx_it.c ****   /* USER CODE END DMA2_Stream7_IRQn 1 */
 393:../STM32CUBEMX/Core/Src/stm32f4xx_it.c **** }
 627              		.loc 1 393 1 is_stmt 0 view .LVU70
 628 0008 08BD     		pop	{r3, pc}
 629              	.L67:
 630 000a 00BF     		.align	2
 631              	.L66:
 632 000c 00000000 		.word	hdma_usart1_tx
 633              		.cfi_endproc
 634              	.LFE256:
 636              		.text
 637              	.Letext0:
 638              		.file 2 "c:\\program files (x86)\\arm gnu toolchain arm-none-eabi\\11.2 2022.02\\arm-none-eabi\\in
 639              		.file 3 "c:\\program files (x86)\\arm gnu toolchain arm-none-eabi\\11.2 2022.02\\arm-none-eabi\\in
 640              		.file 4 "../STM32CUBEMX/Drivers/CMSIS/Device/ST/STM32F4xx/Include/stm32f405xx.h"
 641              		.file 5 "../STM32CUBEMX/Drivers/STM32F4xx_HAL_Driver/Inc/stm32f4xx_hal_def.h"
 642              		.file 6 "../STM32CUBEMX/Drivers/STM32F4xx_HAL_Driver/Inc/stm32f4xx_hal_dma.h"
 643              		.file 7 "../STM32CUBEMX/Drivers/STM32F4xx_HAL_Driver/Inc/stm32f4xx_hal_tim.h"
 644              		.file 8 "../STM32CUBEMX/Drivers/STM32F4xx_HAL_Driver/Inc/stm32f4xx_hal_uart.h"
 645              		.file 9 "../STM32CUBEMX/Drivers/STM32F4xx_HAL_Driver/Inc/stm32f4xx_hal.h"
ARM GAS  C:\Users\ysl\AppData\Local\Temp\ccZawjpV.s 			page 19

