ARM GAS  C:\Users\ysl\AppData\Local\Temp\ccRy7Oyd.s 			page 1


   1              		.cpu cortex-m4
   2              		.arch armv7e-m
   3              		.fpu fpv4-sp-d16
   4              		.eabi_attribute 27, 1
   5              		.eabi_attribute 28, 1
   6              		.eabi_attribute 20, 1
   7              		.eabi_attribute 21, 1
   8              		.eabi_attribute 23, 3
   9              		.eabi_attribute 24, 1
  10              		.eabi_attribute 25, 1
  11              		.eabi_attribute 26, 1
  12              		.eabi_attribute 30, 1
  13              		.eabi_attribute 34, 1
  14              		.eabi_attribute 18, 4
  15              		.file	"stm32f4xx_hal_adc_ex.c"
  16              		.text
  17              	.Ltext0:
  18              		.cfi_sections	.debug_frame
  19              		.section	.text.ADC_MultiModeDMAError,"ax",%progbits
  20              		.align	1
  21              		.syntax unified
  22              		.thumb
  23              		.thumb_func
  25              	ADC_MultiModeDMAError:
  26              	.LVL0:
  27              	.LFB249:
  28              		.file 1 "../STM32CUBEMX/Drivers/STM32F4xx_HAL_Driver/Src/stm32f4xx_hal_adc_ex.c"
   1:../STM32CUBEMX/Drivers/STM32F4xx_HAL_Driver/Src/stm32f4xx_hal_adc_ex.c **** /**
   2:../STM32CUBEMX/Drivers/STM32F4xx_HAL_Driver/Src/stm32f4xx_hal_adc_ex.c ****   ******************************************************************************
   3:../STM32CUBEMX/Drivers/STM32F4xx_HAL_Driver/Src/stm32f4xx_hal_adc_ex.c ****   * @file    stm32f4xx_hal_adc_ex.c
   4:../STM32CUBEMX/Drivers/STM32F4xx_HAL_Driver/Src/stm32f4xx_hal_adc_ex.c ****   * @author  MCD Application Team
   5:../STM32CUBEMX/Drivers/STM32F4xx_HAL_Driver/Src/stm32f4xx_hal_adc_ex.c ****   * @brief   This file provides firmware functions to manage the following
   6:../STM32CUBEMX/Drivers/STM32F4xx_HAL_Driver/Src/stm32f4xx_hal_adc_ex.c ****   *          functionalities of the ADC extension peripheral:
   7:../STM32CUBEMX/Drivers/STM32F4xx_HAL_Driver/Src/stm32f4xx_hal_adc_ex.c ****   *           + Extended features functions
   8:../STM32CUBEMX/Drivers/STM32F4xx_HAL_Driver/Src/stm32f4xx_hal_adc_ex.c ****   *
   9:../STM32CUBEMX/Drivers/STM32F4xx_HAL_Driver/Src/stm32f4xx_hal_adc_ex.c ****   ******************************************************************************
  10:../STM32CUBEMX/Drivers/STM32F4xx_HAL_Driver/Src/stm32f4xx_hal_adc_ex.c ****   * @attention
  11:../STM32CUBEMX/Drivers/STM32F4xx_HAL_Driver/Src/stm32f4xx_hal_adc_ex.c ****   *
  12:../STM32CUBEMX/Drivers/STM32F4xx_HAL_Driver/Src/stm32f4xx_hal_adc_ex.c ****   * Copyright (c) 2017 STMicroelectronics.
  13:../STM32CUBEMX/Drivers/STM32F4xx_HAL_Driver/Src/stm32f4xx_hal_adc_ex.c ****   * All rights reserved.
  14:../STM32CUBEMX/Drivers/STM32F4xx_HAL_Driver/Src/stm32f4xx_hal_adc_ex.c ****   *
  15:../STM32CUBEMX/Drivers/STM32F4xx_HAL_Driver/Src/stm32f4xx_hal_adc_ex.c ****   * This software is licensed under terms that can be found in the LICENSE file
  16:../STM32CUBEMX/Drivers/STM32F4xx_HAL_Driver/Src/stm32f4xx_hal_adc_ex.c ****   * in the root directory of this software component.
  17:../STM32CUBEMX/Drivers/STM32F4xx_HAL_Driver/Src/stm32f4xx_hal_adc_ex.c ****   * If no LICENSE file comes with this software, it is provided AS-IS.
  18:../STM32CUBEMX/Drivers/STM32F4xx_HAL_Driver/Src/stm32f4xx_hal_adc_ex.c ****   *
  19:../STM32CUBEMX/Drivers/STM32F4xx_HAL_Driver/Src/stm32f4xx_hal_adc_ex.c ****   ******************************************************************************
  20:../STM32CUBEMX/Drivers/STM32F4xx_HAL_Driver/Src/stm32f4xx_hal_adc_ex.c ****   @verbatim
  21:../STM32CUBEMX/Drivers/STM32F4xx_HAL_Driver/Src/stm32f4xx_hal_adc_ex.c ****   ==============================================================================
  22:../STM32CUBEMX/Drivers/STM32F4xx_HAL_Driver/Src/stm32f4xx_hal_adc_ex.c ****                     ##### How to use this driver #####
  23:../STM32CUBEMX/Drivers/STM32F4xx_HAL_Driver/Src/stm32f4xx_hal_adc_ex.c ****   ==============================================================================
  24:../STM32CUBEMX/Drivers/STM32F4xx_HAL_Driver/Src/stm32f4xx_hal_adc_ex.c ****     [..]
  25:../STM32CUBEMX/Drivers/STM32F4xx_HAL_Driver/Src/stm32f4xx_hal_adc_ex.c ****     (#)Initialize the ADC low level resources by implementing the HAL_ADC_MspInit():
  26:../STM32CUBEMX/Drivers/STM32F4xx_HAL_Driver/Src/stm32f4xx_hal_adc_ex.c ****        (##) Enable the ADC interface clock using __HAL_RCC_ADC_CLK_ENABLE()
  27:../STM32CUBEMX/Drivers/STM32F4xx_HAL_Driver/Src/stm32f4xx_hal_adc_ex.c ****        (##) ADC pins configuration
  28:../STM32CUBEMX/Drivers/STM32F4xx_HAL_Driver/Src/stm32f4xx_hal_adc_ex.c ****              (+++) Enable the clock for the ADC GPIOs using the following function:
  29:../STM32CUBEMX/Drivers/STM32F4xx_HAL_Driver/Src/stm32f4xx_hal_adc_ex.c ****                    __HAL_RCC_GPIOx_CLK_ENABLE()
  30:../STM32CUBEMX/Drivers/STM32F4xx_HAL_Driver/Src/stm32f4xx_hal_adc_ex.c ****              (+++) Configure these ADC pins in analog mode using HAL_GPIO_Init()
ARM GAS  C:\Users\ysl\AppData\Local\Temp\ccRy7Oyd.s 			page 2


  31:../STM32CUBEMX/Drivers/STM32F4xx_HAL_Driver/Src/stm32f4xx_hal_adc_ex.c ****        (##) In case of using interrupts (e.g. HAL_ADC_Start_IT())
  32:../STM32CUBEMX/Drivers/STM32F4xx_HAL_Driver/Src/stm32f4xx_hal_adc_ex.c ****              (+++) Configure the ADC interrupt priority using HAL_NVIC_SetPriority()
  33:../STM32CUBEMX/Drivers/STM32F4xx_HAL_Driver/Src/stm32f4xx_hal_adc_ex.c ****              (+++) Enable the ADC IRQ handler using HAL_NVIC_EnableIRQ()
  34:../STM32CUBEMX/Drivers/STM32F4xx_HAL_Driver/Src/stm32f4xx_hal_adc_ex.c ****              (+++) In ADC IRQ handler, call HAL_ADC_IRQHandler()
  35:../STM32CUBEMX/Drivers/STM32F4xx_HAL_Driver/Src/stm32f4xx_hal_adc_ex.c ****       (##) In case of using DMA to control data transfer (e.g. HAL_ADC_Start_DMA())
  36:../STM32CUBEMX/Drivers/STM32F4xx_HAL_Driver/Src/stm32f4xx_hal_adc_ex.c ****              (+++) Enable the DMAx interface clock using __HAL_RCC_DMAx_CLK_ENABLE()
  37:../STM32CUBEMX/Drivers/STM32F4xx_HAL_Driver/Src/stm32f4xx_hal_adc_ex.c ****              (+++) Configure and enable two DMA streams stream for managing data
  38:../STM32CUBEMX/Drivers/STM32F4xx_HAL_Driver/Src/stm32f4xx_hal_adc_ex.c ****                  transfer from peripheral to memory (output stream)
  39:../STM32CUBEMX/Drivers/STM32F4xx_HAL_Driver/Src/stm32f4xx_hal_adc_ex.c ****              (+++) Associate the initialized DMA handle to the ADC DMA handle
  40:../STM32CUBEMX/Drivers/STM32F4xx_HAL_Driver/Src/stm32f4xx_hal_adc_ex.c ****                  using  __HAL_LINKDMA()
  41:../STM32CUBEMX/Drivers/STM32F4xx_HAL_Driver/Src/stm32f4xx_hal_adc_ex.c ****              (+++) Configure the priority and enable the NVIC for the transfer complete
  42:../STM32CUBEMX/Drivers/STM32F4xx_HAL_Driver/Src/stm32f4xx_hal_adc_ex.c ****                  interrupt on the two DMA Streams. The output stream should have higher
  43:../STM32CUBEMX/Drivers/STM32F4xx_HAL_Driver/Src/stm32f4xx_hal_adc_ex.c ****                  priority than the input stream.
  44:../STM32CUBEMX/Drivers/STM32F4xx_HAL_Driver/Src/stm32f4xx_hal_adc_ex.c ****      (#) Configure the ADC Prescaler, conversion resolution and data alignment
  45:../STM32CUBEMX/Drivers/STM32F4xx_HAL_Driver/Src/stm32f4xx_hal_adc_ex.c ****          using the HAL_ADC_Init() function.
  46:../STM32CUBEMX/Drivers/STM32F4xx_HAL_Driver/Src/stm32f4xx_hal_adc_ex.c **** 
  47:../STM32CUBEMX/Drivers/STM32F4xx_HAL_Driver/Src/stm32f4xx_hal_adc_ex.c ****      (#) Configure the ADC Injected channels group features, use HAL_ADC_Init()
  48:../STM32CUBEMX/Drivers/STM32F4xx_HAL_Driver/Src/stm32f4xx_hal_adc_ex.c ****          and HAL_ADC_ConfigChannel() functions.
  49:../STM32CUBEMX/Drivers/STM32F4xx_HAL_Driver/Src/stm32f4xx_hal_adc_ex.c **** 
  50:../STM32CUBEMX/Drivers/STM32F4xx_HAL_Driver/Src/stm32f4xx_hal_adc_ex.c ****      (#) Three operation modes are available within this driver:
  51:../STM32CUBEMX/Drivers/STM32F4xx_HAL_Driver/Src/stm32f4xx_hal_adc_ex.c **** 
  52:../STM32CUBEMX/Drivers/STM32F4xx_HAL_Driver/Src/stm32f4xx_hal_adc_ex.c ****      *** Polling mode IO operation ***
  53:../STM32CUBEMX/Drivers/STM32F4xx_HAL_Driver/Src/stm32f4xx_hal_adc_ex.c ****      =================================
  54:../STM32CUBEMX/Drivers/STM32F4xx_HAL_Driver/Src/stm32f4xx_hal_adc_ex.c ****      [..]
  55:../STM32CUBEMX/Drivers/STM32F4xx_HAL_Driver/Src/stm32f4xx_hal_adc_ex.c ****        (+) Start the ADC peripheral using HAL_ADCEx_InjectedStart()
  56:../STM32CUBEMX/Drivers/STM32F4xx_HAL_Driver/Src/stm32f4xx_hal_adc_ex.c ****        (+) Wait for end of conversion using HAL_ADC_PollForConversion(), at this stage
  57:../STM32CUBEMX/Drivers/STM32F4xx_HAL_Driver/Src/stm32f4xx_hal_adc_ex.c ****            user can specify the value of timeout according to his end application
  58:../STM32CUBEMX/Drivers/STM32F4xx_HAL_Driver/Src/stm32f4xx_hal_adc_ex.c ****        (+) To read the ADC converted values, use the HAL_ADCEx_InjectedGetValue() function.
  59:../STM32CUBEMX/Drivers/STM32F4xx_HAL_Driver/Src/stm32f4xx_hal_adc_ex.c ****        (+) Stop the ADC peripheral using HAL_ADCEx_InjectedStop()
  60:../STM32CUBEMX/Drivers/STM32F4xx_HAL_Driver/Src/stm32f4xx_hal_adc_ex.c **** 
  61:../STM32CUBEMX/Drivers/STM32F4xx_HAL_Driver/Src/stm32f4xx_hal_adc_ex.c ****      *** Interrupt mode IO operation ***
  62:../STM32CUBEMX/Drivers/STM32F4xx_HAL_Driver/Src/stm32f4xx_hal_adc_ex.c ****      ===================================
  63:../STM32CUBEMX/Drivers/STM32F4xx_HAL_Driver/Src/stm32f4xx_hal_adc_ex.c ****      [..]
  64:../STM32CUBEMX/Drivers/STM32F4xx_HAL_Driver/Src/stm32f4xx_hal_adc_ex.c ****        (+) Start the ADC peripheral using HAL_ADCEx_InjectedStart_IT()
  65:../STM32CUBEMX/Drivers/STM32F4xx_HAL_Driver/Src/stm32f4xx_hal_adc_ex.c ****        (+) Use HAL_ADC_IRQHandler() called under ADC_IRQHandler() Interrupt subroutine
  66:../STM32CUBEMX/Drivers/STM32F4xx_HAL_Driver/Src/stm32f4xx_hal_adc_ex.c ****        (+) At ADC end of conversion HAL_ADCEx_InjectedConvCpltCallback() function is executed and u
  67:../STM32CUBEMX/Drivers/STM32F4xx_HAL_Driver/Src/stm32f4xx_hal_adc_ex.c ****             add his own code by customization of function pointer HAL_ADCEx_InjectedConvCpltCallbac
  68:../STM32CUBEMX/Drivers/STM32F4xx_HAL_Driver/Src/stm32f4xx_hal_adc_ex.c ****        (+) In case of ADC Error, HAL_ADCEx_InjectedErrorCallback() function is executed and user ca
  69:../STM32CUBEMX/Drivers/STM32F4xx_HAL_Driver/Src/stm32f4xx_hal_adc_ex.c ****             add his own code by customization of function pointer HAL_ADCEx_InjectedErrorCallback
  70:../STM32CUBEMX/Drivers/STM32F4xx_HAL_Driver/Src/stm32f4xx_hal_adc_ex.c ****        (+) Stop the ADC peripheral using HAL_ADCEx_InjectedStop_IT()
  71:../STM32CUBEMX/Drivers/STM32F4xx_HAL_Driver/Src/stm32f4xx_hal_adc_ex.c **** 
  72:../STM32CUBEMX/Drivers/STM32F4xx_HAL_Driver/Src/stm32f4xx_hal_adc_ex.c ****      *** Multi mode ADCs Regular channels configuration ***
  73:../STM32CUBEMX/Drivers/STM32F4xx_HAL_Driver/Src/stm32f4xx_hal_adc_ex.c ****      ======================================================
  74:../STM32CUBEMX/Drivers/STM32F4xx_HAL_Driver/Src/stm32f4xx_hal_adc_ex.c ****      [..]
  75:../STM32CUBEMX/Drivers/STM32F4xx_HAL_Driver/Src/stm32f4xx_hal_adc_ex.c ****        (+) Select the Multi mode ADC regular channels features (dual or triple mode)
  76:../STM32CUBEMX/Drivers/STM32F4xx_HAL_Driver/Src/stm32f4xx_hal_adc_ex.c ****           and configure the DMA mode using HAL_ADCEx_MultiModeConfigChannel() functions.
  77:../STM32CUBEMX/Drivers/STM32F4xx_HAL_Driver/Src/stm32f4xx_hal_adc_ex.c ****        (+) Start the ADC peripheral using HAL_ADCEx_MultiModeStart_DMA(), at this stage the user sp
  78:../STM32CUBEMX/Drivers/STM32F4xx_HAL_Driver/Src/stm32f4xx_hal_adc_ex.c ****            of data to be transferred at each end of conversion
  79:../STM32CUBEMX/Drivers/STM32F4xx_HAL_Driver/Src/stm32f4xx_hal_adc_ex.c ****        (+) Read the ADCs converted values using the HAL_ADCEx_MultiModeGetValue() function.
  80:../STM32CUBEMX/Drivers/STM32F4xx_HAL_Driver/Src/stm32f4xx_hal_adc_ex.c **** 
  81:../STM32CUBEMX/Drivers/STM32F4xx_HAL_Driver/Src/stm32f4xx_hal_adc_ex.c **** 
  82:../STM32CUBEMX/Drivers/STM32F4xx_HAL_Driver/Src/stm32f4xx_hal_adc_ex.c ****     @endverbatim
  83:../STM32CUBEMX/Drivers/STM32F4xx_HAL_Driver/Src/stm32f4xx_hal_adc_ex.c ****   */
  84:../STM32CUBEMX/Drivers/STM32F4xx_HAL_Driver/Src/stm32f4xx_hal_adc_ex.c **** 
  85:../STM32CUBEMX/Drivers/STM32F4xx_HAL_Driver/Src/stm32f4xx_hal_adc_ex.c **** /* Includes ------------------------------------------------------------------*/
  86:../STM32CUBEMX/Drivers/STM32F4xx_HAL_Driver/Src/stm32f4xx_hal_adc_ex.c **** #include "stm32f4xx_hal.h"
  87:../STM32CUBEMX/Drivers/STM32F4xx_HAL_Driver/Src/stm32f4xx_hal_adc_ex.c **** 
ARM GAS  C:\Users\ysl\AppData\Local\Temp\ccRy7Oyd.s 			page 3


  88:../STM32CUBEMX/Drivers/STM32F4xx_HAL_Driver/Src/stm32f4xx_hal_adc_ex.c **** /** @addtogroup STM32F4xx_HAL_Driver
  89:../STM32CUBEMX/Drivers/STM32F4xx_HAL_Driver/Src/stm32f4xx_hal_adc_ex.c ****   * @{
  90:../STM32CUBEMX/Drivers/STM32F4xx_HAL_Driver/Src/stm32f4xx_hal_adc_ex.c ****   */
  91:../STM32CUBEMX/Drivers/STM32F4xx_HAL_Driver/Src/stm32f4xx_hal_adc_ex.c **** 
  92:../STM32CUBEMX/Drivers/STM32F4xx_HAL_Driver/Src/stm32f4xx_hal_adc_ex.c **** /** @defgroup ADCEx ADCEx
  93:../STM32CUBEMX/Drivers/STM32F4xx_HAL_Driver/Src/stm32f4xx_hal_adc_ex.c ****   * @brief ADC Extended driver modules
  94:../STM32CUBEMX/Drivers/STM32F4xx_HAL_Driver/Src/stm32f4xx_hal_adc_ex.c ****   * @{
  95:../STM32CUBEMX/Drivers/STM32F4xx_HAL_Driver/Src/stm32f4xx_hal_adc_ex.c ****   */ 
  96:../STM32CUBEMX/Drivers/STM32F4xx_HAL_Driver/Src/stm32f4xx_hal_adc_ex.c **** 
  97:../STM32CUBEMX/Drivers/STM32F4xx_HAL_Driver/Src/stm32f4xx_hal_adc_ex.c **** #ifdef HAL_ADC_MODULE_ENABLED
  98:../STM32CUBEMX/Drivers/STM32F4xx_HAL_Driver/Src/stm32f4xx_hal_adc_ex.c ****     
  99:../STM32CUBEMX/Drivers/STM32F4xx_HAL_Driver/Src/stm32f4xx_hal_adc_ex.c **** /* Private typedef -----------------------------------------------------------*/
 100:../STM32CUBEMX/Drivers/STM32F4xx_HAL_Driver/Src/stm32f4xx_hal_adc_ex.c **** /* Private define ------------------------------------------------------------*/ 
 101:../STM32CUBEMX/Drivers/STM32F4xx_HAL_Driver/Src/stm32f4xx_hal_adc_ex.c **** /* Private macro -------------------------------------------------------------*/
 102:../STM32CUBEMX/Drivers/STM32F4xx_HAL_Driver/Src/stm32f4xx_hal_adc_ex.c **** /* Private variables ---------------------------------------------------------*/
 103:../STM32CUBEMX/Drivers/STM32F4xx_HAL_Driver/Src/stm32f4xx_hal_adc_ex.c **** /** @addtogroup ADCEx_Private_Functions
 104:../STM32CUBEMX/Drivers/STM32F4xx_HAL_Driver/Src/stm32f4xx_hal_adc_ex.c ****   * @{
 105:../STM32CUBEMX/Drivers/STM32F4xx_HAL_Driver/Src/stm32f4xx_hal_adc_ex.c ****   */
 106:../STM32CUBEMX/Drivers/STM32F4xx_HAL_Driver/Src/stm32f4xx_hal_adc_ex.c **** /* Private function prototypes -----------------------------------------------*/
 107:../STM32CUBEMX/Drivers/STM32F4xx_HAL_Driver/Src/stm32f4xx_hal_adc_ex.c **** static void ADC_MultiModeDMAConvCplt(DMA_HandleTypeDef *hdma);
 108:../STM32CUBEMX/Drivers/STM32F4xx_HAL_Driver/Src/stm32f4xx_hal_adc_ex.c **** static void ADC_MultiModeDMAError(DMA_HandleTypeDef *hdma);
 109:../STM32CUBEMX/Drivers/STM32F4xx_HAL_Driver/Src/stm32f4xx_hal_adc_ex.c **** static void ADC_MultiModeDMAHalfConvCplt(DMA_HandleTypeDef *hdma); 
 110:../STM32CUBEMX/Drivers/STM32F4xx_HAL_Driver/Src/stm32f4xx_hal_adc_ex.c **** /**
 111:../STM32CUBEMX/Drivers/STM32F4xx_HAL_Driver/Src/stm32f4xx_hal_adc_ex.c ****   * @}
 112:../STM32CUBEMX/Drivers/STM32F4xx_HAL_Driver/Src/stm32f4xx_hal_adc_ex.c ****   */
 113:../STM32CUBEMX/Drivers/STM32F4xx_HAL_Driver/Src/stm32f4xx_hal_adc_ex.c **** 
 114:../STM32CUBEMX/Drivers/STM32F4xx_HAL_Driver/Src/stm32f4xx_hal_adc_ex.c **** /* Exported functions --------------------------------------------------------*/
 115:../STM32CUBEMX/Drivers/STM32F4xx_HAL_Driver/Src/stm32f4xx_hal_adc_ex.c **** /** @defgroup ADCEx_Exported_Functions ADC Exported Functions
 116:../STM32CUBEMX/Drivers/STM32F4xx_HAL_Driver/Src/stm32f4xx_hal_adc_ex.c ****   * @{
 117:../STM32CUBEMX/Drivers/STM32F4xx_HAL_Driver/Src/stm32f4xx_hal_adc_ex.c ****   */
 118:../STM32CUBEMX/Drivers/STM32F4xx_HAL_Driver/Src/stm32f4xx_hal_adc_ex.c **** 
 119:../STM32CUBEMX/Drivers/STM32F4xx_HAL_Driver/Src/stm32f4xx_hal_adc_ex.c **** /** @defgroup ADCEx_Exported_Functions_Group1  Extended features functions 
 120:../STM32CUBEMX/Drivers/STM32F4xx_HAL_Driver/Src/stm32f4xx_hal_adc_ex.c ****   *  @brief    Extended features functions  
 121:../STM32CUBEMX/Drivers/STM32F4xx_HAL_Driver/Src/stm32f4xx_hal_adc_ex.c ****   *
 122:../STM32CUBEMX/Drivers/STM32F4xx_HAL_Driver/Src/stm32f4xx_hal_adc_ex.c **** @verbatim   
 123:../STM32CUBEMX/Drivers/STM32F4xx_HAL_Driver/Src/stm32f4xx_hal_adc_ex.c ****  ===============================================================================
 124:../STM32CUBEMX/Drivers/STM32F4xx_HAL_Driver/Src/stm32f4xx_hal_adc_ex.c ****                  ##### Extended features functions #####
 125:../STM32CUBEMX/Drivers/STM32F4xx_HAL_Driver/Src/stm32f4xx_hal_adc_ex.c ****  ===============================================================================  
 126:../STM32CUBEMX/Drivers/STM32F4xx_HAL_Driver/Src/stm32f4xx_hal_adc_ex.c ****     [..]  This section provides functions allowing to:
 127:../STM32CUBEMX/Drivers/STM32F4xx_HAL_Driver/Src/stm32f4xx_hal_adc_ex.c ****       (+) Start conversion of injected channel.
 128:../STM32CUBEMX/Drivers/STM32F4xx_HAL_Driver/Src/stm32f4xx_hal_adc_ex.c ****       (+) Stop conversion of injected channel.
 129:../STM32CUBEMX/Drivers/STM32F4xx_HAL_Driver/Src/stm32f4xx_hal_adc_ex.c ****       (+) Start multimode and enable DMA transfer.
 130:../STM32CUBEMX/Drivers/STM32F4xx_HAL_Driver/Src/stm32f4xx_hal_adc_ex.c ****       (+) Stop multimode and disable DMA transfer.
 131:../STM32CUBEMX/Drivers/STM32F4xx_HAL_Driver/Src/stm32f4xx_hal_adc_ex.c ****       (+) Get result of injected channel conversion.
 132:../STM32CUBEMX/Drivers/STM32F4xx_HAL_Driver/Src/stm32f4xx_hal_adc_ex.c ****       (+) Get result of multimode conversion.
 133:../STM32CUBEMX/Drivers/STM32F4xx_HAL_Driver/Src/stm32f4xx_hal_adc_ex.c ****       (+) Configure injected channels.
 134:../STM32CUBEMX/Drivers/STM32F4xx_HAL_Driver/Src/stm32f4xx_hal_adc_ex.c ****       (+) Configure multimode.
 135:../STM32CUBEMX/Drivers/STM32F4xx_HAL_Driver/Src/stm32f4xx_hal_adc_ex.c ****                
 136:../STM32CUBEMX/Drivers/STM32F4xx_HAL_Driver/Src/stm32f4xx_hal_adc_ex.c **** @endverbatim
 137:../STM32CUBEMX/Drivers/STM32F4xx_HAL_Driver/Src/stm32f4xx_hal_adc_ex.c ****   * @{
 138:../STM32CUBEMX/Drivers/STM32F4xx_HAL_Driver/Src/stm32f4xx_hal_adc_ex.c ****   */
 139:../STM32CUBEMX/Drivers/STM32F4xx_HAL_Driver/Src/stm32f4xx_hal_adc_ex.c **** 
 140:../STM32CUBEMX/Drivers/STM32F4xx_HAL_Driver/Src/stm32f4xx_hal_adc_ex.c **** /**
 141:../STM32CUBEMX/Drivers/STM32F4xx_HAL_Driver/Src/stm32f4xx_hal_adc_ex.c ****   * @brief  Enables the selected ADC software start conversion of the injected channels.
 142:../STM32CUBEMX/Drivers/STM32F4xx_HAL_Driver/Src/stm32f4xx_hal_adc_ex.c ****   * @param  hadc pointer to a ADC_HandleTypeDef structure that contains
 143:../STM32CUBEMX/Drivers/STM32F4xx_HAL_Driver/Src/stm32f4xx_hal_adc_ex.c ****   *         the configuration information for the specified ADC.
 144:../STM32CUBEMX/Drivers/STM32F4xx_HAL_Driver/Src/stm32f4xx_hal_adc_ex.c ****   * @retval HAL status
ARM GAS  C:\Users\ysl\AppData\Local\Temp\ccRy7Oyd.s 			page 4


 145:../STM32CUBEMX/Drivers/STM32F4xx_HAL_Driver/Src/stm32f4xx_hal_adc_ex.c ****   */
 146:../STM32CUBEMX/Drivers/STM32F4xx_HAL_Driver/Src/stm32f4xx_hal_adc_ex.c **** HAL_StatusTypeDef HAL_ADCEx_InjectedStart(ADC_HandleTypeDef* hadc)
 147:../STM32CUBEMX/Drivers/STM32F4xx_HAL_Driver/Src/stm32f4xx_hal_adc_ex.c **** {
 148:../STM32CUBEMX/Drivers/STM32F4xx_HAL_Driver/Src/stm32f4xx_hal_adc_ex.c ****   __IO uint32_t counter = 0U;
 149:../STM32CUBEMX/Drivers/STM32F4xx_HAL_Driver/Src/stm32f4xx_hal_adc_ex.c ****   uint32_t tmp1 = 0U, tmp2 = 0U;
 150:../STM32CUBEMX/Drivers/STM32F4xx_HAL_Driver/Src/stm32f4xx_hal_adc_ex.c ****   ADC_Common_TypeDef *tmpADC_Common;
 151:../STM32CUBEMX/Drivers/STM32F4xx_HAL_Driver/Src/stm32f4xx_hal_adc_ex.c ****   
 152:../STM32CUBEMX/Drivers/STM32F4xx_HAL_Driver/Src/stm32f4xx_hal_adc_ex.c ****   /* Process locked */
 153:../STM32CUBEMX/Drivers/STM32F4xx_HAL_Driver/Src/stm32f4xx_hal_adc_ex.c ****   __HAL_LOCK(hadc);
 154:../STM32CUBEMX/Drivers/STM32F4xx_HAL_Driver/Src/stm32f4xx_hal_adc_ex.c ****   
 155:../STM32CUBEMX/Drivers/STM32F4xx_HAL_Driver/Src/stm32f4xx_hal_adc_ex.c ****   /* Enable the ADC peripheral */
 156:../STM32CUBEMX/Drivers/STM32F4xx_HAL_Driver/Src/stm32f4xx_hal_adc_ex.c ****   
 157:../STM32CUBEMX/Drivers/STM32F4xx_HAL_Driver/Src/stm32f4xx_hal_adc_ex.c ****   /* Check if ADC peripheral is disabled in order to enable it and wait during 
 158:../STM32CUBEMX/Drivers/STM32F4xx_HAL_Driver/Src/stm32f4xx_hal_adc_ex.c ****      Tstab time the ADC's stabilization */
 159:../STM32CUBEMX/Drivers/STM32F4xx_HAL_Driver/Src/stm32f4xx_hal_adc_ex.c ****   if((hadc->Instance->CR2 & ADC_CR2_ADON) != ADC_CR2_ADON)
 160:../STM32CUBEMX/Drivers/STM32F4xx_HAL_Driver/Src/stm32f4xx_hal_adc_ex.c ****   {  
 161:../STM32CUBEMX/Drivers/STM32F4xx_HAL_Driver/Src/stm32f4xx_hal_adc_ex.c ****     /* Enable the Peripheral */
 162:../STM32CUBEMX/Drivers/STM32F4xx_HAL_Driver/Src/stm32f4xx_hal_adc_ex.c ****     __HAL_ADC_ENABLE(hadc);
 163:../STM32CUBEMX/Drivers/STM32F4xx_HAL_Driver/Src/stm32f4xx_hal_adc_ex.c ****     
 164:../STM32CUBEMX/Drivers/STM32F4xx_HAL_Driver/Src/stm32f4xx_hal_adc_ex.c ****     /* Delay for ADC stabilization time */
 165:../STM32CUBEMX/Drivers/STM32F4xx_HAL_Driver/Src/stm32f4xx_hal_adc_ex.c ****     /* Compute number of CPU cycles to wait for */
 166:../STM32CUBEMX/Drivers/STM32F4xx_HAL_Driver/Src/stm32f4xx_hal_adc_ex.c ****     counter = (ADC_STAB_DELAY_US * (SystemCoreClock / 1000000U));
 167:../STM32CUBEMX/Drivers/STM32F4xx_HAL_Driver/Src/stm32f4xx_hal_adc_ex.c ****     while(counter != 0U)
 168:../STM32CUBEMX/Drivers/STM32F4xx_HAL_Driver/Src/stm32f4xx_hal_adc_ex.c ****     {
 169:../STM32CUBEMX/Drivers/STM32F4xx_HAL_Driver/Src/stm32f4xx_hal_adc_ex.c ****       counter--;
 170:../STM32CUBEMX/Drivers/STM32F4xx_HAL_Driver/Src/stm32f4xx_hal_adc_ex.c ****     }
 171:../STM32CUBEMX/Drivers/STM32F4xx_HAL_Driver/Src/stm32f4xx_hal_adc_ex.c ****   }
 172:../STM32CUBEMX/Drivers/STM32F4xx_HAL_Driver/Src/stm32f4xx_hal_adc_ex.c ****   
 173:../STM32CUBEMX/Drivers/STM32F4xx_HAL_Driver/Src/stm32f4xx_hal_adc_ex.c ****   /* Start conversion if ADC is effectively enabled */
 174:../STM32CUBEMX/Drivers/STM32F4xx_HAL_Driver/Src/stm32f4xx_hal_adc_ex.c ****   if(HAL_IS_BIT_SET(hadc->Instance->CR2, ADC_CR2_ADON))
 175:../STM32CUBEMX/Drivers/STM32F4xx_HAL_Driver/Src/stm32f4xx_hal_adc_ex.c ****   {
 176:../STM32CUBEMX/Drivers/STM32F4xx_HAL_Driver/Src/stm32f4xx_hal_adc_ex.c ****     /* Set ADC state                                                          */
 177:../STM32CUBEMX/Drivers/STM32F4xx_HAL_Driver/Src/stm32f4xx_hal_adc_ex.c ****     /* - Clear state bitfield related to injected group conversion results    */
 178:../STM32CUBEMX/Drivers/STM32F4xx_HAL_Driver/Src/stm32f4xx_hal_adc_ex.c ****     /* - Set state bitfield related to injected operation                     */
 179:../STM32CUBEMX/Drivers/STM32F4xx_HAL_Driver/Src/stm32f4xx_hal_adc_ex.c ****     ADC_STATE_CLR_SET(hadc->State,
 180:../STM32CUBEMX/Drivers/STM32F4xx_HAL_Driver/Src/stm32f4xx_hal_adc_ex.c ****                       HAL_ADC_STATE_READY | HAL_ADC_STATE_INJ_EOC,
 181:../STM32CUBEMX/Drivers/STM32F4xx_HAL_Driver/Src/stm32f4xx_hal_adc_ex.c ****                       HAL_ADC_STATE_INJ_BUSY);
 182:../STM32CUBEMX/Drivers/STM32F4xx_HAL_Driver/Src/stm32f4xx_hal_adc_ex.c ****     
 183:../STM32CUBEMX/Drivers/STM32F4xx_HAL_Driver/Src/stm32f4xx_hal_adc_ex.c ****     /* Check if a regular conversion is ongoing */
 184:../STM32CUBEMX/Drivers/STM32F4xx_HAL_Driver/Src/stm32f4xx_hal_adc_ex.c ****     /* Note: On this device, there is no ADC error code fields related to     */
 185:../STM32CUBEMX/Drivers/STM32F4xx_HAL_Driver/Src/stm32f4xx_hal_adc_ex.c ****     /*       conversions on group injected only. In case of conversion on     */
 186:../STM32CUBEMX/Drivers/STM32F4xx_HAL_Driver/Src/stm32f4xx_hal_adc_ex.c ****     /*       going on group regular, no error code is reset.                  */
 187:../STM32CUBEMX/Drivers/STM32F4xx_HAL_Driver/Src/stm32f4xx_hal_adc_ex.c ****     if (HAL_IS_BIT_CLR(hadc->State, HAL_ADC_STATE_REG_BUSY))
 188:../STM32CUBEMX/Drivers/STM32F4xx_HAL_Driver/Src/stm32f4xx_hal_adc_ex.c ****     {
 189:../STM32CUBEMX/Drivers/STM32F4xx_HAL_Driver/Src/stm32f4xx_hal_adc_ex.c ****       /* Reset ADC all error code fields */
 190:../STM32CUBEMX/Drivers/STM32F4xx_HAL_Driver/Src/stm32f4xx_hal_adc_ex.c ****       ADC_CLEAR_ERRORCODE(hadc);
 191:../STM32CUBEMX/Drivers/STM32F4xx_HAL_Driver/Src/stm32f4xx_hal_adc_ex.c ****     }
 192:../STM32CUBEMX/Drivers/STM32F4xx_HAL_Driver/Src/stm32f4xx_hal_adc_ex.c ****     
 193:../STM32CUBEMX/Drivers/STM32F4xx_HAL_Driver/Src/stm32f4xx_hal_adc_ex.c ****     /* Process unlocked */
 194:../STM32CUBEMX/Drivers/STM32F4xx_HAL_Driver/Src/stm32f4xx_hal_adc_ex.c ****     /* Unlock before starting ADC conversions: in case of potential           */
 195:../STM32CUBEMX/Drivers/STM32F4xx_HAL_Driver/Src/stm32f4xx_hal_adc_ex.c ****     /* interruption, to let the process to ADC IRQ Handler.                   */
 196:../STM32CUBEMX/Drivers/STM32F4xx_HAL_Driver/Src/stm32f4xx_hal_adc_ex.c ****     __HAL_UNLOCK(hadc);
 197:../STM32CUBEMX/Drivers/STM32F4xx_HAL_Driver/Src/stm32f4xx_hal_adc_ex.c ****     
 198:../STM32CUBEMX/Drivers/STM32F4xx_HAL_Driver/Src/stm32f4xx_hal_adc_ex.c ****     /* Clear injected group conversion flag */
 199:../STM32CUBEMX/Drivers/STM32F4xx_HAL_Driver/Src/stm32f4xx_hal_adc_ex.c ****     /* (To ensure of no unknown state from potential previous ADC operations) */
 200:../STM32CUBEMX/Drivers/STM32F4xx_HAL_Driver/Src/stm32f4xx_hal_adc_ex.c ****     __HAL_ADC_CLEAR_FLAG(hadc, ADC_FLAG_JEOC);
 201:../STM32CUBEMX/Drivers/STM32F4xx_HAL_Driver/Src/stm32f4xx_hal_adc_ex.c **** 
ARM GAS  C:\Users\ysl\AppData\Local\Temp\ccRy7Oyd.s 			page 5


 202:../STM32CUBEMX/Drivers/STM32F4xx_HAL_Driver/Src/stm32f4xx_hal_adc_ex.c ****     /* Pointer to the common control register to which is belonging hadc    */
 203:../STM32CUBEMX/Drivers/STM32F4xx_HAL_Driver/Src/stm32f4xx_hal_adc_ex.c ****     /* (Depending on STM32F4 product, there may be up to 3 ADC and 1 common */
 204:../STM32CUBEMX/Drivers/STM32F4xx_HAL_Driver/Src/stm32f4xx_hal_adc_ex.c ****     /* control register)                                                    */
 205:../STM32CUBEMX/Drivers/STM32F4xx_HAL_Driver/Src/stm32f4xx_hal_adc_ex.c ****     tmpADC_Common = ADC_COMMON_REGISTER(hadc);
 206:../STM32CUBEMX/Drivers/STM32F4xx_HAL_Driver/Src/stm32f4xx_hal_adc_ex.c **** 
 207:../STM32CUBEMX/Drivers/STM32F4xx_HAL_Driver/Src/stm32f4xx_hal_adc_ex.c ****     /* Check if Multimode enabled */
 208:../STM32CUBEMX/Drivers/STM32F4xx_HAL_Driver/Src/stm32f4xx_hal_adc_ex.c ****     if(HAL_IS_BIT_CLR(tmpADC_Common->CCR, ADC_CCR_MULTI))
 209:../STM32CUBEMX/Drivers/STM32F4xx_HAL_Driver/Src/stm32f4xx_hal_adc_ex.c ****     {
 210:../STM32CUBEMX/Drivers/STM32F4xx_HAL_Driver/Src/stm32f4xx_hal_adc_ex.c ****       tmp1 = HAL_IS_BIT_CLR(hadc->Instance->CR2, ADC_CR2_JEXTEN);
 211:../STM32CUBEMX/Drivers/STM32F4xx_HAL_Driver/Src/stm32f4xx_hal_adc_ex.c ****       tmp2 = HAL_IS_BIT_CLR(hadc->Instance->CR1, ADC_CR1_JAUTO);
 212:../STM32CUBEMX/Drivers/STM32F4xx_HAL_Driver/Src/stm32f4xx_hal_adc_ex.c ****       if(tmp1 && tmp2)
 213:../STM32CUBEMX/Drivers/STM32F4xx_HAL_Driver/Src/stm32f4xx_hal_adc_ex.c ****       {
 214:../STM32CUBEMX/Drivers/STM32F4xx_HAL_Driver/Src/stm32f4xx_hal_adc_ex.c ****         /* Enable the selected ADC software conversion for injected group */
 215:../STM32CUBEMX/Drivers/STM32F4xx_HAL_Driver/Src/stm32f4xx_hal_adc_ex.c ****         hadc->Instance->CR2 |= ADC_CR2_JSWSTART;
 216:../STM32CUBEMX/Drivers/STM32F4xx_HAL_Driver/Src/stm32f4xx_hal_adc_ex.c ****       }
 217:../STM32CUBEMX/Drivers/STM32F4xx_HAL_Driver/Src/stm32f4xx_hal_adc_ex.c ****     }
 218:../STM32CUBEMX/Drivers/STM32F4xx_HAL_Driver/Src/stm32f4xx_hal_adc_ex.c ****     else
 219:../STM32CUBEMX/Drivers/STM32F4xx_HAL_Driver/Src/stm32f4xx_hal_adc_ex.c ****     {
 220:../STM32CUBEMX/Drivers/STM32F4xx_HAL_Driver/Src/stm32f4xx_hal_adc_ex.c ****       tmp1 = HAL_IS_BIT_CLR(hadc->Instance->CR2, ADC_CR2_JEXTEN);
 221:../STM32CUBEMX/Drivers/STM32F4xx_HAL_Driver/Src/stm32f4xx_hal_adc_ex.c ****       tmp2 = HAL_IS_BIT_CLR(hadc->Instance->CR1, ADC_CR1_JAUTO);
 222:../STM32CUBEMX/Drivers/STM32F4xx_HAL_Driver/Src/stm32f4xx_hal_adc_ex.c ****       if((hadc->Instance == ADC1) && tmp1 && tmp2)  
 223:../STM32CUBEMX/Drivers/STM32F4xx_HAL_Driver/Src/stm32f4xx_hal_adc_ex.c ****       {
 224:../STM32CUBEMX/Drivers/STM32F4xx_HAL_Driver/Src/stm32f4xx_hal_adc_ex.c ****         /* Enable the selected ADC software conversion for injected group */
 225:../STM32CUBEMX/Drivers/STM32F4xx_HAL_Driver/Src/stm32f4xx_hal_adc_ex.c ****         hadc->Instance->CR2 |= ADC_CR2_JSWSTART;
 226:../STM32CUBEMX/Drivers/STM32F4xx_HAL_Driver/Src/stm32f4xx_hal_adc_ex.c ****       }
 227:../STM32CUBEMX/Drivers/STM32F4xx_HAL_Driver/Src/stm32f4xx_hal_adc_ex.c ****     }
 228:../STM32CUBEMX/Drivers/STM32F4xx_HAL_Driver/Src/stm32f4xx_hal_adc_ex.c ****   }
 229:../STM32CUBEMX/Drivers/STM32F4xx_HAL_Driver/Src/stm32f4xx_hal_adc_ex.c ****   else
 230:../STM32CUBEMX/Drivers/STM32F4xx_HAL_Driver/Src/stm32f4xx_hal_adc_ex.c ****   {
 231:../STM32CUBEMX/Drivers/STM32F4xx_HAL_Driver/Src/stm32f4xx_hal_adc_ex.c ****     /* Update ADC state machine to error */
 232:../STM32CUBEMX/Drivers/STM32F4xx_HAL_Driver/Src/stm32f4xx_hal_adc_ex.c ****     SET_BIT(hadc->State, HAL_ADC_STATE_ERROR_INTERNAL);
 233:../STM32CUBEMX/Drivers/STM32F4xx_HAL_Driver/Src/stm32f4xx_hal_adc_ex.c **** 
 234:../STM32CUBEMX/Drivers/STM32F4xx_HAL_Driver/Src/stm32f4xx_hal_adc_ex.c ****     /* Set ADC error code to ADC IP internal error */
 235:../STM32CUBEMX/Drivers/STM32F4xx_HAL_Driver/Src/stm32f4xx_hal_adc_ex.c ****     SET_BIT(hadc->ErrorCode, HAL_ADC_ERROR_INTERNAL);
 236:../STM32CUBEMX/Drivers/STM32F4xx_HAL_Driver/Src/stm32f4xx_hal_adc_ex.c ****   }
 237:../STM32CUBEMX/Drivers/STM32F4xx_HAL_Driver/Src/stm32f4xx_hal_adc_ex.c ****   
 238:../STM32CUBEMX/Drivers/STM32F4xx_HAL_Driver/Src/stm32f4xx_hal_adc_ex.c ****   /* Return function status */
 239:../STM32CUBEMX/Drivers/STM32F4xx_HAL_Driver/Src/stm32f4xx_hal_adc_ex.c ****   return HAL_OK;
 240:../STM32CUBEMX/Drivers/STM32F4xx_HAL_Driver/Src/stm32f4xx_hal_adc_ex.c **** }
 241:../STM32CUBEMX/Drivers/STM32F4xx_HAL_Driver/Src/stm32f4xx_hal_adc_ex.c **** 
 242:../STM32CUBEMX/Drivers/STM32F4xx_HAL_Driver/Src/stm32f4xx_hal_adc_ex.c **** /**
 243:../STM32CUBEMX/Drivers/STM32F4xx_HAL_Driver/Src/stm32f4xx_hal_adc_ex.c ****   * @brief  Enables the interrupt and starts ADC conversion of injected channels.
 244:../STM32CUBEMX/Drivers/STM32F4xx_HAL_Driver/Src/stm32f4xx_hal_adc_ex.c ****   * @param  hadc pointer to a ADC_HandleTypeDef structure that contains
 245:../STM32CUBEMX/Drivers/STM32F4xx_HAL_Driver/Src/stm32f4xx_hal_adc_ex.c ****   *         the configuration information for the specified ADC.
 246:../STM32CUBEMX/Drivers/STM32F4xx_HAL_Driver/Src/stm32f4xx_hal_adc_ex.c ****   *
 247:../STM32CUBEMX/Drivers/STM32F4xx_HAL_Driver/Src/stm32f4xx_hal_adc_ex.c ****   * @retval HAL status.
 248:../STM32CUBEMX/Drivers/STM32F4xx_HAL_Driver/Src/stm32f4xx_hal_adc_ex.c ****   */
 249:../STM32CUBEMX/Drivers/STM32F4xx_HAL_Driver/Src/stm32f4xx_hal_adc_ex.c **** HAL_StatusTypeDef HAL_ADCEx_InjectedStart_IT(ADC_HandleTypeDef* hadc)
 250:../STM32CUBEMX/Drivers/STM32F4xx_HAL_Driver/Src/stm32f4xx_hal_adc_ex.c **** {
 251:../STM32CUBEMX/Drivers/STM32F4xx_HAL_Driver/Src/stm32f4xx_hal_adc_ex.c ****   __IO uint32_t counter = 0U;
 252:../STM32CUBEMX/Drivers/STM32F4xx_HAL_Driver/Src/stm32f4xx_hal_adc_ex.c ****   uint32_t tmp1 = 0U, tmp2 = 0U;
 253:../STM32CUBEMX/Drivers/STM32F4xx_HAL_Driver/Src/stm32f4xx_hal_adc_ex.c ****   ADC_Common_TypeDef *tmpADC_Common;
 254:../STM32CUBEMX/Drivers/STM32F4xx_HAL_Driver/Src/stm32f4xx_hal_adc_ex.c ****   
 255:../STM32CUBEMX/Drivers/STM32F4xx_HAL_Driver/Src/stm32f4xx_hal_adc_ex.c ****   /* Process locked */
 256:../STM32CUBEMX/Drivers/STM32F4xx_HAL_Driver/Src/stm32f4xx_hal_adc_ex.c ****   __HAL_LOCK(hadc);
 257:../STM32CUBEMX/Drivers/STM32F4xx_HAL_Driver/Src/stm32f4xx_hal_adc_ex.c ****   
 258:../STM32CUBEMX/Drivers/STM32F4xx_HAL_Driver/Src/stm32f4xx_hal_adc_ex.c ****   /* Enable the ADC peripheral */
ARM GAS  C:\Users\ysl\AppData\Local\Temp\ccRy7Oyd.s 			page 6


 259:../STM32CUBEMX/Drivers/STM32F4xx_HAL_Driver/Src/stm32f4xx_hal_adc_ex.c ****   
 260:../STM32CUBEMX/Drivers/STM32F4xx_HAL_Driver/Src/stm32f4xx_hal_adc_ex.c ****   /* Check if ADC peripheral is disabled in order to enable it and wait during 
 261:../STM32CUBEMX/Drivers/STM32F4xx_HAL_Driver/Src/stm32f4xx_hal_adc_ex.c ****      Tstab time the ADC's stabilization */
 262:../STM32CUBEMX/Drivers/STM32F4xx_HAL_Driver/Src/stm32f4xx_hal_adc_ex.c ****   if((hadc->Instance->CR2 & ADC_CR2_ADON) != ADC_CR2_ADON)
 263:../STM32CUBEMX/Drivers/STM32F4xx_HAL_Driver/Src/stm32f4xx_hal_adc_ex.c ****   {  
 264:../STM32CUBEMX/Drivers/STM32F4xx_HAL_Driver/Src/stm32f4xx_hal_adc_ex.c ****     /* Enable the Peripheral */
 265:../STM32CUBEMX/Drivers/STM32F4xx_HAL_Driver/Src/stm32f4xx_hal_adc_ex.c ****     __HAL_ADC_ENABLE(hadc);
 266:../STM32CUBEMX/Drivers/STM32F4xx_HAL_Driver/Src/stm32f4xx_hal_adc_ex.c ****     
 267:../STM32CUBEMX/Drivers/STM32F4xx_HAL_Driver/Src/stm32f4xx_hal_adc_ex.c ****     /* Delay for ADC stabilization time */
 268:../STM32CUBEMX/Drivers/STM32F4xx_HAL_Driver/Src/stm32f4xx_hal_adc_ex.c ****     /* Compute number of CPU cycles to wait for */
 269:../STM32CUBEMX/Drivers/STM32F4xx_HAL_Driver/Src/stm32f4xx_hal_adc_ex.c ****     counter = (ADC_STAB_DELAY_US * (SystemCoreClock / 1000000U));
 270:../STM32CUBEMX/Drivers/STM32F4xx_HAL_Driver/Src/stm32f4xx_hal_adc_ex.c ****     while(counter != 0U)
 271:../STM32CUBEMX/Drivers/STM32F4xx_HAL_Driver/Src/stm32f4xx_hal_adc_ex.c ****     {
 272:../STM32CUBEMX/Drivers/STM32F4xx_HAL_Driver/Src/stm32f4xx_hal_adc_ex.c ****       counter--;
 273:../STM32CUBEMX/Drivers/STM32F4xx_HAL_Driver/Src/stm32f4xx_hal_adc_ex.c ****     }
 274:../STM32CUBEMX/Drivers/STM32F4xx_HAL_Driver/Src/stm32f4xx_hal_adc_ex.c ****   }
 275:../STM32CUBEMX/Drivers/STM32F4xx_HAL_Driver/Src/stm32f4xx_hal_adc_ex.c ****   
 276:../STM32CUBEMX/Drivers/STM32F4xx_HAL_Driver/Src/stm32f4xx_hal_adc_ex.c ****   /* Start conversion if ADC is effectively enabled */
 277:../STM32CUBEMX/Drivers/STM32F4xx_HAL_Driver/Src/stm32f4xx_hal_adc_ex.c ****   if(HAL_IS_BIT_SET(hadc->Instance->CR2, ADC_CR2_ADON))
 278:../STM32CUBEMX/Drivers/STM32F4xx_HAL_Driver/Src/stm32f4xx_hal_adc_ex.c ****   {
 279:../STM32CUBEMX/Drivers/STM32F4xx_HAL_Driver/Src/stm32f4xx_hal_adc_ex.c ****     /* Set ADC state                                                          */
 280:../STM32CUBEMX/Drivers/STM32F4xx_HAL_Driver/Src/stm32f4xx_hal_adc_ex.c ****     /* - Clear state bitfield related to injected group conversion results    */
 281:../STM32CUBEMX/Drivers/STM32F4xx_HAL_Driver/Src/stm32f4xx_hal_adc_ex.c ****     /* - Set state bitfield related to injected operation                     */
 282:../STM32CUBEMX/Drivers/STM32F4xx_HAL_Driver/Src/stm32f4xx_hal_adc_ex.c ****     ADC_STATE_CLR_SET(hadc->State,
 283:../STM32CUBEMX/Drivers/STM32F4xx_HAL_Driver/Src/stm32f4xx_hal_adc_ex.c ****                       HAL_ADC_STATE_READY | HAL_ADC_STATE_INJ_EOC,
 284:../STM32CUBEMX/Drivers/STM32F4xx_HAL_Driver/Src/stm32f4xx_hal_adc_ex.c ****                       HAL_ADC_STATE_INJ_BUSY);
 285:../STM32CUBEMX/Drivers/STM32F4xx_HAL_Driver/Src/stm32f4xx_hal_adc_ex.c ****     
 286:../STM32CUBEMX/Drivers/STM32F4xx_HAL_Driver/Src/stm32f4xx_hal_adc_ex.c ****     /* Check if a regular conversion is ongoing */
 287:../STM32CUBEMX/Drivers/STM32F4xx_HAL_Driver/Src/stm32f4xx_hal_adc_ex.c ****     /* Note: On this device, there is no ADC error code fields related to     */
 288:../STM32CUBEMX/Drivers/STM32F4xx_HAL_Driver/Src/stm32f4xx_hal_adc_ex.c ****     /*       conversions on group injected only. In case of conversion on     */
 289:../STM32CUBEMX/Drivers/STM32F4xx_HAL_Driver/Src/stm32f4xx_hal_adc_ex.c ****     /*       going on group regular, no error code is reset.                  */
 290:../STM32CUBEMX/Drivers/STM32F4xx_HAL_Driver/Src/stm32f4xx_hal_adc_ex.c ****     if (HAL_IS_BIT_CLR(hadc->State, HAL_ADC_STATE_REG_BUSY))
 291:../STM32CUBEMX/Drivers/STM32F4xx_HAL_Driver/Src/stm32f4xx_hal_adc_ex.c ****     {
 292:../STM32CUBEMX/Drivers/STM32F4xx_HAL_Driver/Src/stm32f4xx_hal_adc_ex.c ****       /* Reset ADC all error code fields */
 293:../STM32CUBEMX/Drivers/STM32F4xx_HAL_Driver/Src/stm32f4xx_hal_adc_ex.c ****       ADC_CLEAR_ERRORCODE(hadc);
 294:../STM32CUBEMX/Drivers/STM32F4xx_HAL_Driver/Src/stm32f4xx_hal_adc_ex.c ****     }
 295:../STM32CUBEMX/Drivers/STM32F4xx_HAL_Driver/Src/stm32f4xx_hal_adc_ex.c ****     
 296:../STM32CUBEMX/Drivers/STM32F4xx_HAL_Driver/Src/stm32f4xx_hal_adc_ex.c ****     /* Process unlocked */
 297:../STM32CUBEMX/Drivers/STM32F4xx_HAL_Driver/Src/stm32f4xx_hal_adc_ex.c ****     /* Unlock before starting ADC conversions: in case of potential           */
 298:../STM32CUBEMX/Drivers/STM32F4xx_HAL_Driver/Src/stm32f4xx_hal_adc_ex.c ****     /* interruption, to let the process to ADC IRQ Handler.                   */
 299:../STM32CUBEMX/Drivers/STM32F4xx_HAL_Driver/Src/stm32f4xx_hal_adc_ex.c ****     __HAL_UNLOCK(hadc);
 300:../STM32CUBEMX/Drivers/STM32F4xx_HAL_Driver/Src/stm32f4xx_hal_adc_ex.c ****     
 301:../STM32CUBEMX/Drivers/STM32F4xx_HAL_Driver/Src/stm32f4xx_hal_adc_ex.c ****     /* Clear injected group conversion flag */
 302:../STM32CUBEMX/Drivers/STM32F4xx_HAL_Driver/Src/stm32f4xx_hal_adc_ex.c ****     /* (To ensure of no unknown state from potential previous ADC operations) */
 303:../STM32CUBEMX/Drivers/STM32F4xx_HAL_Driver/Src/stm32f4xx_hal_adc_ex.c ****     __HAL_ADC_CLEAR_FLAG(hadc, ADC_FLAG_JEOC);
 304:../STM32CUBEMX/Drivers/STM32F4xx_HAL_Driver/Src/stm32f4xx_hal_adc_ex.c ****     
 305:../STM32CUBEMX/Drivers/STM32F4xx_HAL_Driver/Src/stm32f4xx_hal_adc_ex.c ****     /* Enable end of conversion interrupt for injected channels */
 306:../STM32CUBEMX/Drivers/STM32F4xx_HAL_Driver/Src/stm32f4xx_hal_adc_ex.c ****     __HAL_ADC_ENABLE_IT(hadc, ADC_IT_JEOC);
 307:../STM32CUBEMX/Drivers/STM32F4xx_HAL_Driver/Src/stm32f4xx_hal_adc_ex.c **** 
 308:../STM32CUBEMX/Drivers/STM32F4xx_HAL_Driver/Src/stm32f4xx_hal_adc_ex.c ****     /* Pointer to the common control register to which is belonging hadc    */
 309:../STM32CUBEMX/Drivers/STM32F4xx_HAL_Driver/Src/stm32f4xx_hal_adc_ex.c ****     /* (Depending on STM32F4 product, there may be up to 3 ADC and 1 common */
 310:../STM32CUBEMX/Drivers/STM32F4xx_HAL_Driver/Src/stm32f4xx_hal_adc_ex.c ****     /* control register)                                                    */
 311:../STM32CUBEMX/Drivers/STM32F4xx_HAL_Driver/Src/stm32f4xx_hal_adc_ex.c ****     tmpADC_Common = ADC_COMMON_REGISTER(hadc);
 312:../STM32CUBEMX/Drivers/STM32F4xx_HAL_Driver/Src/stm32f4xx_hal_adc_ex.c ****     
 313:../STM32CUBEMX/Drivers/STM32F4xx_HAL_Driver/Src/stm32f4xx_hal_adc_ex.c ****     /* Check if Multimode enabled */
 314:../STM32CUBEMX/Drivers/STM32F4xx_HAL_Driver/Src/stm32f4xx_hal_adc_ex.c ****     if(HAL_IS_BIT_CLR(tmpADC_Common->CCR, ADC_CCR_MULTI))
 315:../STM32CUBEMX/Drivers/STM32F4xx_HAL_Driver/Src/stm32f4xx_hal_adc_ex.c ****     {
ARM GAS  C:\Users\ysl\AppData\Local\Temp\ccRy7Oyd.s 			page 7


 316:../STM32CUBEMX/Drivers/STM32F4xx_HAL_Driver/Src/stm32f4xx_hal_adc_ex.c ****       tmp1 = HAL_IS_BIT_CLR(hadc->Instance->CR2, ADC_CR2_JEXTEN);
 317:../STM32CUBEMX/Drivers/STM32F4xx_HAL_Driver/Src/stm32f4xx_hal_adc_ex.c ****       tmp2 = HAL_IS_BIT_CLR(hadc->Instance->CR1, ADC_CR1_JAUTO);
 318:../STM32CUBEMX/Drivers/STM32F4xx_HAL_Driver/Src/stm32f4xx_hal_adc_ex.c ****       if(tmp1 && tmp2)
 319:../STM32CUBEMX/Drivers/STM32F4xx_HAL_Driver/Src/stm32f4xx_hal_adc_ex.c ****       {
 320:../STM32CUBEMX/Drivers/STM32F4xx_HAL_Driver/Src/stm32f4xx_hal_adc_ex.c ****         /* Enable the selected ADC software conversion for injected group */
 321:../STM32CUBEMX/Drivers/STM32F4xx_HAL_Driver/Src/stm32f4xx_hal_adc_ex.c ****         hadc->Instance->CR2 |= ADC_CR2_JSWSTART;
 322:../STM32CUBEMX/Drivers/STM32F4xx_HAL_Driver/Src/stm32f4xx_hal_adc_ex.c ****       }
 323:../STM32CUBEMX/Drivers/STM32F4xx_HAL_Driver/Src/stm32f4xx_hal_adc_ex.c ****     }
 324:../STM32CUBEMX/Drivers/STM32F4xx_HAL_Driver/Src/stm32f4xx_hal_adc_ex.c ****     else
 325:../STM32CUBEMX/Drivers/STM32F4xx_HAL_Driver/Src/stm32f4xx_hal_adc_ex.c ****     {
 326:../STM32CUBEMX/Drivers/STM32F4xx_HAL_Driver/Src/stm32f4xx_hal_adc_ex.c ****       tmp1 = HAL_IS_BIT_CLR(hadc->Instance->CR2, ADC_CR2_JEXTEN);
 327:../STM32CUBEMX/Drivers/STM32F4xx_HAL_Driver/Src/stm32f4xx_hal_adc_ex.c ****       tmp2 = HAL_IS_BIT_CLR(hadc->Instance->CR1, ADC_CR1_JAUTO);
 328:../STM32CUBEMX/Drivers/STM32F4xx_HAL_Driver/Src/stm32f4xx_hal_adc_ex.c ****       if((hadc->Instance == ADC1) && tmp1 && tmp2)  
 329:../STM32CUBEMX/Drivers/STM32F4xx_HAL_Driver/Src/stm32f4xx_hal_adc_ex.c ****       {
 330:../STM32CUBEMX/Drivers/STM32F4xx_HAL_Driver/Src/stm32f4xx_hal_adc_ex.c ****         /* Enable the selected ADC software conversion for injected group */
 331:../STM32CUBEMX/Drivers/STM32F4xx_HAL_Driver/Src/stm32f4xx_hal_adc_ex.c ****         hadc->Instance->CR2 |= ADC_CR2_JSWSTART;
 332:../STM32CUBEMX/Drivers/STM32F4xx_HAL_Driver/Src/stm32f4xx_hal_adc_ex.c ****       }
 333:../STM32CUBEMX/Drivers/STM32F4xx_HAL_Driver/Src/stm32f4xx_hal_adc_ex.c ****     }
 334:../STM32CUBEMX/Drivers/STM32F4xx_HAL_Driver/Src/stm32f4xx_hal_adc_ex.c ****   }
 335:../STM32CUBEMX/Drivers/STM32F4xx_HAL_Driver/Src/stm32f4xx_hal_adc_ex.c ****   else
 336:../STM32CUBEMX/Drivers/STM32F4xx_HAL_Driver/Src/stm32f4xx_hal_adc_ex.c ****   {
 337:../STM32CUBEMX/Drivers/STM32F4xx_HAL_Driver/Src/stm32f4xx_hal_adc_ex.c ****     /* Update ADC state machine to error */
 338:../STM32CUBEMX/Drivers/STM32F4xx_HAL_Driver/Src/stm32f4xx_hal_adc_ex.c ****     SET_BIT(hadc->State, HAL_ADC_STATE_ERROR_INTERNAL);
 339:../STM32CUBEMX/Drivers/STM32F4xx_HAL_Driver/Src/stm32f4xx_hal_adc_ex.c **** 
 340:../STM32CUBEMX/Drivers/STM32F4xx_HAL_Driver/Src/stm32f4xx_hal_adc_ex.c ****     /* Set ADC error code to ADC IP internal error */
 341:../STM32CUBEMX/Drivers/STM32F4xx_HAL_Driver/Src/stm32f4xx_hal_adc_ex.c ****     SET_BIT(hadc->ErrorCode, HAL_ADC_ERROR_INTERNAL);
 342:../STM32CUBEMX/Drivers/STM32F4xx_HAL_Driver/Src/stm32f4xx_hal_adc_ex.c ****   }
 343:../STM32CUBEMX/Drivers/STM32F4xx_HAL_Driver/Src/stm32f4xx_hal_adc_ex.c ****   
 344:../STM32CUBEMX/Drivers/STM32F4xx_HAL_Driver/Src/stm32f4xx_hal_adc_ex.c ****   /* Return function status */
 345:../STM32CUBEMX/Drivers/STM32F4xx_HAL_Driver/Src/stm32f4xx_hal_adc_ex.c ****   return HAL_OK;
 346:../STM32CUBEMX/Drivers/STM32F4xx_HAL_Driver/Src/stm32f4xx_hal_adc_ex.c **** }
 347:../STM32CUBEMX/Drivers/STM32F4xx_HAL_Driver/Src/stm32f4xx_hal_adc_ex.c **** 
 348:../STM32CUBEMX/Drivers/STM32F4xx_HAL_Driver/Src/stm32f4xx_hal_adc_ex.c **** /**
 349:../STM32CUBEMX/Drivers/STM32F4xx_HAL_Driver/Src/stm32f4xx_hal_adc_ex.c ****   * @brief  Stop conversion of injected channels. Disable ADC peripheral if
 350:../STM32CUBEMX/Drivers/STM32F4xx_HAL_Driver/Src/stm32f4xx_hal_adc_ex.c ****   *         no regular conversion is on going.
 351:../STM32CUBEMX/Drivers/STM32F4xx_HAL_Driver/Src/stm32f4xx_hal_adc_ex.c ****   * @note   If ADC must be disabled and if conversion is on going on 
 352:../STM32CUBEMX/Drivers/STM32F4xx_HAL_Driver/Src/stm32f4xx_hal_adc_ex.c ****   *         regular group, function HAL_ADC_Stop must be used to stop both
 353:../STM32CUBEMX/Drivers/STM32F4xx_HAL_Driver/Src/stm32f4xx_hal_adc_ex.c ****   *         injected and regular groups, and disable the ADC.
 354:../STM32CUBEMX/Drivers/STM32F4xx_HAL_Driver/Src/stm32f4xx_hal_adc_ex.c ****   * @note   If injected group mode auto-injection is enabled,
 355:../STM32CUBEMX/Drivers/STM32F4xx_HAL_Driver/Src/stm32f4xx_hal_adc_ex.c ****   *         function HAL_ADC_Stop must be used.
 356:../STM32CUBEMX/Drivers/STM32F4xx_HAL_Driver/Src/stm32f4xx_hal_adc_ex.c ****   * @note   In case of auto-injection mode, HAL_ADC_Stop must be used.
 357:../STM32CUBEMX/Drivers/STM32F4xx_HAL_Driver/Src/stm32f4xx_hal_adc_ex.c ****   * @param  hadc ADC handle
 358:../STM32CUBEMX/Drivers/STM32F4xx_HAL_Driver/Src/stm32f4xx_hal_adc_ex.c ****   * @retval None
 359:../STM32CUBEMX/Drivers/STM32F4xx_HAL_Driver/Src/stm32f4xx_hal_adc_ex.c ****   */
 360:../STM32CUBEMX/Drivers/STM32F4xx_HAL_Driver/Src/stm32f4xx_hal_adc_ex.c **** HAL_StatusTypeDef HAL_ADCEx_InjectedStop(ADC_HandleTypeDef* hadc)
 361:../STM32CUBEMX/Drivers/STM32F4xx_HAL_Driver/Src/stm32f4xx_hal_adc_ex.c **** {
 362:../STM32CUBEMX/Drivers/STM32F4xx_HAL_Driver/Src/stm32f4xx_hal_adc_ex.c ****   HAL_StatusTypeDef tmp_hal_status = HAL_OK;
 363:../STM32CUBEMX/Drivers/STM32F4xx_HAL_Driver/Src/stm32f4xx_hal_adc_ex.c ****   
 364:../STM32CUBEMX/Drivers/STM32F4xx_HAL_Driver/Src/stm32f4xx_hal_adc_ex.c ****   /* Check the parameters */
 365:../STM32CUBEMX/Drivers/STM32F4xx_HAL_Driver/Src/stm32f4xx_hal_adc_ex.c ****   assert_param(IS_ADC_ALL_INSTANCE(hadc->Instance));
 366:../STM32CUBEMX/Drivers/STM32F4xx_HAL_Driver/Src/stm32f4xx_hal_adc_ex.c **** 
 367:../STM32CUBEMX/Drivers/STM32F4xx_HAL_Driver/Src/stm32f4xx_hal_adc_ex.c ****   /* Process locked */
 368:../STM32CUBEMX/Drivers/STM32F4xx_HAL_Driver/Src/stm32f4xx_hal_adc_ex.c ****   __HAL_LOCK(hadc);
 369:../STM32CUBEMX/Drivers/STM32F4xx_HAL_Driver/Src/stm32f4xx_hal_adc_ex.c ****     
 370:../STM32CUBEMX/Drivers/STM32F4xx_HAL_Driver/Src/stm32f4xx_hal_adc_ex.c ****   /* Stop potential conversion and disable ADC peripheral                     */
 371:../STM32CUBEMX/Drivers/STM32F4xx_HAL_Driver/Src/stm32f4xx_hal_adc_ex.c ****   /* Conditioned to:                                                          */
 372:../STM32CUBEMX/Drivers/STM32F4xx_HAL_Driver/Src/stm32f4xx_hal_adc_ex.c ****   /* - No conversion on the other group (regular group) is intended to        */
ARM GAS  C:\Users\ysl\AppData\Local\Temp\ccRy7Oyd.s 			page 8


 373:../STM32CUBEMX/Drivers/STM32F4xx_HAL_Driver/Src/stm32f4xx_hal_adc_ex.c ****   /*   continue (injected and regular groups stop conversion and ADC disable  */
 374:../STM32CUBEMX/Drivers/STM32F4xx_HAL_Driver/Src/stm32f4xx_hal_adc_ex.c ****   /*   are common)                                                            */
 375:../STM32CUBEMX/Drivers/STM32F4xx_HAL_Driver/Src/stm32f4xx_hal_adc_ex.c ****   /* - In case of auto-injection mode, HAL_ADC_Stop must be used.             */
 376:../STM32CUBEMX/Drivers/STM32F4xx_HAL_Driver/Src/stm32f4xx_hal_adc_ex.c ****   if(((hadc->State & HAL_ADC_STATE_REG_BUSY) == RESET)  &&
 377:../STM32CUBEMX/Drivers/STM32F4xx_HAL_Driver/Src/stm32f4xx_hal_adc_ex.c ****      HAL_IS_BIT_CLR(hadc->Instance->CR1, ADC_CR1_JAUTO)   )
 378:../STM32CUBEMX/Drivers/STM32F4xx_HAL_Driver/Src/stm32f4xx_hal_adc_ex.c ****   {
 379:../STM32CUBEMX/Drivers/STM32F4xx_HAL_Driver/Src/stm32f4xx_hal_adc_ex.c ****     /* Stop potential conversion on going, on regular and injected groups */
 380:../STM32CUBEMX/Drivers/STM32F4xx_HAL_Driver/Src/stm32f4xx_hal_adc_ex.c ****     /* Disable ADC peripheral */
 381:../STM32CUBEMX/Drivers/STM32F4xx_HAL_Driver/Src/stm32f4xx_hal_adc_ex.c ****     __HAL_ADC_DISABLE(hadc);
 382:../STM32CUBEMX/Drivers/STM32F4xx_HAL_Driver/Src/stm32f4xx_hal_adc_ex.c ****     
 383:../STM32CUBEMX/Drivers/STM32F4xx_HAL_Driver/Src/stm32f4xx_hal_adc_ex.c ****     /* Check if ADC is effectively disabled */
 384:../STM32CUBEMX/Drivers/STM32F4xx_HAL_Driver/Src/stm32f4xx_hal_adc_ex.c ****     if(HAL_IS_BIT_CLR(hadc->Instance->CR2, ADC_CR2_ADON))
 385:../STM32CUBEMX/Drivers/STM32F4xx_HAL_Driver/Src/stm32f4xx_hal_adc_ex.c ****     {
 386:../STM32CUBEMX/Drivers/STM32F4xx_HAL_Driver/Src/stm32f4xx_hal_adc_ex.c ****       /* Set ADC state */
 387:../STM32CUBEMX/Drivers/STM32F4xx_HAL_Driver/Src/stm32f4xx_hal_adc_ex.c ****       ADC_STATE_CLR_SET(hadc->State,
 388:../STM32CUBEMX/Drivers/STM32F4xx_HAL_Driver/Src/stm32f4xx_hal_adc_ex.c ****                         HAL_ADC_STATE_REG_BUSY | HAL_ADC_STATE_INJ_BUSY,
 389:../STM32CUBEMX/Drivers/STM32F4xx_HAL_Driver/Src/stm32f4xx_hal_adc_ex.c ****                         HAL_ADC_STATE_READY);
 390:../STM32CUBEMX/Drivers/STM32F4xx_HAL_Driver/Src/stm32f4xx_hal_adc_ex.c ****     }
 391:../STM32CUBEMX/Drivers/STM32F4xx_HAL_Driver/Src/stm32f4xx_hal_adc_ex.c ****   }
 392:../STM32CUBEMX/Drivers/STM32F4xx_HAL_Driver/Src/stm32f4xx_hal_adc_ex.c ****   else
 393:../STM32CUBEMX/Drivers/STM32F4xx_HAL_Driver/Src/stm32f4xx_hal_adc_ex.c ****   {
 394:../STM32CUBEMX/Drivers/STM32F4xx_HAL_Driver/Src/stm32f4xx_hal_adc_ex.c ****     /* Update ADC state machine to error */
 395:../STM32CUBEMX/Drivers/STM32F4xx_HAL_Driver/Src/stm32f4xx_hal_adc_ex.c ****     SET_BIT(hadc->State, HAL_ADC_STATE_ERROR_CONFIG);
 396:../STM32CUBEMX/Drivers/STM32F4xx_HAL_Driver/Src/stm32f4xx_hal_adc_ex.c ****       
 397:../STM32CUBEMX/Drivers/STM32F4xx_HAL_Driver/Src/stm32f4xx_hal_adc_ex.c ****     tmp_hal_status = HAL_ERROR;
 398:../STM32CUBEMX/Drivers/STM32F4xx_HAL_Driver/Src/stm32f4xx_hal_adc_ex.c ****   }
 399:../STM32CUBEMX/Drivers/STM32F4xx_HAL_Driver/Src/stm32f4xx_hal_adc_ex.c ****   
 400:../STM32CUBEMX/Drivers/STM32F4xx_HAL_Driver/Src/stm32f4xx_hal_adc_ex.c ****   /* Process unlocked */
 401:../STM32CUBEMX/Drivers/STM32F4xx_HAL_Driver/Src/stm32f4xx_hal_adc_ex.c ****   __HAL_UNLOCK(hadc);
 402:../STM32CUBEMX/Drivers/STM32F4xx_HAL_Driver/Src/stm32f4xx_hal_adc_ex.c ****   
 403:../STM32CUBEMX/Drivers/STM32F4xx_HAL_Driver/Src/stm32f4xx_hal_adc_ex.c ****   /* Return function status */
 404:../STM32CUBEMX/Drivers/STM32F4xx_HAL_Driver/Src/stm32f4xx_hal_adc_ex.c ****   return tmp_hal_status;
 405:../STM32CUBEMX/Drivers/STM32F4xx_HAL_Driver/Src/stm32f4xx_hal_adc_ex.c **** }
 406:../STM32CUBEMX/Drivers/STM32F4xx_HAL_Driver/Src/stm32f4xx_hal_adc_ex.c **** 
 407:../STM32CUBEMX/Drivers/STM32F4xx_HAL_Driver/Src/stm32f4xx_hal_adc_ex.c **** /**
 408:../STM32CUBEMX/Drivers/STM32F4xx_HAL_Driver/Src/stm32f4xx_hal_adc_ex.c ****   * @brief  Poll for injected conversion complete
 409:../STM32CUBEMX/Drivers/STM32F4xx_HAL_Driver/Src/stm32f4xx_hal_adc_ex.c ****   * @param  hadc pointer to a ADC_HandleTypeDef structure that contains
 410:../STM32CUBEMX/Drivers/STM32F4xx_HAL_Driver/Src/stm32f4xx_hal_adc_ex.c ****   *         the configuration information for the specified ADC.
 411:../STM32CUBEMX/Drivers/STM32F4xx_HAL_Driver/Src/stm32f4xx_hal_adc_ex.c ****   * @param  Timeout Timeout value in millisecond.  
 412:../STM32CUBEMX/Drivers/STM32F4xx_HAL_Driver/Src/stm32f4xx_hal_adc_ex.c ****   * @retval HAL status
 413:../STM32CUBEMX/Drivers/STM32F4xx_HAL_Driver/Src/stm32f4xx_hal_adc_ex.c ****   */
 414:../STM32CUBEMX/Drivers/STM32F4xx_HAL_Driver/Src/stm32f4xx_hal_adc_ex.c **** HAL_StatusTypeDef HAL_ADCEx_InjectedPollForConversion(ADC_HandleTypeDef* hadc, uint32_t Timeout)
 415:../STM32CUBEMX/Drivers/STM32F4xx_HAL_Driver/Src/stm32f4xx_hal_adc_ex.c **** {
 416:../STM32CUBEMX/Drivers/STM32F4xx_HAL_Driver/Src/stm32f4xx_hal_adc_ex.c ****   uint32_t tickstart = 0U;
 417:../STM32CUBEMX/Drivers/STM32F4xx_HAL_Driver/Src/stm32f4xx_hal_adc_ex.c **** 
 418:../STM32CUBEMX/Drivers/STM32F4xx_HAL_Driver/Src/stm32f4xx_hal_adc_ex.c ****   /* Get tick */ 
 419:../STM32CUBEMX/Drivers/STM32F4xx_HAL_Driver/Src/stm32f4xx_hal_adc_ex.c ****   tickstart = HAL_GetTick();
 420:../STM32CUBEMX/Drivers/STM32F4xx_HAL_Driver/Src/stm32f4xx_hal_adc_ex.c **** 
 421:../STM32CUBEMX/Drivers/STM32F4xx_HAL_Driver/Src/stm32f4xx_hal_adc_ex.c ****   /* Check End of conversion flag */
 422:../STM32CUBEMX/Drivers/STM32F4xx_HAL_Driver/Src/stm32f4xx_hal_adc_ex.c ****   while(!(__HAL_ADC_GET_FLAG(hadc, ADC_FLAG_JEOC)))
 423:../STM32CUBEMX/Drivers/STM32F4xx_HAL_Driver/Src/stm32f4xx_hal_adc_ex.c ****   {
 424:../STM32CUBEMX/Drivers/STM32F4xx_HAL_Driver/Src/stm32f4xx_hal_adc_ex.c ****     /* Check for the Timeout */
 425:../STM32CUBEMX/Drivers/STM32F4xx_HAL_Driver/Src/stm32f4xx_hal_adc_ex.c ****     if(Timeout != HAL_MAX_DELAY)
 426:../STM32CUBEMX/Drivers/STM32F4xx_HAL_Driver/Src/stm32f4xx_hal_adc_ex.c ****     {
 427:../STM32CUBEMX/Drivers/STM32F4xx_HAL_Driver/Src/stm32f4xx_hal_adc_ex.c ****       if((Timeout == 0U)||((HAL_GetTick() - tickstart ) > Timeout))
 428:../STM32CUBEMX/Drivers/STM32F4xx_HAL_Driver/Src/stm32f4xx_hal_adc_ex.c ****       {
 429:../STM32CUBEMX/Drivers/STM32F4xx_HAL_Driver/Src/stm32f4xx_hal_adc_ex.c ****         /* New check to avoid false timeout detection in case of preemption */
ARM GAS  C:\Users\ysl\AppData\Local\Temp\ccRy7Oyd.s 			page 9


 430:../STM32CUBEMX/Drivers/STM32F4xx_HAL_Driver/Src/stm32f4xx_hal_adc_ex.c ****         if(!(__HAL_ADC_GET_FLAG(hadc, ADC_FLAG_JEOC)))
 431:../STM32CUBEMX/Drivers/STM32F4xx_HAL_Driver/Src/stm32f4xx_hal_adc_ex.c ****         {
 432:../STM32CUBEMX/Drivers/STM32F4xx_HAL_Driver/Src/stm32f4xx_hal_adc_ex.c ****           hadc->State= HAL_ADC_STATE_TIMEOUT;
 433:../STM32CUBEMX/Drivers/STM32F4xx_HAL_Driver/Src/stm32f4xx_hal_adc_ex.c ****           /* Process unlocked */
 434:../STM32CUBEMX/Drivers/STM32F4xx_HAL_Driver/Src/stm32f4xx_hal_adc_ex.c ****           __HAL_UNLOCK(hadc);
 435:../STM32CUBEMX/Drivers/STM32F4xx_HAL_Driver/Src/stm32f4xx_hal_adc_ex.c ****           return HAL_TIMEOUT;
 436:../STM32CUBEMX/Drivers/STM32F4xx_HAL_Driver/Src/stm32f4xx_hal_adc_ex.c ****         }
 437:../STM32CUBEMX/Drivers/STM32F4xx_HAL_Driver/Src/stm32f4xx_hal_adc_ex.c ****       }
 438:../STM32CUBEMX/Drivers/STM32F4xx_HAL_Driver/Src/stm32f4xx_hal_adc_ex.c ****     }
 439:../STM32CUBEMX/Drivers/STM32F4xx_HAL_Driver/Src/stm32f4xx_hal_adc_ex.c ****   }
 440:../STM32CUBEMX/Drivers/STM32F4xx_HAL_Driver/Src/stm32f4xx_hal_adc_ex.c ****   
 441:../STM32CUBEMX/Drivers/STM32F4xx_HAL_Driver/Src/stm32f4xx_hal_adc_ex.c ****   /* Clear injected group conversion flag */
 442:../STM32CUBEMX/Drivers/STM32F4xx_HAL_Driver/Src/stm32f4xx_hal_adc_ex.c ****   __HAL_ADC_CLEAR_FLAG(hadc, ADC_FLAG_JSTRT | ADC_FLAG_JEOC);
 443:../STM32CUBEMX/Drivers/STM32F4xx_HAL_Driver/Src/stm32f4xx_hal_adc_ex.c ****     
 444:../STM32CUBEMX/Drivers/STM32F4xx_HAL_Driver/Src/stm32f4xx_hal_adc_ex.c ****   /* Update ADC state machine */
 445:../STM32CUBEMX/Drivers/STM32F4xx_HAL_Driver/Src/stm32f4xx_hal_adc_ex.c ****   SET_BIT(hadc->State, HAL_ADC_STATE_INJ_EOC);
 446:../STM32CUBEMX/Drivers/STM32F4xx_HAL_Driver/Src/stm32f4xx_hal_adc_ex.c ****   
 447:../STM32CUBEMX/Drivers/STM32F4xx_HAL_Driver/Src/stm32f4xx_hal_adc_ex.c ****   /* Determine whether any further conversion upcoming on group injected      */
 448:../STM32CUBEMX/Drivers/STM32F4xx_HAL_Driver/Src/stm32f4xx_hal_adc_ex.c ****   /* by external trigger, continuous mode or scan sequence on going.          */
 449:../STM32CUBEMX/Drivers/STM32F4xx_HAL_Driver/Src/stm32f4xx_hal_adc_ex.c ****   /* Note: On STM32F4, there is no independent flag of end of sequence.       */
 450:../STM32CUBEMX/Drivers/STM32F4xx_HAL_Driver/Src/stm32f4xx_hal_adc_ex.c ****   /*       The test of scan sequence on going is done either with scan        */
 451:../STM32CUBEMX/Drivers/STM32F4xx_HAL_Driver/Src/stm32f4xx_hal_adc_ex.c ****   /*       sequence disabled or with end of conversion flag set to            */
 452:../STM32CUBEMX/Drivers/STM32F4xx_HAL_Driver/Src/stm32f4xx_hal_adc_ex.c ****   /*       of end of sequence.                                                */
 453:../STM32CUBEMX/Drivers/STM32F4xx_HAL_Driver/Src/stm32f4xx_hal_adc_ex.c ****   if(ADC_IS_SOFTWARE_START_INJECTED(hadc)                    &&
 454:../STM32CUBEMX/Drivers/STM32F4xx_HAL_Driver/Src/stm32f4xx_hal_adc_ex.c ****      (HAL_IS_BIT_CLR(hadc->Instance->JSQR, ADC_JSQR_JL)  ||
 455:../STM32CUBEMX/Drivers/STM32F4xx_HAL_Driver/Src/stm32f4xx_hal_adc_ex.c ****       HAL_IS_BIT_CLR(hadc->Instance->CR2, ADC_CR2_EOCS)    ) &&
 456:../STM32CUBEMX/Drivers/STM32F4xx_HAL_Driver/Src/stm32f4xx_hal_adc_ex.c ****      (HAL_IS_BIT_CLR(hadc->Instance->CR1, ADC_CR1_JAUTO) &&
 457:../STM32CUBEMX/Drivers/STM32F4xx_HAL_Driver/Src/stm32f4xx_hal_adc_ex.c ****       (ADC_IS_SOFTWARE_START_REGULAR(hadc)       &&
 458:../STM32CUBEMX/Drivers/STM32F4xx_HAL_Driver/Src/stm32f4xx_hal_adc_ex.c ****       (hadc->Init.ContinuousConvMode == DISABLE)   )       )   )
 459:../STM32CUBEMX/Drivers/STM32F4xx_HAL_Driver/Src/stm32f4xx_hal_adc_ex.c ****   {
 460:../STM32CUBEMX/Drivers/STM32F4xx_HAL_Driver/Src/stm32f4xx_hal_adc_ex.c ****     /* Set ADC state */
 461:../STM32CUBEMX/Drivers/STM32F4xx_HAL_Driver/Src/stm32f4xx_hal_adc_ex.c ****     CLEAR_BIT(hadc->State, HAL_ADC_STATE_INJ_BUSY);
 462:../STM32CUBEMX/Drivers/STM32F4xx_HAL_Driver/Src/stm32f4xx_hal_adc_ex.c ****     
 463:../STM32CUBEMX/Drivers/STM32F4xx_HAL_Driver/Src/stm32f4xx_hal_adc_ex.c ****     if (HAL_IS_BIT_CLR(hadc->State, HAL_ADC_STATE_REG_BUSY))
 464:../STM32CUBEMX/Drivers/STM32F4xx_HAL_Driver/Src/stm32f4xx_hal_adc_ex.c ****     { 
 465:../STM32CUBEMX/Drivers/STM32F4xx_HAL_Driver/Src/stm32f4xx_hal_adc_ex.c ****       SET_BIT(hadc->State, HAL_ADC_STATE_READY);
 466:../STM32CUBEMX/Drivers/STM32F4xx_HAL_Driver/Src/stm32f4xx_hal_adc_ex.c ****     }
 467:../STM32CUBEMX/Drivers/STM32F4xx_HAL_Driver/Src/stm32f4xx_hal_adc_ex.c ****   }
 468:../STM32CUBEMX/Drivers/STM32F4xx_HAL_Driver/Src/stm32f4xx_hal_adc_ex.c ****   
 469:../STM32CUBEMX/Drivers/STM32F4xx_HAL_Driver/Src/stm32f4xx_hal_adc_ex.c ****   /* Return ADC state */
 470:../STM32CUBEMX/Drivers/STM32F4xx_HAL_Driver/Src/stm32f4xx_hal_adc_ex.c ****   return HAL_OK;
 471:../STM32CUBEMX/Drivers/STM32F4xx_HAL_Driver/Src/stm32f4xx_hal_adc_ex.c **** }      
 472:../STM32CUBEMX/Drivers/STM32F4xx_HAL_Driver/Src/stm32f4xx_hal_adc_ex.c ****   
 473:../STM32CUBEMX/Drivers/STM32F4xx_HAL_Driver/Src/stm32f4xx_hal_adc_ex.c **** /**
 474:../STM32CUBEMX/Drivers/STM32F4xx_HAL_Driver/Src/stm32f4xx_hal_adc_ex.c ****   * @brief  Stop conversion of injected channels, disable interruption of 
 475:../STM32CUBEMX/Drivers/STM32F4xx_HAL_Driver/Src/stm32f4xx_hal_adc_ex.c ****   *         end-of-conversion. Disable ADC peripheral if no regular conversion
 476:../STM32CUBEMX/Drivers/STM32F4xx_HAL_Driver/Src/stm32f4xx_hal_adc_ex.c ****   *         is on going.
 477:../STM32CUBEMX/Drivers/STM32F4xx_HAL_Driver/Src/stm32f4xx_hal_adc_ex.c ****   * @note   If ADC must be disabled and if conversion is on going on 
 478:../STM32CUBEMX/Drivers/STM32F4xx_HAL_Driver/Src/stm32f4xx_hal_adc_ex.c ****   *         regular group, function HAL_ADC_Stop must be used to stop both
 479:../STM32CUBEMX/Drivers/STM32F4xx_HAL_Driver/Src/stm32f4xx_hal_adc_ex.c ****   *         injected and regular groups, and disable the ADC.
 480:../STM32CUBEMX/Drivers/STM32F4xx_HAL_Driver/Src/stm32f4xx_hal_adc_ex.c ****   * @note   If injected group mode auto-injection is enabled,
 481:../STM32CUBEMX/Drivers/STM32F4xx_HAL_Driver/Src/stm32f4xx_hal_adc_ex.c ****   *         function HAL_ADC_Stop must be used.
 482:../STM32CUBEMX/Drivers/STM32F4xx_HAL_Driver/Src/stm32f4xx_hal_adc_ex.c ****   * @param  hadc ADC handle
 483:../STM32CUBEMX/Drivers/STM32F4xx_HAL_Driver/Src/stm32f4xx_hal_adc_ex.c ****   * @retval None
 484:../STM32CUBEMX/Drivers/STM32F4xx_HAL_Driver/Src/stm32f4xx_hal_adc_ex.c ****   */
 485:../STM32CUBEMX/Drivers/STM32F4xx_HAL_Driver/Src/stm32f4xx_hal_adc_ex.c **** HAL_StatusTypeDef HAL_ADCEx_InjectedStop_IT(ADC_HandleTypeDef* hadc)
 486:../STM32CUBEMX/Drivers/STM32F4xx_HAL_Driver/Src/stm32f4xx_hal_adc_ex.c **** {
ARM GAS  C:\Users\ysl\AppData\Local\Temp\ccRy7Oyd.s 			page 10


 487:../STM32CUBEMX/Drivers/STM32F4xx_HAL_Driver/Src/stm32f4xx_hal_adc_ex.c ****   HAL_StatusTypeDef tmp_hal_status = HAL_OK;
 488:../STM32CUBEMX/Drivers/STM32F4xx_HAL_Driver/Src/stm32f4xx_hal_adc_ex.c ****   
 489:../STM32CUBEMX/Drivers/STM32F4xx_HAL_Driver/Src/stm32f4xx_hal_adc_ex.c ****   /* Check the parameters */
 490:../STM32CUBEMX/Drivers/STM32F4xx_HAL_Driver/Src/stm32f4xx_hal_adc_ex.c ****   assert_param(IS_ADC_ALL_INSTANCE(hadc->Instance));
 491:../STM32CUBEMX/Drivers/STM32F4xx_HAL_Driver/Src/stm32f4xx_hal_adc_ex.c **** 
 492:../STM32CUBEMX/Drivers/STM32F4xx_HAL_Driver/Src/stm32f4xx_hal_adc_ex.c ****   /* Process locked */
 493:../STM32CUBEMX/Drivers/STM32F4xx_HAL_Driver/Src/stm32f4xx_hal_adc_ex.c ****   __HAL_LOCK(hadc);
 494:../STM32CUBEMX/Drivers/STM32F4xx_HAL_Driver/Src/stm32f4xx_hal_adc_ex.c ****     
 495:../STM32CUBEMX/Drivers/STM32F4xx_HAL_Driver/Src/stm32f4xx_hal_adc_ex.c ****   /* Stop potential conversion and disable ADC peripheral                     */
 496:../STM32CUBEMX/Drivers/STM32F4xx_HAL_Driver/Src/stm32f4xx_hal_adc_ex.c ****   /* Conditioned to:                                                          */
 497:../STM32CUBEMX/Drivers/STM32F4xx_HAL_Driver/Src/stm32f4xx_hal_adc_ex.c ****   /* - No conversion on the other group (regular group) is intended to        */
 498:../STM32CUBEMX/Drivers/STM32F4xx_HAL_Driver/Src/stm32f4xx_hal_adc_ex.c ****   /*   continue (injected and regular groups stop conversion and ADC disable  */
 499:../STM32CUBEMX/Drivers/STM32F4xx_HAL_Driver/Src/stm32f4xx_hal_adc_ex.c ****   /*   are common)                                                            */
 500:../STM32CUBEMX/Drivers/STM32F4xx_HAL_Driver/Src/stm32f4xx_hal_adc_ex.c ****   /* - In case of auto-injection mode, HAL_ADC_Stop must be used.             */ 
 501:../STM32CUBEMX/Drivers/STM32F4xx_HAL_Driver/Src/stm32f4xx_hal_adc_ex.c ****   if(((hadc->State & HAL_ADC_STATE_REG_BUSY) == RESET)  &&
 502:../STM32CUBEMX/Drivers/STM32F4xx_HAL_Driver/Src/stm32f4xx_hal_adc_ex.c ****      HAL_IS_BIT_CLR(hadc->Instance->CR1, ADC_CR1_JAUTO)   )
 503:../STM32CUBEMX/Drivers/STM32F4xx_HAL_Driver/Src/stm32f4xx_hal_adc_ex.c ****   {
 504:../STM32CUBEMX/Drivers/STM32F4xx_HAL_Driver/Src/stm32f4xx_hal_adc_ex.c ****     /* Stop potential conversion on going, on regular and injected groups */
 505:../STM32CUBEMX/Drivers/STM32F4xx_HAL_Driver/Src/stm32f4xx_hal_adc_ex.c ****     /* Disable ADC peripheral */
 506:../STM32CUBEMX/Drivers/STM32F4xx_HAL_Driver/Src/stm32f4xx_hal_adc_ex.c ****     __HAL_ADC_DISABLE(hadc);
 507:../STM32CUBEMX/Drivers/STM32F4xx_HAL_Driver/Src/stm32f4xx_hal_adc_ex.c ****     
 508:../STM32CUBEMX/Drivers/STM32F4xx_HAL_Driver/Src/stm32f4xx_hal_adc_ex.c ****     /* Check if ADC is effectively disabled */
 509:../STM32CUBEMX/Drivers/STM32F4xx_HAL_Driver/Src/stm32f4xx_hal_adc_ex.c ****     if(HAL_IS_BIT_CLR(hadc->Instance->CR2, ADC_CR2_ADON))
 510:../STM32CUBEMX/Drivers/STM32F4xx_HAL_Driver/Src/stm32f4xx_hal_adc_ex.c ****     {
 511:../STM32CUBEMX/Drivers/STM32F4xx_HAL_Driver/Src/stm32f4xx_hal_adc_ex.c ****       /* Disable ADC end of conversion interrupt for injected channels */
 512:../STM32CUBEMX/Drivers/STM32F4xx_HAL_Driver/Src/stm32f4xx_hal_adc_ex.c ****       __HAL_ADC_DISABLE_IT(hadc, ADC_IT_JEOC);
 513:../STM32CUBEMX/Drivers/STM32F4xx_HAL_Driver/Src/stm32f4xx_hal_adc_ex.c ****       
 514:../STM32CUBEMX/Drivers/STM32F4xx_HAL_Driver/Src/stm32f4xx_hal_adc_ex.c ****       /* Set ADC state */
 515:../STM32CUBEMX/Drivers/STM32F4xx_HAL_Driver/Src/stm32f4xx_hal_adc_ex.c ****       ADC_STATE_CLR_SET(hadc->State,
 516:../STM32CUBEMX/Drivers/STM32F4xx_HAL_Driver/Src/stm32f4xx_hal_adc_ex.c ****                         HAL_ADC_STATE_REG_BUSY | HAL_ADC_STATE_INJ_BUSY,
 517:../STM32CUBEMX/Drivers/STM32F4xx_HAL_Driver/Src/stm32f4xx_hal_adc_ex.c ****                         HAL_ADC_STATE_READY);
 518:../STM32CUBEMX/Drivers/STM32F4xx_HAL_Driver/Src/stm32f4xx_hal_adc_ex.c ****     }
 519:../STM32CUBEMX/Drivers/STM32F4xx_HAL_Driver/Src/stm32f4xx_hal_adc_ex.c ****   }
 520:../STM32CUBEMX/Drivers/STM32F4xx_HAL_Driver/Src/stm32f4xx_hal_adc_ex.c ****   else
 521:../STM32CUBEMX/Drivers/STM32F4xx_HAL_Driver/Src/stm32f4xx_hal_adc_ex.c ****   {
 522:../STM32CUBEMX/Drivers/STM32F4xx_HAL_Driver/Src/stm32f4xx_hal_adc_ex.c ****     /* Update ADC state machine to error */
 523:../STM32CUBEMX/Drivers/STM32F4xx_HAL_Driver/Src/stm32f4xx_hal_adc_ex.c ****     SET_BIT(hadc->State, HAL_ADC_STATE_ERROR_CONFIG);
 524:../STM32CUBEMX/Drivers/STM32F4xx_HAL_Driver/Src/stm32f4xx_hal_adc_ex.c ****       
 525:../STM32CUBEMX/Drivers/STM32F4xx_HAL_Driver/Src/stm32f4xx_hal_adc_ex.c ****     tmp_hal_status = HAL_ERROR;
 526:../STM32CUBEMX/Drivers/STM32F4xx_HAL_Driver/Src/stm32f4xx_hal_adc_ex.c ****   }
 527:../STM32CUBEMX/Drivers/STM32F4xx_HAL_Driver/Src/stm32f4xx_hal_adc_ex.c ****   
 528:../STM32CUBEMX/Drivers/STM32F4xx_HAL_Driver/Src/stm32f4xx_hal_adc_ex.c ****   /* Process unlocked */
 529:../STM32CUBEMX/Drivers/STM32F4xx_HAL_Driver/Src/stm32f4xx_hal_adc_ex.c ****   __HAL_UNLOCK(hadc);
 530:../STM32CUBEMX/Drivers/STM32F4xx_HAL_Driver/Src/stm32f4xx_hal_adc_ex.c ****   
 531:../STM32CUBEMX/Drivers/STM32F4xx_HAL_Driver/Src/stm32f4xx_hal_adc_ex.c ****   /* Return function status */
 532:../STM32CUBEMX/Drivers/STM32F4xx_HAL_Driver/Src/stm32f4xx_hal_adc_ex.c ****   return tmp_hal_status;
 533:../STM32CUBEMX/Drivers/STM32F4xx_HAL_Driver/Src/stm32f4xx_hal_adc_ex.c **** }
 534:../STM32CUBEMX/Drivers/STM32F4xx_HAL_Driver/Src/stm32f4xx_hal_adc_ex.c **** 
 535:../STM32CUBEMX/Drivers/STM32F4xx_HAL_Driver/Src/stm32f4xx_hal_adc_ex.c **** /**
 536:../STM32CUBEMX/Drivers/STM32F4xx_HAL_Driver/Src/stm32f4xx_hal_adc_ex.c ****   * @brief  Gets the converted value from data register of injected channel.
 537:../STM32CUBEMX/Drivers/STM32F4xx_HAL_Driver/Src/stm32f4xx_hal_adc_ex.c ****   * @param  hadc pointer to a ADC_HandleTypeDef structure that contains
 538:../STM32CUBEMX/Drivers/STM32F4xx_HAL_Driver/Src/stm32f4xx_hal_adc_ex.c ****   *         the configuration information for the specified ADC.
 539:../STM32CUBEMX/Drivers/STM32F4xx_HAL_Driver/Src/stm32f4xx_hal_adc_ex.c ****   * @param  InjectedRank the ADC injected rank.
 540:../STM32CUBEMX/Drivers/STM32F4xx_HAL_Driver/Src/stm32f4xx_hal_adc_ex.c ****   *          This parameter can be one of the following values:
 541:../STM32CUBEMX/Drivers/STM32F4xx_HAL_Driver/Src/stm32f4xx_hal_adc_ex.c ****   *            @arg ADC_INJECTED_RANK_1: Injected Channel1 selected
 542:../STM32CUBEMX/Drivers/STM32F4xx_HAL_Driver/Src/stm32f4xx_hal_adc_ex.c ****   *            @arg ADC_INJECTED_RANK_2: Injected Channel2 selected
 543:../STM32CUBEMX/Drivers/STM32F4xx_HAL_Driver/Src/stm32f4xx_hal_adc_ex.c ****   *            @arg ADC_INJECTED_RANK_3: Injected Channel3 selected
ARM GAS  C:\Users\ysl\AppData\Local\Temp\ccRy7Oyd.s 			page 11


 544:../STM32CUBEMX/Drivers/STM32F4xx_HAL_Driver/Src/stm32f4xx_hal_adc_ex.c ****   *            @arg ADC_INJECTED_RANK_4: Injected Channel4 selected
 545:../STM32CUBEMX/Drivers/STM32F4xx_HAL_Driver/Src/stm32f4xx_hal_adc_ex.c ****   * @retval None
 546:../STM32CUBEMX/Drivers/STM32F4xx_HAL_Driver/Src/stm32f4xx_hal_adc_ex.c ****   */
 547:../STM32CUBEMX/Drivers/STM32F4xx_HAL_Driver/Src/stm32f4xx_hal_adc_ex.c **** uint32_t HAL_ADCEx_InjectedGetValue(ADC_HandleTypeDef* hadc, uint32_t InjectedRank)
 548:../STM32CUBEMX/Drivers/STM32F4xx_HAL_Driver/Src/stm32f4xx_hal_adc_ex.c **** {
 549:../STM32CUBEMX/Drivers/STM32F4xx_HAL_Driver/Src/stm32f4xx_hal_adc_ex.c ****   __IO uint32_t tmp = 0U;
 550:../STM32CUBEMX/Drivers/STM32F4xx_HAL_Driver/Src/stm32f4xx_hal_adc_ex.c ****   
 551:../STM32CUBEMX/Drivers/STM32F4xx_HAL_Driver/Src/stm32f4xx_hal_adc_ex.c ****   /* Check the parameters */
 552:../STM32CUBEMX/Drivers/STM32F4xx_HAL_Driver/Src/stm32f4xx_hal_adc_ex.c ****   assert_param(IS_ADC_INJECTED_RANK(InjectedRank));
 553:../STM32CUBEMX/Drivers/STM32F4xx_HAL_Driver/Src/stm32f4xx_hal_adc_ex.c ****   
 554:../STM32CUBEMX/Drivers/STM32F4xx_HAL_Driver/Src/stm32f4xx_hal_adc_ex.c ****   /* Clear injected group conversion flag to have similar behaviour as        */
 555:../STM32CUBEMX/Drivers/STM32F4xx_HAL_Driver/Src/stm32f4xx_hal_adc_ex.c ****   /* regular group: reading data register also clears end of conversion flag. */
 556:../STM32CUBEMX/Drivers/STM32F4xx_HAL_Driver/Src/stm32f4xx_hal_adc_ex.c ****   __HAL_ADC_CLEAR_FLAG(hadc, ADC_FLAG_JEOC);
 557:../STM32CUBEMX/Drivers/STM32F4xx_HAL_Driver/Src/stm32f4xx_hal_adc_ex.c ****   
 558:../STM32CUBEMX/Drivers/STM32F4xx_HAL_Driver/Src/stm32f4xx_hal_adc_ex.c ****   /* Return the selected ADC converted value */ 
 559:../STM32CUBEMX/Drivers/STM32F4xx_HAL_Driver/Src/stm32f4xx_hal_adc_ex.c ****   switch(InjectedRank)
 560:../STM32CUBEMX/Drivers/STM32F4xx_HAL_Driver/Src/stm32f4xx_hal_adc_ex.c ****   {  
 561:../STM32CUBEMX/Drivers/STM32F4xx_HAL_Driver/Src/stm32f4xx_hal_adc_ex.c ****     case ADC_INJECTED_RANK_4:
 562:../STM32CUBEMX/Drivers/STM32F4xx_HAL_Driver/Src/stm32f4xx_hal_adc_ex.c ****     {
 563:../STM32CUBEMX/Drivers/STM32F4xx_HAL_Driver/Src/stm32f4xx_hal_adc_ex.c ****       tmp =  hadc->Instance->JDR4;
 564:../STM32CUBEMX/Drivers/STM32F4xx_HAL_Driver/Src/stm32f4xx_hal_adc_ex.c ****     }  
 565:../STM32CUBEMX/Drivers/STM32F4xx_HAL_Driver/Src/stm32f4xx_hal_adc_ex.c ****     break;
 566:../STM32CUBEMX/Drivers/STM32F4xx_HAL_Driver/Src/stm32f4xx_hal_adc_ex.c ****     case ADC_INJECTED_RANK_3: 
 567:../STM32CUBEMX/Drivers/STM32F4xx_HAL_Driver/Src/stm32f4xx_hal_adc_ex.c ****     {  
 568:../STM32CUBEMX/Drivers/STM32F4xx_HAL_Driver/Src/stm32f4xx_hal_adc_ex.c ****       tmp =  hadc->Instance->JDR3;
 569:../STM32CUBEMX/Drivers/STM32F4xx_HAL_Driver/Src/stm32f4xx_hal_adc_ex.c ****     }  
 570:../STM32CUBEMX/Drivers/STM32F4xx_HAL_Driver/Src/stm32f4xx_hal_adc_ex.c ****     break;
 571:../STM32CUBEMX/Drivers/STM32F4xx_HAL_Driver/Src/stm32f4xx_hal_adc_ex.c ****     case ADC_INJECTED_RANK_2: 
 572:../STM32CUBEMX/Drivers/STM32F4xx_HAL_Driver/Src/stm32f4xx_hal_adc_ex.c ****     {  
 573:../STM32CUBEMX/Drivers/STM32F4xx_HAL_Driver/Src/stm32f4xx_hal_adc_ex.c ****       tmp =  hadc->Instance->JDR2;
 574:../STM32CUBEMX/Drivers/STM32F4xx_HAL_Driver/Src/stm32f4xx_hal_adc_ex.c ****     }
 575:../STM32CUBEMX/Drivers/STM32F4xx_HAL_Driver/Src/stm32f4xx_hal_adc_ex.c ****     break;
 576:../STM32CUBEMX/Drivers/STM32F4xx_HAL_Driver/Src/stm32f4xx_hal_adc_ex.c ****     case ADC_INJECTED_RANK_1:
 577:../STM32CUBEMX/Drivers/STM32F4xx_HAL_Driver/Src/stm32f4xx_hal_adc_ex.c ****     {
 578:../STM32CUBEMX/Drivers/STM32F4xx_HAL_Driver/Src/stm32f4xx_hal_adc_ex.c ****       tmp =  hadc->Instance->JDR1;
 579:../STM32CUBEMX/Drivers/STM32F4xx_HAL_Driver/Src/stm32f4xx_hal_adc_ex.c ****     }
 580:../STM32CUBEMX/Drivers/STM32F4xx_HAL_Driver/Src/stm32f4xx_hal_adc_ex.c ****     break;
 581:../STM32CUBEMX/Drivers/STM32F4xx_HAL_Driver/Src/stm32f4xx_hal_adc_ex.c ****     default:
 582:../STM32CUBEMX/Drivers/STM32F4xx_HAL_Driver/Src/stm32f4xx_hal_adc_ex.c ****     break;  
 583:../STM32CUBEMX/Drivers/STM32F4xx_HAL_Driver/Src/stm32f4xx_hal_adc_ex.c ****   }
 584:../STM32CUBEMX/Drivers/STM32F4xx_HAL_Driver/Src/stm32f4xx_hal_adc_ex.c ****   return tmp;
 585:../STM32CUBEMX/Drivers/STM32F4xx_HAL_Driver/Src/stm32f4xx_hal_adc_ex.c **** }
 586:../STM32CUBEMX/Drivers/STM32F4xx_HAL_Driver/Src/stm32f4xx_hal_adc_ex.c **** 
 587:../STM32CUBEMX/Drivers/STM32F4xx_HAL_Driver/Src/stm32f4xx_hal_adc_ex.c **** /**
 588:../STM32CUBEMX/Drivers/STM32F4xx_HAL_Driver/Src/stm32f4xx_hal_adc_ex.c ****   * @brief  Enables ADC DMA request after last transfer (Multi-ADC mode) and enables ADC peripheral
 589:../STM32CUBEMX/Drivers/STM32F4xx_HAL_Driver/Src/stm32f4xx_hal_adc_ex.c ****   * 
 590:../STM32CUBEMX/Drivers/STM32F4xx_HAL_Driver/Src/stm32f4xx_hal_adc_ex.c ****   * @note   Caution: This function must be used only with the ADC master.  
 591:../STM32CUBEMX/Drivers/STM32F4xx_HAL_Driver/Src/stm32f4xx_hal_adc_ex.c ****   *
 592:../STM32CUBEMX/Drivers/STM32F4xx_HAL_Driver/Src/stm32f4xx_hal_adc_ex.c ****   * @param  hadc pointer to a ADC_HandleTypeDef structure that contains
 593:../STM32CUBEMX/Drivers/STM32F4xx_HAL_Driver/Src/stm32f4xx_hal_adc_ex.c ****   *         the configuration information for the specified ADC.
 594:../STM32CUBEMX/Drivers/STM32F4xx_HAL_Driver/Src/stm32f4xx_hal_adc_ex.c ****   * @param  pData   Pointer to buffer in which transferred from ADC peripheral to memory will be st
 595:../STM32CUBEMX/Drivers/STM32F4xx_HAL_Driver/Src/stm32f4xx_hal_adc_ex.c ****   * @param  Length  The length of data to be transferred from ADC peripheral to memory.  
 596:../STM32CUBEMX/Drivers/STM32F4xx_HAL_Driver/Src/stm32f4xx_hal_adc_ex.c ****   * @retval HAL status
 597:../STM32CUBEMX/Drivers/STM32F4xx_HAL_Driver/Src/stm32f4xx_hal_adc_ex.c ****   */
 598:../STM32CUBEMX/Drivers/STM32F4xx_HAL_Driver/Src/stm32f4xx_hal_adc_ex.c **** HAL_StatusTypeDef HAL_ADCEx_MultiModeStart_DMA(ADC_HandleTypeDef* hadc, uint32_t* pData, uint32_t L
 599:../STM32CUBEMX/Drivers/STM32F4xx_HAL_Driver/Src/stm32f4xx_hal_adc_ex.c **** {
 600:../STM32CUBEMX/Drivers/STM32F4xx_HAL_Driver/Src/stm32f4xx_hal_adc_ex.c ****   __IO uint32_t counter = 0U;
ARM GAS  C:\Users\ysl\AppData\Local\Temp\ccRy7Oyd.s 			page 12


 601:../STM32CUBEMX/Drivers/STM32F4xx_HAL_Driver/Src/stm32f4xx_hal_adc_ex.c ****   ADC_Common_TypeDef *tmpADC_Common;
 602:../STM32CUBEMX/Drivers/STM32F4xx_HAL_Driver/Src/stm32f4xx_hal_adc_ex.c ****   
 603:../STM32CUBEMX/Drivers/STM32F4xx_HAL_Driver/Src/stm32f4xx_hal_adc_ex.c ****   /* Check the parameters */
 604:../STM32CUBEMX/Drivers/STM32F4xx_HAL_Driver/Src/stm32f4xx_hal_adc_ex.c ****   assert_param(IS_FUNCTIONAL_STATE(hadc->Init.ContinuousConvMode));
 605:../STM32CUBEMX/Drivers/STM32F4xx_HAL_Driver/Src/stm32f4xx_hal_adc_ex.c ****   assert_param(IS_ADC_EXT_TRIG_EDGE(hadc->Init.ExternalTrigConvEdge));
 606:../STM32CUBEMX/Drivers/STM32F4xx_HAL_Driver/Src/stm32f4xx_hal_adc_ex.c ****   assert_param(IS_FUNCTIONAL_STATE(hadc->Init.DMAContinuousRequests));
 607:../STM32CUBEMX/Drivers/STM32F4xx_HAL_Driver/Src/stm32f4xx_hal_adc_ex.c ****   
 608:../STM32CUBEMX/Drivers/STM32F4xx_HAL_Driver/Src/stm32f4xx_hal_adc_ex.c ****   /* Process locked */
 609:../STM32CUBEMX/Drivers/STM32F4xx_HAL_Driver/Src/stm32f4xx_hal_adc_ex.c ****   __HAL_LOCK(hadc);
 610:../STM32CUBEMX/Drivers/STM32F4xx_HAL_Driver/Src/stm32f4xx_hal_adc_ex.c ****   
 611:../STM32CUBEMX/Drivers/STM32F4xx_HAL_Driver/Src/stm32f4xx_hal_adc_ex.c ****   /* Check if ADC peripheral is disabled in order to enable it and wait during 
 612:../STM32CUBEMX/Drivers/STM32F4xx_HAL_Driver/Src/stm32f4xx_hal_adc_ex.c ****      Tstab time the ADC's stabilization */
 613:../STM32CUBEMX/Drivers/STM32F4xx_HAL_Driver/Src/stm32f4xx_hal_adc_ex.c ****   if((hadc->Instance->CR2 & ADC_CR2_ADON) != ADC_CR2_ADON)
 614:../STM32CUBEMX/Drivers/STM32F4xx_HAL_Driver/Src/stm32f4xx_hal_adc_ex.c ****   {  
 615:../STM32CUBEMX/Drivers/STM32F4xx_HAL_Driver/Src/stm32f4xx_hal_adc_ex.c ****     /* Enable the Peripheral */
 616:../STM32CUBEMX/Drivers/STM32F4xx_HAL_Driver/Src/stm32f4xx_hal_adc_ex.c ****     __HAL_ADC_ENABLE(hadc);
 617:../STM32CUBEMX/Drivers/STM32F4xx_HAL_Driver/Src/stm32f4xx_hal_adc_ex.c ****     
 618:../STM32CUBEMX/Drivers/STM32F4xx_HAL_Driver/Src/stm32f4xx_hal_adc_ex.c ****     /* Delay for temperature sensor stabilization time */
 619:../STM32CUBEMX/Drivers/STM32F4xx_HAL_Driver/Src/stm32f4xx_hal_adc_ex.c ****     /* Compute number of CPU cycles to wait for */
 620:../STM32CUBEMX/Drivers/STM32F4xx_HAL_Driver/Src/stm32f4xx_hal_adc_ex.c ****     counter = (ADC_STAB_DELAY_US * (SystemCoreClock / 1000000U));
 621:../STM32CUBEMX/Drivers/STM32F4xx_HAL_Driver/Src/stm32f4xx_hal_adc_ex.c ****     while(counter != 0U)
 622:../STM32CUBEMX/Drivers/STM32F4xx_HAL_Driver/Src/stm32f4xx_hal_adc_ex.c ****     {
 623:../STM32CUBEMX/Drivers/STM32F4xx_HAL_Driver/Src/stm32f4xx_hal_adc_ex.c ****       counter--;
 624:../STM32CUBEMX/Drivers/STM32F4xx_HAL_Driver/Src/stm32f4xx_hal_adc_ex.c ****     }
 625:../STM32CUBEMX/Drivers/STM32F4xx_HAL_Driver/Src/stm32f4xx_hal_adc_ex.c ****   }
 626:../STM32CUBEMX/Drivers/STM32F4xx_HAL_Driver/Src/stm32f4xx_hal_adc_ex.c ****   
 627:../STM32CUBEMX/Drivers/STM32F4xx_HAL_Driver/Src/stm32f4xx_hal_adc_ex.c ****   /* Start conversion if ADC is effectively enabled */
 628:../STM32CUBEMX/Drivers/STM32F4xx_HAL_Driver/Src/stm32f4xx_hal_adc_ex.c ****   if(HAL_IS_BIT_SET(hadc->Instance->CR2, ADC_CR2_ADON))
 629:../STM32CUBEMX/Drivers/STM32F4xx_HAL_Driver/Src/stm32f4xx_hal_adc_ex.c ****   {
 630:../STM32CUBEMX/Drivers/STM32F4xx_HAL_Driver/Src/stm32f4xx_hal_adc_ex.c ****     /* Set ADC state                                                          */
 631:../STM32CUBEMX/Drivers/STM32F4xx_HAL_Driver/Src/stm32f4xx_hal_adc_ex.c ****     /* - Clear state bitfield related to regular group conversion results     */
 632:../STM32CUBEMX/Drivers/STM32F4xx_HAL_Driver/Src/stm32f4xx_hal_adc_ex.c ****     /* - Set state bitfield related to regular group operation                */
 633:../STM32CUBEMX/Drivers/STM32F4xx_HAL_Driver/Src/stm32f4xx_hal_adc_ex.c ****     ADC_STATE_CLR_SET(hadc->State,
 634:../STM32CUBEMX/Drivers/STM32F4xx_HAL_Driver/Src/stm32f4xx_hal_adc_ex.c ****                       HAL_ADC_STATE_READY | HAL_ADC_STATE_REG_EOC | HAL_ADC_STATE_REG_OVR,
 635:../STM32CUBEMX/Drivers/STM32F4xx_HAL_Driver/Src/stm32f4xx_hal_adc_ex.c ****                       HAL_ADC_STATE_REG_BUSY);
 636:../STM32CUBEMX/Drivers/STM32F4xx_HAL_Driver/Src/stm32f4xx_hal_adc_ex.c ****     
 637:../STM32CUBEMX/Drivers/STM32F4xx_HAL_Driver/Src/stm32f4xx_hal_adc_ex.c ****     /* If conversions on group regular are also triggering group injected,    */
 638:../STM32CUBEMX/Drivers/STM32F4xx_HAL_Driver/Src/stm32f4xx_hal_adc_ex.c ****     /* update ADC state.                                                      */
 639:../STM32CUBEMX/Drivers/STM32F4xx_HAL_Driver/Src/stm32f4xx_hal_adc_ex.c ****     if (READ_BIT(hadc->Instance->CR1, ADC_CR1_JAUTO) != RESET)
 640:../STM32CUBEMX/Drivers/STM32F4xx_HAL_Driver/Src/stm32f4xx_hal_adc_ex.c ****     {
 641:../STM32CUBEMX/Drivers/STM32F4xx_HAL_Driver/Src/stm32f4xx_hal_adc_ex.c ****       ADC_STATE_CLR_SET(hadc->State, HAL_ADC_STATE_INJ_EOC, HAL_ADC_STATE_INJ_BUSY);  
 642:../STM32CUBEMX/Drivers/STM32F4xx_HAL_Driver/Src/stm32f4xx_hal_adc_ex.c ****     }
 643:../STM32CUBEMX/Drivers/STM32F4xx_HAL_Driver/Src/stm32f4xx_hal_adc_ex.c ****     
 644:../STM32CUBEMX/Drivers/STM32F4xx_HAL_Driver/Src/stm32f4xx_hal_adc_ex.c ****     /* State machine update: Check if an injected conversion is ongoing */
 645:../STM32CUBEMX/Drivers/STM32F4xx_HAL_Driver/Src/stm32f4xx_hal_adc_ex.c ****     if (HAL_IS_BIT_SET(hadc->State, HAL_ADC_STATE_INJ_BUSY))
 646:../STM32CUBEMX/Drivers/STM32F4xx_HAL_Driver/Src/stm32f4xx_hal_adc_ex.c ****     {
 647:../STM32CUBEMX/Drivers/STM32F4xx_HAL_Driver/Src/stm32f4xx_hal_adc_ex.c ****       /* Reset ADC error code fields related to conversions on group regular */
 648:../STM32CUBEMX/Drivers/STM32F4xx_HAL_Driver/Src/stm32f4xx_hal_adc_ex.c ****       CLEAR_BIT(hadc->ErrorCode, (HAL_ADC_ERROR_OVR | HAL_ADC_ERROR_DMA));         
 649:../STM32CUBEMX/Drivers/STM32F4xx_HAL_Driver/Src/stm32f4xx_hal_adc_ex.c ****     }
 650:../STM32CUBEMX/Drivers/STM32F4xx_HAL_Driver/Src/stm32f4xx_hal_adc_ex.c ****     else
 651:../STM32CUBEMX/Drivers/STM32F4xx_HAL_Driver/Src/stm32f4xx_hal_adc_ex.c ****     {
 652:../STM32CUBEMX/Drivers/STM32F4xx_HAL_Driver/Src/stm32f4xx_hal_adc_ex.c ****       /* Reset ADC all error code fields */
 653:../STM32CUBEMX/Drivers/STM32F4xx_HAL_Driver/Src/stm32f4xx_hal_adc_ex.c ****       ADC_CLEAR_ERRORCODE(hadc);
 654:../STM32CUBEMX/Drivers/STM32F4xx_HAL_Driver/Src/stm32f4xx_hal_adc_ex.c ****     }
 655:../STM32CUBEMX/Drivers/STM32F4xx_HAL_Driver/Src/stm32f4xx_hal_adc_ex.c ****     
 656:../STM32CUBEMX/Drivers/STM32F4xx_HAL_Driver/Src/stm32f4xx_hal_adc_ex.c ****     /* Process unlocked */
 657:../STM32CUBEMX/Drivers/STM32F4xx_HAL_Driver/Src/stm32f4xx_hal_adc_ex.c ****     /* Unlock before starting ADC conversions: in case of potential           */
ARM GAS  C:\Users\ysl\AppData\Local\Temp\ccRy7Oyd.s 			page 13


 658:../STM32CUBEMX/Drivers/STM32F4xx_HAL_Driver/Src/stm32f4xx_hal_adc_ex.c ****     /* interruption, to let the process to ADC IRQ Handler.                   */
 659:../STM32CUBEMX/Drivers/STM32F4xx_HAL_Driver/Src/stm32f4xx_hal_adc_ex.c ****     __HAL_UNLOCK(hadc);
 660:../STM32CUBEMX/Drivers/STM32F4xx_HAL_Driver/Src/stm32f4xx_hal_adc_ex.c ****     
 661:../STM32CUBEMX/Drivers/STM32F4xx_HAL_Driver/Src/stm32f4xx_hal_adc_ex.c ****     /* Set the DMA transfer complete callback */
 662:../STM32CUBEMX/Drivers/STM32F4xx_HAL_Driver/Src/stm32f4xx_hal_adc_ex.c ****     hadc->DMA_Handle->XferCpltCallback = ADC_MultiModeDMAConvCplt;
 663:../STM32CUBEMX/Drivers/STM32F4xx_HAL_Driver/Src/stm32f4xx_hal_adc_ex.c ****     
 664:../STM32CUBEMX/Drivers/STM32F4xx_HAL_Driver/Src/stm32f4xx_hal_adc_ex.c ****     /* Set the DMA half transfer complete callback */
 665:../STM32CUBEMX/Drivers/STM32F4xx_HAL_Driver/Src/stm32f4xx_hal_adc_ex.c ****     hadc->DMA_Handle->XferHalfCpltCallback = ADC_MultiModeDMAHalfConvCplt;
 666:../STM32CUBEMX/Drivers/STM32F4xx_HAL_Driver/Src/stm32f4xx_hal_adc_ex.c ****     
 667:../STM32CUBEMX/Drivers/STM32F4xx_HAL_Driver/Src/stm32f4xx_hal_adc_ex.c ****     /* Set the DMA error callback */
 668:../STM32CUBEMX/Drivers/STM32F4xx_HAL_Driver/Src/stm32f4xx_hal_adc_ex.c ****     hadc->DMA_Handle->XferErrorCallback = ADC_MultiModeDMAError ;
 669:../STM32CUBEMX/Drivers/STM32F4xx_HAL_Driver/Src/stm32f4xx_hal_adc_ex.c ****     
 670:../STM32CUBEMX/Drivers/STM32F4xx_HAL_Driver/Src/stm32f4xx_hal_adc_ex.c ****     /* Manage ADC and DMA start: ADC overrun interruption, DMA start, ADC     */
 671:../STM32CUBEMX/Drivers/STM32F4xx_HAL_Driver/Src/stm32f4xx_hal_adc_ex.c ****     /* start (in case of SW start):                                           */
 672:../STM32CUBEMX/Drivers/STM32F4xx_HAL_Driver/Src/stm32f4xx_hal_adc_ex.c ****     
 673:../STM32CUBEMX/Drivers/STM32F4xx_HAL_Driver/Src/stm32f4xx_hal_adc_ex.c ****     /* Clear regular group conversion flag and overrun flag */
 674:../STM32CUBEMX/Drivers/STM32F4xx_HAL_Driver/Src/stm32f4xx_hal_adc_ex.c ****     /* (To ensure of no unknown state from potential previous ADC operations) */
 675:../STM32CUBEMX/Drivers/STM32F4xx_HAL_Driver/Src/stm32f4xx_hal_adc_ex.c ****     __HAL_ADC_CLEAR_FLAG(hadc, ADC_FLAG_EOC);
 676:../STM32CUBEMX/Drivers/STM32F4xx_HAL_Driver/Src/stm32f4xx_hal_adc_ex.c **** 
 677:../STM32CUBEMX/Drivers/STM32F4xx_HAL_Driver/Src/stm32f4xx_hal_adc_ex.c ****     /* Enable ADC overrun interrupt */
 678:../STM32CUBEMX/Drivers/STM32F4xx_HAL_Driver/Src/stm32f4xx_hal_adc_ex.c ****     __HAL_ADC_ENABLE_IT(hadc, ADC_IT_OVR);
 679:../STM32CUBEMX/Drivers/STM32F4xx_HAL_Driver/Src/stm32f4xx_hal_adc_ex.c **** 
 680:../STM32CUBEMX/Drivers/STM32F4xx_HAL_Driver/Src/stm32f4xx_hal_adc_ex.c ****     /* Pointer to the common control register to which is belonging hadc    */
 681:../STM32CUBEMX/Drivers/STM32F4xx_HAL_Driver/Src/stm32f4xx_hal_adc_ex.c ****     /* (Depending on STM32F4 product, there may be up to 3 ADC and 1 common */
 682:../STM32CUBEMX/Drivers/STM32F4xx_HAL_Driver/Src/stm32f4xx_hal_adc_ex.c ****     /* control register)                                                    */
 683:../STM32CUBEMX/Drivers/STM32F4xx_HAL_Driver/Src/stm32f4xx_hal_adc_ex.c ****     tmpADC_Common = ADC_COMMON_REGISTER(hadc);
 684:../STM32CUBEMX/Drivers/STM32F4xx_HAL_Driver/Src/stm32f4xx_hal_adc_ex.c **** 
 685:../STM32CUBEMX/Drivers/STM32F4xx_HAL_Driver/Src/stm32f4xx_hal_adc_ex.c ****     if (hadc->Init.DMAContinuousRequests != DISABLE)
 686:../STM32CUBEMX/Drivers/STM32F4xx_HAL_Driver/Src/stm32f4xx_hal_adc_ex.c ****     {
 687:../STM32CUBEMX/Drivers/STM32F4xx_HAL_Driver/Src/stm32f4xx_hal_adc_ex.c ****       /* Enable the selected ADC DMA request after last transfer */
 688:../STM32CUBEMX/Drivers/STM32F4xx_HAL_Driver/Src/stm32f4xx_hal_adc_ex.c ****       tmpADC_Common->CCR |= ADC_CCR_DDS;
 689:../STM32CUBEMX/Drivers/STM32F4xx_HAL_Driver/Src/stm32f4xx_hal_adc_ex.c ****     }
 690:../STM32CUBEMX/Drivers/STM32F4xx_HAL_Driver/Src/stm32f4xx_hal_adc_ex.c ****     else
 691:../STM32CUBEMX/Drivers/STM32F4xx_HAL_Driver/Src/stm32f4xx_hal_adc_ex.c ****     {
 692:../STM32CUBEMX/Drivers/STM32F4xx_HAL_Driver/Src/stm32f4xx_hal_adc_ex.c ****       /* Disable the selected ADC EOC rising on each regular channel conversion */
 693:../STM32CUBEMX/Drivers/STM32F4xx_HAL_Driver/Src/stm32f4xx_hal_adc_ex.c ****       tmpADC_Common->CCR &= ~ADC_CCR_DDS;
 694:../STM32CUBEMX/Drivers/STM32F4xx_HAL_Driver/Src/stm32f4xx_hal_adc_ex.c ****     }
 695:../STM32CUBEMX/Drivers/STM32F4xx_HAL_Driver/Src/stm32f4xx_hal_adc_ex.c ****     
 696:../STM32CUBEMX/Drivers/STM32F4xx_HAL_Driver/Src/stm32f4xx_hal_adc_ex.c ****     /* Enable the DMA Stream */
 697:../STM32CUBEMX/Drivers/STM32F4xx_HAL_Driver/Src/stm32f4xx_hal_adc_ex.c ****     HAL_DMA_Start_IT(hadc->DMA_Handle, (uint32_t)&tmpADC_Common->CDR, (uint32_t)pData, Length);
 698:../STM32CUBEMX/Drivers/STM32F4xx_HAL_Driver/Src/stm32f4xx_hal_adc_ex.c ****     
 699:../STM32CUBEMX/Drivers/STM32F4xx_HAL_Driver/Src/stm32f4xx_hal_adc_ex.c ****     /* if no external trigger present enable software conversion of regular channels */
 700:../STM32CUBEMX/Drivers/STM32F4xx_HAL_Driver/Src/stm32f4xx_hal_adc_ex.c ****     if((hadc->Instance->CR2 & ADC_CR2_EXTEN) == RESET) 
 701:../STM32CUBEMX/Drivers/STM32F4xx_HAL_Driver/Src/stm32f4xx_hal_adc_ex.c ****     {
 702:../STM32CUBEMX/Drivers/STM32F4xx_HAL_Driver/Src/stm32f4xx_hal_adc_ex.c ****       /* Enable the selected ADC software conversion for regular group */
 703:../STM32CUBEMX/Drivers/STM32F4xx_HAL_Driver/Src/stm32f4xx_hal_adc_ex.c ****       hadc->Instance->CR2 |= (uint32_t)ADC_CR2_SWSTART;
 704:../STM32CUBEMX/Drivers/STM32F4xx_HAL_Driver/Src/stm32f4xx_hal_adc_ex.c ****     }
 705:../STM32CUBEMX/Drivers/STM32F4xx_HAL_Driver/Src/stm32f4xx_hal_adc_ex.c ****   }
 706:../STM32CUBEMX/Drivers/STM32F4xx_HAL_Driver/Src/stm32f4xx_hal_adc_ex.c ****   else
 707:../STM32CUBEMX/Drivers/STM32F4xx_HAL_Driver/Src/stm32f4xx_hal_adc_ex.c ****   {
 708:../STM32CUBEMX/Drivers/STM32F4xx_HAL_Driver/Src/stm32f4xx_hal_adc_ex.c ****     /* Update ADC state machine to error */
 709:../STM32CUBEMX/Drivers/STM32F4xx_HAL_Driver/Src/stm32f4xx_hal_adc_ex.c ****     SET_BIT(hadc->State, HAL_ADC_STATE_ERROR_INTERNAL);
 710:../STM32CUBEMX/Drivers/STM32F4xx_HAL_Driver/Src/stm32f4xx_hal_adc_ex.c **** 
 711:../STM32CUBEMX/Drivers/STM32F4xx_HAL_Driver/Src/stm32f4xx_hal_adc_ex.c ****     /* Set ADC error code to ADC IP internal error */
 712:../STM32CUBEMX/Drivers/STM32F4xx_HAL_Driver/Src/stm32f4xx_hal_adc_ex.c ****     SET_BIT(hadc->ErrorCode, HAL_ADC_ERROR_INTERNAL);
 713:../STM32CUBEMX/Drivers/STM32F4xx_HAL_Driver/Src/stm32f4xx_hal_adc_ex.c ****   }
 714:../STM32CUBEMX/Drivers/STM32F4xx_HAL_Driver/Src/stm32f4xx_hal_adc_ex.c ****   
ARM GAS  C:\Users\ysl\AppData\Local\Temp\ccRy7Oyd.s 			page 14


 715:../STM32CUBEMX/Drivers/STM32F4xx_HAL_Driver/Src/stm32f4xx_hal_adc_ex.c ****   /* Return function status */
 716:../STM32CUBEMX/Drivers/STM32F4xx_HAL_Driver/Src/stm32f4xx_hal_adc_ex.c ****   return HAL_OK;
 717:../STM32CUBEMX/Drivers/STM32F4xx_HAL_Driver/Src/stm32f4xx_hal_adc_ex.c **** }
 718:../STM32CUBEMX/Drivers/STM32F4xx_HAL_Driver/Src/stm32f4xx_hal_adc_ex.c **** 
 719:../STM32CUBEMX/Drivers/STM32F4xx_HAL_Driver/Src/stm32f4xx_hal_adc_ex.c **** /**
 720:../STM32CUBEMX/Drivers/STM32F4xx_HAL_Driver/Src/stm32f4xx_hal_adc_ex.c ****   * @brief  Disables ADC DMA (multi-ADC mode) and disables ADC peripheral    
 721:../STM32CUBEMX/Drivers/STM32F4xx_HAL_Driver/Src/stm32f4xx_hal_adc_ex.c ****   * @param  hadc pointer to a ADC_HandleTypeDef structure that contains
 722:../STM32CUBEMX/Drivers/STM32F4xx_HAL_Driver/Src/stm32f4xx_hal_adc_ex.c ****   *         the configuration information for the specified ADC.
 723:../STM32CUBEMX/Drivers/STM32F4xx_HAL_Driver/Src/stm32f4xx_hal_adc_ex.c ****   * @retval HAL status
 724:../STM32CUBEMX/Drivers/STM32F4xx_HAL_Driver/Src/stm32f4xx_hal_adc_ex.c ****   */
 725:../STM32CUBEMX/Drivers/STM32F4xx_HAL_Driver/Src/stm32f4xx_hal_adc_ex.c **** HAL_StatusTypeDef HAL_ADCEx_MultiModeStop_DMA(ADC_HandleTypeDef* hadc)
 726:../STM32CUBEMX/Drivers/STM32F4xx_HAL_Driver/Src/stm32f4xx_hal_adc_ex.c **** {
 727:../STM32CUBEMX/Drivers/STM32F4xx_HAL_Driver/Src/stm32f4xx_hal_adc_ex.c ****   HAL_StatusTypeDef tmp_hal_status = HAL_OK;
 728:../STM32CUBEMX/Drivers/STM32F4xx_HAL_Driver/Src/stm32f4xx_hal_adc_ex.c ****   ADC_Common_TypeDef *tmpADC_Common;
 729:../STM32CUBEMX/Drivers/STM32F4xx_HAL_Driver/Src/stm32f4xx_hal_adc_ex.c ****   
 730:../STM32CUBEMX/Drivers/STM32F4xx_HAL_Driver/Src/stm32f4xx_hal_adc_ex.c ****   /* Check the parameters */
 731:../STM32CUBEMX/Drivers/STM32F4xx_HAL_Driver/Src/stm32f4xx_hal_adc_ex.c ****   assert_param(IS_ADC_ALL_INSTANCE(hadc->Instance));
 732:../STM32CUBEMX/Drivers/STM32F4xx_HAL_Driver/Src/stm32f4xx_hal_adc_ex.c ****   
 733:../STM32CUBEMX/Drivers/STM32F4xx_HAL_Driver/Src/stm32f4xx_hal_adc_ex.c ****   /* Process locked */
 734:../STM32CUBEMX/Drivers/STM32F4xx_HAL_Driver/Src/stm32f4xx_hal_adc_ex.c ****   __HAL_LOCK(hadc);
 735:../STM32CUBEMX/Drivers/STM32F4xx_HAL_Driver/Src/stm32f4xx_hal_adc_ex.c ****   
 736:../STM32CUBEMX/Drivers/STM32F4xx_HAL_Driver/Src/stm32f4xx_hal_adc_ex.c ****   /* Stop potential conversion on going, on regular and injected groups */
 737:../STM32CUBEMX/Drivers/STM32F4xx_HAL_Driver/Src/stm32f4xx_hal_adc_ex.c ****   /* Disable ADC peripheral */
 738:../STM32CUBEMX/Drivers/STM32F4xx_HAL_Driver/Src/stm32f4xx_hal_adc_ex.c ****   __HAL_ADC_DISABLE(hadc);
 739:../STM32CUBEMX/Drivers/STM32F4xx_HAL_Driver/Src/stm32f4xx_hal_adc_ex.c **** 
 740:../STM32CUBEMX/Drivers/STM32F4xx_HAL_Driver/Src/stm32f4xx_hal_adc_ex.c ****   /* Pointer to the common control register to which is belonging hadc    */
 741:../STM32CUBEMX/Drivers/STM32F4xx_HAL_Driver/Src/stm32f4xx_hal_adc_ex.c ****   /* (Depending on STM32F4 product, there may be up to 3 ADC and 1 common */
 742:../STM32CUBEMX/Drivers/STM32F4xx_HAL_Driver/Src/stm32f4xx_hal_adc_ex.c ****   /* control register)                                                    */
 743:../STM32CUBEMX/Drivers/STM32F4xx_HAL_Driver/Src/stm32f4xx_hal_adc_ex.c ****   tmpADC_Common = ADC_COMMON_REGISTER(hadc);
 744:../STM32CUBEMX/Drivers/STM32F4xx_HAL_Driver/Src/stm32f4xx_hal_adc_ex.c **** 
 745:../STM32CUBEMX/Drivers/STM32F4xx_HAL_Driver/Src/stm32f4xx_hal_adc_ex.c ****   /* Check if ADC is effectively disabled */
 746:../STM32CUBEMX/Drivers/STM32F4xx_HAL_Driver/Src/stm32f4xx_hal_adc_ex.c ****   if(HAL_IS_BIT_CLR(hadc->Instance->CR2, ADC_CR2_ADON))
 747:../STM32CUBEMX/Drivers/STM32F4xx_HAL_Driver/Src/stm32f4xx_hal_adc_ex.c ****   {
 748:../STM32CUBEMX/Drivers/STM32F4xx_HAL_Driver/Src/stm32f4xx_hal_adc_ex.c ****     /* Disable the selected ADC DMA mode for multimode */
 749:../STM32CUBEMX/Drivers/STM32F4xx_HAL_Driver/Src/stm32f4xx_hal_adc_ex.c ****     tmpADC_Common->CCR &= ~ADC_CCR_DDS;
 750:../STM32CUBEMX/Drivers/STM32F4xx_HAL_Driver/Src/stm32f4xx_hal_adc_ex.c ****     
 751:../STM32CUBEMX/Drivers/STM32F4xx_HAL_Driver/Src/stm32f4xx_hal_adc_ex.c ****     /* Disable the DMA channel (in case of DMA in circular mode or stop while */
 752:../STM32CUBEMX/Drivers/STM32F4xx_HAL_Driver/Src/stm32f4xx_hal_adc_ex.c ****     /* DMA transfer is on going)                                              */
 753:../STM32CUBEMX/Drivers/STM32F4xx_HAL_Driver/Src/stm32f4xx_hal_adc_ex.c ****     tmp_hal_status = HAL_DMA_Abort(hadc->DMA_Handle);
 754:../STM32CUBEMX/Drivers/STM32F4xx_HAL_Driver/Src/stm32f4xx_hal_adc_ex.c ****     
 755:../STM32CUBEMX/Drivers/STM32F4xx_HAL_Driver/Src/stm32f4xx_hal_adc_ex.c ****     /* Disable ADC overrun interrupt */
 756:../STM32CUBEMX/Drivers/STM32F4xx_HAL_Driver/Src/stm32f4xx_hal_adc_ex.c ****     __HAL_ADC_DISABLE_IT(hadc, ADC_IT_OVR);
 757:../STM32CUBEMX/Drivers/STM32F4xx_HAL_Driver/Src/stm32f4xx_hal_adc_ex.c ****     
 758:../STM32CUBEMX/Drivers/STM32F4xx_HAL_Driver/Src/stm32f4xx_hal_adc_ex.c ****     /* Set ADC state */
 759:../STM32CUBEMX/Drivers/STM32F4xx_HAL_Driver/Src/stm32f4xx_hal_adc_ex.c ****     ADC_STATE_CLR_SET(hadc->State,
 760:../STM32CUBEMX/Drivers/STM32F4xx_HAL_Driver/Src/stm32f4xx_hal_adc_ex.c ****                       HAL_ADC_STATE_REG_BUSY | HAL_ADC_STATE_INJ_BUSY,
 761:../STM32CUBEMX/Drivers/STM32F4xx_HAL_Driver/Src/stm32f4xx_hal_adc_ex.c ****                       HAL_ADC_STATE_READY);
 762:../STM32CUBEMX/Drivers/STM32F4xx_HAL_Driver/Src/stm32f4xx_hal_adc_ex.c ****   }
 763:../STM32CUBEMX/Drivers/STM32F4xx_HAL_Driver/Src/stm32f4xx_hal_adc_ex.c ****   
 764:../STM32CUBEMX/Drivers/STM32F4xx_HAL_Driver/Src/stm32f4xx_hal_adc_ex.c ****   /* Process unlocked */
 765:../STM32CUBEMX/Drivers/STM32F4xx_HAL_Driver/Src/stm32f4xx_hal_adc_ex.c ****   __HAL_UNLOCK(hadc);
 766:../STM32CUBEMX/Drivers/STM32F4xx_HAL_Driver/Src/stm32f4xx_hal_adc_ex.c ****   
 767:../STM32CUBEMX/Drivers/STM32F4xx_HAL_Driver/Src/stm32f4xx_hal_adc_ex.c ****   /* Return function status */
 768:../STM32CUBEMX/Drivers/STM32F4xx_HAL_Driver/Src/stm32f4xx_hal_adc_ex.c ****   return tmp_hal_status;
 769:../STM32CUBEMX/Drivers/STM32F4xx_HAL_Driver/Src/stm32f4xx_hal_adc_ex.c **** }
 770:../STM32CUBEMX/Drivers/STM32F4xx_HAL_Driver/Src/stm32f4xx_hal_adc_ex.c **** 
 771:../STM32CUBEMX/Drivers/STM32F4xx_HAL_Driver/Src/stm32f4xx_hal_adc_ex.c **** /**
ARM GAS  C:\Users\ysl\AppData\Local\Temp\ccRy7Oyd.s 			page 15


 772:../STM32CUBEMX/Drivers/STM32F4xx_HAL_Driver/Src/stm32f4xx_hal_adc_ex.c ****   * @brief  Returns the last ADC1, ADC2 and ADC3 regular conversions results 
 773:../STM32CUBEMX/Drivers/STM32F4xx_HAL_Driver/Src/stm32f4xx_hal_adc_ex.c ****   *         data in the selected multi mode.
 774:../STM32CUBEMX/Drivers/STM32F4xx_HAL_Driver/Src/stm32f4xx_hal_adc_ex.c ****   * @param  hadc pointer to a ADC_HandleTypeDef structure that contains
 775:../STM32CUBEMX/Drivers/STM32F4xx_HAL_Driver/Src/stm32f4xx_hal_adc_ex.c ****   *         the configuration information for the specified ADC.
 776:../STM32CUBEMX/Drivers/STM32F4xx_HAL_Driver/Src/stm32f4xx_hal_adc_ex.c ****   * @retval The converted data value.
 777:../STM32CUBEMX/Drivers/STM32F4xx_HAL_Driver/Src/stm32f4xx_hal_adc_ex.c ****   */
 778:../STM32CUBEMX/Drivers/STM32F4xx_HAL_Driver/Src/stm32f4xx_hal_adc_ex.c **** uint32_t HAL_ADCEx_MultiModeGetValue(ADC_HandleTypeDef* hadc)
 779:../STM32CUBEMX/Drivers/STM32F4xx_HAL_Driver/Src/stm32f4xx_hal_adc_ex.c **** {
 780:../STM32CUBEMX/Drivers/STM32F4xx_HAL_Driver/Src/stm32f4xx_hal_adc_ex.c ****   ADC_Common_TypeDef *tmpADC_Common;
 781:../STM32CUBEMX/Drivers/STM32F4xx_HAL_Driver/Src/stm32f4xx_hal_adc_ex.c **** 
 782:../STM32CUBEMX/Drivers/STM32F4xx_HAL_Driver/Src/stm32f4xx_hal_adc_ex.c ****   /* Pointer to the common control register to which is belonging hadc    */
 783:../STM32CUBEMX/Drivers/STM32F4xx_HAL_Driver/Src/stm32f4xx_hal_adc_ex.c ****   /* (Depending on STM32F4 product, there may be up to 3 ADC and 1 common */
 784:../STM32CUBEMX/Drivers/STM32F4xx_HAL_Driver/Src/stm32f4xx_hal_adc_ex.c ****   /* control register)                                                    */
 785:../STM32CUBEMX/Drivers/STM32F4xx_HAL_Driver/Src/stm32f4xx_hal_adc_ex.c ****   tmpADC_Common = ADC_COMMON_REGISTER(hadc);
 786:../STM32CUBEMX/Drivers/STM32F4xx_HAL_Driver/Src/stm32f4xx_hal_adc_ex.c **** 
 787:../STM32CUBEMX/Drivers/STM32F4xx_HAL_Driver/Src/stm32f4xx_hal_adc_ex.c ****   /* Return the multi mode conversion value */
 788:../STM32CUBEMX/Drivers/STM32F4xx_HAL_Driver/Src/stm32f4xx_hal_adc_ex.c ****   return tmpADC_Common->CDR;
 789:../STM32CUBEMX/Drivers/STM32F4xx_HAL_Driver/Src/stm32f4xx_hal_adc_ex.c **** }
 790:../STM32CUBEMX/Drivers/STM32F4xx_HAL_Driver/Src/stm32f4xx_hal_adc_ex.c **** 
 791:../STM32CUBEMX/Drivers/STM32F4xx_HAL_Driver/Src/stm32f4xx_hal_adc_ex.c **** /**
 792:../STM32CUBEMX/Drivers/STM32F4xx_HAL_Driver/Src/stm32f4xx_hal_adc_ex.c ****   * @brief  Injected conversion complete callback in non blocking mode 
 793:../STM32CUBEMX/Drivers/STM32F4xx_HAL_Driver/Src/stm32f4xx_hal_adc_ex.c ****   * @param  hadc pointer to a ADC_HandleTypeDef structure that contains
 794:../STM32CUBEMX/Drivers/STM32F4xx_HAL_Driver/Src/stm32f4xx_hal_adc_ex.c ****   *         the configuration information for the specified ADC.
 795:../STM32CUBEMX/Drivers/STM32F4xx_HAL_Driver/Src/stm32f4xx_hal_adc_ex.c ****   * @retval None
 796:../STM32CUBEMX/Drivers/STM32F4xx_HAL_Driver/Src/stm32f4xx_hal_adc_ex.c ****   */
 797:../STM32CUBEMX/Drivers/STM32F4xx_HAL_Driver/Src/stm32f4xx_hal_adc_ex.c **** __weak void HAL_ADCEx_InjectedConvCpltCallback(ADC_HandleTypeDef* hadc)
 798:../STM32CUBEMX/Drivers/STM32F4xx_HAL_Driver/Src/stm32f4xx_hal_adc_ex.c **** {
 799:../STM32CUBEMX/Drivers/STM32F4xx_HAL_Driver/Src/stm32f4xx_hal_adc_ex.c ****   /* Prevent unused argument(s) compilation warning */
 800:../STM32CUBEMX/Drivers/STM32F4xx_HAL_Driver/Src/stm32f4xx_hal_adc_ex.c ****   UNUSED(hadc);
 801:../STM32CUBEMX/Drivers/STM32F4xx_HAL_Driver/Src/stm32f4xx_hal_adc_ex.c ****   /* NOTE : This function Should not be modified, when the callback is needed,
 802:../STM32CUBEMX/Drivers/STM32F4xx_HAL_Driver/Src/stm32f4xx_hal_adc_ex.c ****             the HAL_ADC_InjectedConvCpltCallback could be implemented in the user file
 803:../STM32CUBEMX/Drivers/STM32F4xx_HAL_Driver/Src/stm32f4xx_hal_adc_ex.c ****    */
 804:../STM32CUBEMX/Drivers/STM32F4xx_HAL_Driver/Src/stm32f4xx_hal_adc_ex.c **** }
 805:../STM32CUBEMX/Drivers/STM32F4xx_HAL_Driver/Src/stm32f4xx_hal_adc_ex.c **** 
 806:../STM32CUBEMX/Drivers/STM32F4xx_HAL_Driver/Src/stm32f4xx_hal_adc_ex.c **** /**
 807:../STM32CUBEMX/Drivers/STM32F4xx_HAL_Driver/Src/stm32f4xx_hal_adc_ex.c ****   * @brief  Configures for the selected ADC injected channel its corresponding
 808:../STM32CUBEMX/Drivers/STM32F4xx_HAL_Driver/Src/stm32f4xx_hal_adc_ex.c ****   *         rank in the sequencer and its sample time.
 809:../STM32CUBEMX/Drivers/STM32F4xx_HAL_Driver/Src/stm32f4xx_hal_adc_ex.c ****   * @param  hadc pointer to a ADC_HandleTypeDef structure that contains
 810:../STM32CUBEMX/Drivers/STM32F4xx_HAL_Driver/Src/stm32f4xx_hal_adc_ex.c ****   *         the configuration information for the specified ADC.
 811:../STM32CUBEMX/Drivers/STM32F4xx_HAL_Driver/Src/stm32f4xx_hal_adc_ex.c ****   * @param  sConfigInjected ADC configuration structure for injected channel. 
 812:../STM32CUBEMX/Drivers/STM32F4xx_HAL_Driver/Src/stm32f4xx_hal_adc_ex.c ****   * @retval None
 813:../STM32CUBEMX/Drivers/STM32F4xx_HAL_Driver/Src/stm32f4xx_hal_adc_ex.c ****   */
 814:../STM32CUBEMX/Drivers/STM32F4xx_HAL_Driver/Src/stm32f4xx_hal_adc_ex.c **** HAL_StatusTypeDef HAL_ADCEx_InjectedConfigChannel(ADC_HandleTypeDef* hadc, ADC_InjectionConfTypeDef
 815:../STM32CUBEMX/Drivers/STM32F4xx_HAL_Driver/Src/stm32f4xx_hal_adc_ex.c **** {
 816:../STM32CUBEMX/Drivers/STM32F4xx_HAL_Driver/Src/stm32f4xx_hal_adc_ex.c ****   
 817:../STM32CUBEMX/Drivers/STM32F4xx_HAL_Driver/Src/stm32f4xx_hal_adc_ex.c **** #ifdef USE_FULL_ASSERT  
 818:../STM32CUBEMX/Drivers/STM32F4xx_HAL_Driver/Src/stm32f4xx_hal_adc_ex.c ****   uint32_t tmp = 0U;
 819:../STM32CUBEMX/Drivers/STM32F4xx_HAL_Driver/Src/stm32f4xx_hal_adc_ex.c ****   
 820:../STM32CUBEMX/Drivers/STM32F4xx_HAL_Driver/Src/stm32f4xx_hal_adc_ex.c **** #endif /* USE_FULL_ASSERT  */
 821:../STM32CUBEMX/Drivers/STM32F4xx_HAL_Driver/Src/stm32f4xx_hal_adc_ex.c **** 
 822:../STM32CUBEMX/Drivers/STM32F4xx_HAL_Driver/Src/stm32f4xx_hal_adc_ex.c ****   ADC_Common_TypeDef *tmpADC_Common;
 823:../STM32CUBEMX/Drivers/STM32F4xx_HAL_Driver/Src/stm32f4xx_hal_adc_ex.c **** 
 824:../STM32CUBEMX/Drivers/STM32F4xx_HAL_Driver/Src/stm32f4xx_hal_adc_ex.c ****   /* Check the parameters */
 825:../STM32CUBEMX/Drivers/STM32F4xx_HAL_Driver/Src/stm32f4xx_hal_adc_ex.c ****   assert_param(IS_ADC_CHANNEL(sConfigInjected->InjectedChannel));
 826:../STM32CUBEMX/Drivers/STM32F4xx_HAL_Driver/Src/stm32f4xx_hal_adc_ex.c ****   assert_param(IS_ADC_INJECTED_RANK(sConfigInjected->InjectedRank));
 827:../STM32CUBEMX/Drivers/STM32F4xx_HAL_Driver/Src/stm32f4xx_hal_adc_ex.c ****   assert_param(IS_ADC_SAMPLE_TIME(sConfigInjected->InjectedSamplingTime));
 828:../STM32CUBEMX/Drivers/STM32F4xx_HAL_Driver/Src/stm32f4xx_hal_adc_ex.c ****   assert_param(IS_ADC_EXT_INJEC_TRIG(sConfigInjected->ExternalTrigInjecConv));
ARM GAS  C:\Users\ysl\AppData\Local\Temp\ccRy7Oyd.s 			page 16


 829:../STM32CUBEMX/Drivers/STM32F4xx_HAL_Driver/Src/stm32f4xx_hal_adc_ex.c ****   assert_param(IS_ADC_INJECTED_LENGTH(sConfigInjected->InjectedNbrOfConversion));
 830:../STM32CUBEMX/Drivers/STM32F4xx_HAL_Driver/Src/stm32f4xx_hal_adc_ex.c ****   assert_param(IS_FUNCTIONAL_STATE(sConfigInjected->AutoInjectedConv));
 831:../STM32CUBEMX/Drivers/STM32F4xx_HAL_Driver/Src/stm32f4xx_hal_adc_ex.c ****   assert_param(IS_FUNCTIONAL_STATE(sConfigInjected->InjectedDiscontinuousConvMode));
 832:../STM32CUBEMX/Drivers/STM32F4xx_HAL_Driver/Src/stm32f4xx_hal_adc_ex.c **** 
 833:../STM32CUBEMX/Drivers/STM32F4xx_HAL_Driver/Src/stm32f4xx_hal_adc_ex.c **** #ifdef USE_FULL_ASSERT
 834:../STM32CUBEMX/Drivers/STM32F4xx_HAL_Driver/Src/stm32f4xx_hal_adc_ex.c ****   tmp = ADC_GET_RESOLUTION(hadc);
 835:../STM32CUBEMX/Drivers/STM32F4xx_HAL_Driver/Src/stm32f4xx_hal_adc_ex.c ****   assert_param(IS_ADC_RANGE(tmp, sConfigInjected->InjectedOffset));
 836:../STM32CUBEMX/Drivers/STM32F4xx_HAL_Driver/Src/stm32f4xx_hal_adc_ex.c **** #endif /* USE_FULL_ASSERT  */
 837:../STM32CUBEMX/Drivers/STM32F4xx_HAL_Driver/Src/stm32f4xx_hal_adc_ex.c **** 
 838:../STM32CUBEMX/Drivers/STM32F4xx_HAL_Driver/Src/stm32f4xx_hal_adc_ex.c ****   if(sConfigInjected->ExternalTrigInjecConv != ADC_INJECTED_SOFTWARE_START)
 839:../STM32CUBEMX/Drivers/STM32F4xx_HAL_Driver/Src/stm32f4xx_hal_adc_ex.c ****   {
 840:../STM32CUBEMX/Drivers/STM32F4xx_HAL_Driver/Src/stm32f4xx_hal_adc_ex.c ****     assert_param(IS_ADC_EXT_INJEC_TRIG_EDGE(sConfigInjected->ExternalTrigInjecConvEdge));
 841:../STM32CUBEMX/Drivers/STM32F4xx_HAL_Driver/Src/stm32f4xx_hal_adc_ex.c ****   }
 842:../STM32CUBEMX/Drivers/STM32F4xx_HAL_Driver/Src/stm32f4xx_hal_adc_ex.c **** 
 843:../STM32CUBEMX/Drivers/STM32F4xx_HAL_Driver/Src/stm32f4xx_hal_adc_ex.c ****   /* Process locked */
 844:../STM32CUBEMX/Drivers/STM32F4xx_HAL_Driver/Src/stm32f4xx_hal_adc_ex.c ****   __HAL_LOCK(hadc);
 845:../STM32CUBEMX/Drivers/STM32F4xx_HAL_Driver/Src/stm32f4xx_hal_adc_ex.c ****   
 846:../STM32CUBEMX/Drivers/STM32F4xx_HAL_Driver/Src/stm32f4xx_hal_adc_ex.c ****   /* if ADC_Channel_10 ... ADC_Channel_18 is selected */
 847:../STM32CUBEMX/Drivers/STM32F4xx_HAL_Driver/Src/stm32f4xx_hal_adc_ex.c ****   if (sConfigInjected->InjectedChannel > ADC_CHANNEL_9)
 848:../STM32CUBEMX/Drivers/STM32F4xx_HAL_Driver/Src/stm32f4xx_hal_adc_ex.c ****   {
 849:../STM32CUBEMX/Drivers/STM32F4xx_HAL_Driver/Src/stm32f4xx_hal_adc_ex.c ****     /* Clear the old sample time */
 850:../STM32CUBEMX/Drivers/STM32F4xx_HAL_Driver/Src/stm32f4xx_hal_adc_ex.c ****     hadc->Instance->SMPR1 &= ~ADC_SMPR1(ADC_SMPR1_SMP10, sConfigInjected->InjectedChannel);
 851:../STM32CUBEMX/Drivers/STM32F4xx_HAL_Driver/Src/stm32f4xx_hal_adc_ex.c ****     
 852:../STM32CUBEMX/Drivers/STM32F4xx_HAL_Driver/Src/stm32f4xx_hal_adc_ex.c ****     /* Set the new sample time */
 853:../STM32CUBEMX/Drivers/STM32F4xx_HAL_Driver/Src/stm32f4xx_hal_adc_ex.c ****     hadc->Instance->SMPR1 |= ADC_SMPR1(sConfigInjected->InjectedSamplingTime, sConfigInjected->Inje
 854:../STM32CUBEMX/Drivers/STM32F4xx_HAL_Driver/Src/stm32f4xx_hal_adc_ex.c ****   }
 855:../STM32CUBEMX/Drivers/STM32F4xx_HAL_Driver/Src/stm32f4xx_hal_adc_ex.c ****   else /* ADC_Channel include in ADC_Channel_[0..9] */
 856:../STM32CUBEMX/Drivers/STM32F4xx_HAL_Driver/Src/stm32f4xx_hal_adc_ex.c ****   {
 857:../STM32CUBEMX/Drivers/STM32F4xx_HAL_Driver/Src/stm32f4xx_hal_adc_ex.c ****     /* Clear the old sample time */
 858:../STM32CUBEMX/Drivers/STM32F4xx_HAL_Driver/Src/stm32f4xx_hal_adc_ex.c ****     hadc->Instance->SMPR2 &= ~ADC_SMPR2(ADC_SMPR2_SMP0, sConfigInjected->InjectedChannel);
 859:../STM32CUBEMX/Drivers/STM32F4xx_HAL_Driver/Src/stm32f4xx_hal_adc_ex.c ****     
 860:../STM32CUBEMX/Drivers/STM32F4xx_HAL_Driver/Src/stm32f4xx_hal_adc_ex.c ****     /* Set the new sample time */
 861:../STM32CUBEMX/Drivers/STM32F4xx_HAL_Driver/Src/stm32f4xx_hal_adc_ex.c ****     hadc->Instance->SMPR2 |= ADC_SMPR2(sConfigInjected->InjectedSamplingTime, sConfigInjected->Inje
 862:../STM32CUBEMX/Drivers/STM32F4xx_HAL_Driver/Src/stm32f4xx_hal_adc_ex.c ****   }
 863:../STM32CUBEMX/Drivers/STM32F4xx_HAL_Driver/Src/stm32f4xx_hal_adc_ex.c ****   
 864:../STM32CUBEMX/Drivers/STM32F4xx_HAL_Driver/Src/stm32f4xx_hal_adc_ex.c ****   /*---------------------------- ADCx JSQR Configuration -----------------*/
 865:../STM32CUBEMX/Drivers/STM32F4xx_HAL_Driver/Src/stm32f4xx_hal_adc_ex.c ****   hadc->Instance->JSQR &= ~(ADC_JSQR_JL);
 866:../STM32CUBEMX/Drivers/STM32F4xx_HAL_Driver/Src/stm32f4xx_hal_adc_ex.c ****   hadc->Instance->JSQR |=  ADC_SQR1(sConfigInjected->InjectedNbrOfConversion);
 867:../STM32CUBEMX/Drivers/STM32F4xx_HAL_Driver/Src/stm32f4xx_hal_adc_ex.c ****   
 868:../STM32CUBEMX/Drivers/STM32F4xx_HAL_Driver/Src/stm32f4xx_hal_adc_ex.c ****   /* Rank configuration */
 869:../STM32CUBEMX/Drivers/STM32F4xx_HAL_Driver/Src/stm32f4xx_hal_adc_ex.c ****   
 870:../STM32CUBEMX/Drivers/STM32F4xx_HAL_Driver/Src/stm32f4xx_hal_adc_ex.c ****   /* Clear the old SQx bits for the selected rank */
 871:../STM32CUBEMX/Drivers/STM32F4xx_HAL_Driver/Src/stm32f4xx_hal_adc_ex.c ****   hadc->Instance->JSQR &= ~ADC_JSQR(ADC_JSQR_JSQ1, sConfigInjected->InjectedRank,sConfigInjected->I
 872:../STM32CUBEMX/Drivers/STM32F4xx_HAL_Driver/Src/stm32f4xx_hal_adc_ex.c ****    
 873:../STM32CUBEMX/Drivers/STM32F4xx_HAL_Driver/Src/stm32f4xx_hal_adc_ex.c ****   /* Set the SQx bits for the selected rank */
 874:../STM32CUBEMX/Drivers/STM32F4xx_HAL_Driver/Src/stm32f4xx_hal_adc_ex.c ****   hadc->Instance->JSQR |= ADC_JSQR(sConfigInjected->InjectedChannel, sConfigInjected->InjectedRank,
 875:../STM32CUBEMX/Drivers/STM32F4xx_HAL_Driver/Src/stm32f4xx_hal_adc_ex.c **** 
 876:../STM32CUBEMX/Drivers/STM32F4xx_HAL_Driver/Src/stm32f4xx_hal_adc_ex.c ****   /* Enable external trigger if trigger selection is different of software  */
 877:../STM32CUBEMX/Drivers/STM32F4xx_HAL_Driver/Src/stm32f4xx_hal_adc_ex.c ****   /* start.                                                                 */
 878:../STM32CUBEMX/Drivers/STM32F4xx_HAL_Driver/Src/stm32f4xx_hal_adc_ex.c ****   /* Note: This configuration keeps the hardware feature of parameter       */
 879:../STM32CUBEMX/Drivers/STM32F4xx_HAL_Driver/Src/stm32f4xx_hal_adc_ex.c ****   /*       ExternalTrigConvEdge "trigger edge none" equivalent to           */
 880:../STM32CUBEMX/Drivers/STM32F4xx_HAL_Driver/Src/stm32f4xx_hal_adc_ex.c ****   /*       software start.                                                  */ 
 881:../STM32CUBEMX/Drivers/STM32F4xx_HAL_Driver/Src/stm32f4xx_hal_adc_ex.c ****   if(sConfigInjected->ExternalTrigInjecConv != ADC_INJECTED_SOFTWARE_START)
 882:../STM32CUBEMX/Drivers/STM32F4xx_HAL_Driver/Src/stm32f4xx_hal_adc_ex.c ****   {  
 883:../STM32CUBEMX/Drivers/STM32F4xx_HAL_Driver/Src/stm32f4xx_hal_adc_ex.c ****     /* Select external trigger to start conversion */
 884:../STM32CUBEMX/Drivers/STM32F4xx_HAL_Driver/Src/stm32f4xx_hal_adc_ex.c ****     hadc->Instance->CR2 &= ~(ADC_CR2_JEXTSEL);
 885:../STM32CUBEMX/Drivers/STM32F4xx_HAL_Driver/Src/stm32f4xx_hal_adc_ex.c ****     hadc->Instance->CR2 |=  sConfigInjected->ExternalTrigInjecConv;
ARM GAS  C:\Users\ysl\AppData\Local\Temp\ccRy7Oyd.s 			page 17


 886:../STM32CUBEMX/Drivers/STM32F4xx_HAL_Driver/Src/stm32f4xx_hal_adc_ex.c ****     
 887:../STM32CUBEMX/Drivers/STM32F4xx_HAL_Driver/Src/stm32f4xx_hal_adc_ex.c ****     /* Select external trigger polarity */
 888:../STM32CUBEMX/Drivers/STM32F4xx_HAL_Driver/Src/stm32f4xx_hal_adc_ex.c ****     hadc->Instance->CR2 &= ~(ADC_CR2_JEXTEN);
 889:../STM32CUBEMX/Drivers/STM32F4xx_HAL_Driver/Src/stm32f4xx_hal_adc_ex.c ****     hadc->Instance->CR2 |= sConfigInjected->ExternalTrigInjecConvEdge;
 890:../STM32CUBEMX/Drivers/STM32F4xx_HAL_Driver/Src/stm32f4xx_hal_adc_ex.c ****   }
 891:../STM32CUBEMX/Drivers/STM32F4xx_HAL_Driver/Src/stm32f4xx_hal_adc_ex.c ****   else
 892:../STM32CUBEMX/Drivers/STM32F4xx_HAL_Driver/Src/stm32f4xx_hal_adc_ex.c ****   {
 893:../STM32CUBEMX/Drivers/STM32F4xx_HAL_Driver/Src/stm32f4xx_hal_adc_ex.c ****     /* Reset the external trigger */
 894:../STM32CUBEMX/Drivers/STM32F4xx_HAL_Driver/Src/stm32f4xx_hal_adc_ex.c ****     hadc->Instance->CR2 &= ~(ADC_CR2_JEXTSEL);
 895:../STM32CUBEMX/Drivers/STM32F4xx_HAL_Driver/Src/stm32f4xx_hal_adc_ex.c ****     hadc->Instance->CR2 &= ~(ADC_CR2_JEXTEN);  
 896:../STM32CUBEMX/Drivers/STM32F4xx_HAL_Driver/Src/stm32f4xx_hal_adc_ex.c ****   }
 897:../STM32CUBEMX/Drivers/STM32F4xx_HAL_Driver/Src/stm32f4xx_hal_adc_ex.c ****   
 898:../STM32CUBEMX/Drivers/STM32F4xx_HAL_Driver/Src/stm32f4xx_hal_adc_ex.c ****   if (sConfigInjected->AutoInjectedConv != DISABLE)
 899:../STM32CUBEMX/Drivers/STM32F4xx_HAL_Driver/Src/stm32f4xx_hal_adc_ex.c ****   {
 900:../STM32CUBEMX/Drivers/STM32F4xx_HAL_Driver/Src/stm32f4xx_hal_adc_ex.c ****     /* Enable the selected ADC automatic injected group conversion */
 901:../STM32CUBEMX/Drivers/STM32F4xx_HAL_Driver/Src/stm32f4xx_hal_adc_ex.c ****     hadc->Instance->CR1 |= ADC_CR1_JAUTO;
 902:../STM32CUBEMX/Drivers/STM32F4xx_HAL_Driver/Src/stm32f4xx_hal_adc_ex.c ****   }
 903:../STM32CUBEMX/Drivers/STM32F4xx_HAL_Driver/Src/stm32f4xx_hal_adc_ex.c ****   else
 904:../STM32CUBEMX/Drivers/STM32F4xx_HAL_Driver/Src/stm32f4xx_hal_adc_ex.c ****   {
 905:../STM32CUBEMX/Drivers/STM32F4xx_HAL_Driver/Src/stm32f4xx_hal_adc_ex.c ****     /* Disable the selected ADC automatic injected group conversion */
 906:../STM32CUBEMX/Drivers/STM32F4xx_HAL_Driver/Src/stm32f4xx_hal_adc_ex.c ****     hadc->Instance->CR1 &= ~(ADC_CR1_JAUTO);
 907:../STM32CUBEMX/Drivers/STM32F4xx_HAL_Driver/Src/stm32f4xx_hal_adc_ex.c ****   }
 908:../STM32CUBEMX/Drivers/STM32F4xx_HAL_Driver/Src/stm32f4xx_hal_adc_ex.c ****   
 909:../STM32CUBEMX/Drivers/STM32F4xx_HAL_Driver/Src/stm32f4xx_hal_adc_ex.c ****   if (sConfigInjected->InjectedDiscontinuousConvMode != DISABLE)
 910:../STM32CUBEMX/Drivers/STM32F4xx_HAL_Driver/Src/stm32f4xx_hal_adc_ex.c ****   {
 911:../STM32CUBEMX/Drivers/STM32F4xx_HAL_Driver/Src/stm32f4xx_hal_adc_ex.c ****     /* Enable the selected ADC injected discontinuous mode */
 912:../STM32CUBEMX/Drivers/STM32F4xx_HAL_Driver/Src/stm32f4xx_hal_adc_ex.c ****     hadc->Instance->CR1 |= ADC_CR1_JDISCEN;
 913:../STM32CUBEMX/Drivers/STM32F4xx_HAL_Driver/Src/stm32f4xx_hal_adc_ex.c ****   }
 914:../STM32CUBEMX/Drivers/STM32F4xx_HAL_Driver/Src/stm32f4xx_hal_adc_ex.c ****   else
 915:../STM32CUBEMX/Drivers/STM32F4xx_HAL_Driver/Src/stm32f4xx_hal_adc_ex.c ****   {
 916:../STM32CUBEMX/Drivers/STM32F4xx_HAL_Driver/Src/stm32f4xx_hal_adc_ex.c ****     /* Disable the selected ADC injected discontinuous mode */
 917:../STM32CUBEMX/Drivers/STM32F4xx_HAL_Driver/Src/stm32f4xx_hal_adc_ex.c ****     hadc->Instance->CR1 &= ~(ADC_CR1_JDISCEN);
 918:../STM32CUBEMX/Drivers/STM32F4xx_HAL_Driver/Src/stm32f4xx_hal_adc_ex.c ****   }
 919:../STM32CUBEMX/Drivers/STM32F4xx_HAL_Driver/Src/stm32f4xx_hal_adc_ex.c ****   
 920:../STM32CUBEMX/Drivers/STM32F4xx_HAL_Driver/Src/stm32f4xx_hal_adc_ex.c ****   switch(sConfigInjected->InjectedRank)
 921:../STM32CUBEMX/Drivers/STM32F4xx_HAL_Driver/Src/stm32f4xx_hal_adc_ex.c ****   {
 922:../STM32CUBEMX/Drivers/STM32F4xx_HAL_Driver/Src/stm32f4xx_hal_adc_ex.c ****     case 1U:
 923:../STM32CUBEMX/Drivers/STM32F4xx_HAL_Driver/Src/stm32f4xx_hal_adc_ex.c ****       /* Set injected channel 1 offset */
 924:../STM32CUBEMX/Drivers/STM32F4xx_HAL_Driver/Src/stm32f4xx_hal_adc_ex.c ****       hadc->Instance->JOFR1 &= ~(ADC_JOFR1_JOFFSET1);
 925:../STM32CUBEMX/Drivers/STM32F4xx_HAL_Driver/Src/stm32f4xx_hal_adc_ex.c ****       hadc->Instance->JOFR1 |= sConfigInjected->InjectedOffset;
 926:../STM32CUBEMX/Drivers/STM32F4xx_HAL_Driver/Src/stm32f4xx_hal_adc_ex.c ****       break;
 927:../STM32CUBEMX/Drivers/STM32F4xx_HAL_Driver/Src/stm32f4xx_hal_adc_ex.c ****     case 2U:
 928:../STM32CUBEMX/Drivers/STM32F4xx_HAL_Driver/Src/stm32f4xx_hal_adc_ex.c ****       /* Set injected channel 2 offset */
 929:../STM32CUBEMX/Drivers/STM32F4xx_HAL_Driver/Src/stm32f4xx_hal_adc_ex.c ****       hadc->Instance->JOFR2 &= ~(ADC_JOFR2_JOFFSET2);
 930:../STM32CUBEMX/Drivers/STM32F4xx_HAL_Driver/Src/stm32f4xx_hal_adc_ex.c ****       hadc->Instance->JOFR2 |= sConfigInjected->InjectedOffset;
 931:../STM32CUBEMX/Drivers/STM32F4xx_HAL_Driver/Src/stm32f4xx_hal_adc_ex.c ****       break;
 932:../STM32CUBEMX/Drivers/STM32F4xx_HAL_Driver/Src/stm32f4xx_hal_adc_ex.c ****     case 3U:
 933:../STM32CUBEMX/Drivers/STM32F4xx_HAL_Driver/Src/stm32f4xx_hal_adc_ex.c ****       /* Set injected channel 3 offset */
 934:../STM32CUBEMX/Drivers/STM32F4xx_HAL_Driver/Src/stm32f4xx_hal_adc_ex.c ****       hadc->Instance->JOFR3 &= ~(ADC_JOFR3_JOFFSET3);
 935:../STM32CUBEMX/Drivers/STM32F4xx_HAL_Driver/Src/stm32f4xx_hal_adc_ex.c ****       hadc->Instance->JOFR3 |= sConfigInjected->InjectedOffset;
 936:../STM32CUBEMX/Drivers/STM32F4xx_HAL_Driver/Src/stm32f4xx_hal_adc_ex.c ****       break;
 937:../STM32CUBEMX/Drivers/STM32F4xx_HAL_Driver/Src/stm32f4xx_hal_adc_ex.c ****     default:
 938:../STM32CUBEMX/Drivers/STM32F4xx_HAL_Driver/Src/stm32f4xx_hal_adc_ex.c ****       /* Set injected channel 4 offset */
 939:../STM32CUBEMX/Drivers/STM32F4xx_HAL_Driver/Src/stm32f4xx_hal_adc_ex.c ****       hadc->Instance->JOFR4 &= ~(ADC_JOFR4_JOFFSET4);
 940:../STM32CUBEMX/Drivers/STM32F4xx_HAL_Driver/Src/stm32f4xx_hal_adc_ex.c ****       hadc->Instance->JOFR4 |= sConfigInjected->InjectedOffset;
 941:../STM32CUBEMX/Drivers/STM32F4xx_HAL_Driver/Src/stm32f4xx_hal_adc_ex.c ****       break;
 942:../STM32CUBEMX/Drivers/STM32F4xx_HAL_Driver/Src/stm32f4xx_hal_adc_ex.c ****   }
ARM GAS  C:\Users\ysl\AppData\Local\Temp\ccRy7Oyd.s 			page 18


 943:../STM32CUBEMX/Drivers/STM32F4xx_HAL_Driver/Src/stm32f4xx_hal_adc_ex.c **** 
 944:../STM32CUBEMX/Drivers/STM32F4xx_HAL_Driver/Src/stm32f4xx_hal_adc_ex.c ****   /* Pointer to the common control register to which is belonging hadc    */
 945:../STM32CUBEMX/Drivers/STM32F4xx_HAL_Driver/Src/stm32f4xx_hal_adc_ex.c ****   /* (Depending on STM32F4 product, there may be up to 3 ADC and 1 common */
 946:../STM32CUBEMX/Drivers/STM32F4xx_HAL_Driver/Src/stm32f4xx_hal_adc_ex.c ****   /* control register)                                                    */
 947:../STM32CUBEMX/Drivers/STM32F4xx_HAL_Driver/Src/stm32f4xx_hal_adc_ex.c ****     tmpADC_Common = ADC_COMMON_REGISTER(hadc);
 948:../STM32CUBEMX/Drivers/STM32F4xx_HAL_Driver/Src/stm32f4xx_hal_adc_ex.c **** 
 949:../STM32CUBEMX/Drivers/STM32F4xx_HAL_Driver/Src/stm32f4xx_hal_adc_ex.c ****   /* if ADC1 Channel_18 is selected enable VBAT Channel */
 950:../STM32CUBEMX/Drivers/STM32F4xx_HAL_Driver/Src/stm32f4xx_hal_adc_ex.c ****   if ((hadc->Instance == ADC1) && (sConfigInjected->InjectedChannel == ADC_CHANNEL_VBAT))
 951:../STM32CUBEMX/Drivers/STM32F4xx_HAL_Driver/Src/stm32f4xx_hal_adc_ex.c ****   {
 952:../STM32CUBEMX/Drivers/STM32F4xx_HAL_Driver/Src/stm32f4xx_hal_adc_ex.c ****     /* Enable the VBAT channel*/
 953:../STM32CUBEMX/Drivers/STM32F4xx_HAL_Driver/Src/stm32f4xx_hal_adc_ex.c ****     tmpADC_Common->CCR |= ADC_CCR_VBATE;
 954:../STM32CUBEMX/Drivers/STM32F4xx_HAL_Driver/Src/stm32f4xx_hal_adc_ex.c ****   }
 955:../STM32CUBEMX/Drivers/STM32F4xx_HAL_Driver/Src/stm32f4xx_hal_adc_ex.c ****   
 956:../STM32CUBEMX/Drivers/STM32F4xx_HAL_Driver/Src/stm32f4xx_hal_adc_ex.c ****   /* if ADC1 Channel_16 or Channel_17 is selected enable TSVREFE Channel(Temperature sensor and VRE
 957:../STM32CUBEMX/Drivers/STM32F4xx_HAL_Driver/Src/stm32f4xx_hal_adc_ex.c ****   if ((hadc->Instance == ADC1) && ((sConfigInjected->InjectedChannel == ADC_CHANNEL_TEMPSENSOR) || 
 958:../STM32CUBEMX/Drivers/STM32F4xx_HAL_Driver/Src/stm32f4xx_hal_adc_ex.c ****   {
 959:../STM32CUBEMX/Drivers/STM32F4xx_HAL_Driver/Src/stm32f4xx_hal_adc_ex.c ****     /* Enable the TSVREFE channel*/
 960:../STM32CUBEMX/Drivers/STM32F4xx_HAL_Driver/Src/stm32f4xx_hal_adc_ex.c ****     tmpADC_Common->CCR |= ADC_CCR_TSVREFE;
 961:../STM32CUBEMX/Drivers/STM32F4xx_HAL_Driver/Src/stm32f4xx_hal_adc_ex.c ****   }
 962:../STM32CUBEMX/Drivers/STM32F4xx_HAL_Driver/Src/stm32f4xx_hal_adc_ex.c ****   
 963:../STM32CUBEMX/Drivers/STM32F4xx_HAL_Driver/Src/stm32f4xx_hal_adc_ex.c ****   /* Process unlocked */
 964:../STM32CUBEMX/Drivers/STM32F4xx_HAL_Driver/Src/stm32f4xx_hal_adc_ex.c ****   __HAL_UNLOCK(hadc);
 965:../STM32CUBEMX/Drivers/STM32F4xx_HAL_Driver/Src/stm32f4xx_hal_adc_ex.c ****   
 966:../STM32CUBEMX/Drivers/STM32F4xx_HAL_Driver/Src/stm32f4xx_hal_adc_ex.c ****   /* Return function status */
 967:../STM32CUBEMX/Drivers/STM32F4xx_HAL_Driver/Src/stm32f4xx_hal_adc_ex.c ****   return HAL_OK;
 968:../STM32CUBEMX/Drivers/STM32F4xx_HAL_Driver/Src/stm32f4xx_hal_adc_ex.c **** }
 969:../STM32CUBEMX/Drivers/STM32F4xx_HAL_Driver/Src/stm32f4xx_hal_adc_ex.c **** 
 970:../STM32CUBEMX/Drivers/STM32F4xx_HAL_Driver/Src/stm32f4xx_hal_adc_ex.c **** /**
 971:../STM32CUBEMX/Drivers/STM32F4xx_HAL_Driver/Src/stm32f4xx_hal_adc_ex.c ****   * @brief  Configures the ADC multi-mode 
 972:../STM32CUBEMX/Drivers/STM32F4xx_HAL_Driver/Src/stm32f4xx_hal_adc_ex.c ****   * @param  hadc       pointer to a ADC_HandleTypeDef structure that contains
 973:../STM32CUBEMX/Drivers/STM32F4xx_HAL_Driver/Src/stm32f4xx_hal_adc_ex.c ****   *                     the configuration information for the specified ADC.  
 974:../STM32CUBEMX/Drivers/STM32F4xx_HAL_Driver/Src/stm32f4xx_hal_adc_ex.c ****   * @param  multimode  pointer to an ADC_MultiModeTypeDef structure that contains 
 975:../STM32CUBEMX/Drivers/STM32F4xx_HAL_Driver/Src/stm32f4xx_hal_adc_ex.c ****   *                     the configuration information for  multimode.
 976:../STM32CUBEMX/Drivers/STM32F4xx_HAL_Driver/Src/stm32f4xx_hal_adc_ex.c ****   * @retval HAL status
 977:../STM32CUBEMX/Drivers/STM32F4xx_HAL_Driver/Src/stm32f4xx_hal_adc_ex.c ****   */
 978:../STM32CUBEMX/Drivers/STM32F4xx_HAL_Driver/Src/stm32f4xx_hal_adc_ex.c **** HAL_StatusTypeDef HAL_ADCEx_MultiModeConfigChannel(ADC_HandleTypeDef* hadc, ADC_MultiModeTypeDef* m
 979:../STM32CUBEMX/Drivers/STM32F4xx_HAL_Driver/Src/stm32f4xx_hal_adc_ex.c **** {
 980:../STM32CUBEMX/Drivers/STM32F4xx_HAL_Driver/Src/stm32f4xx_hal_adc_ex.c **** 
 981:../STM32CUBEMX/Drivers/STM32F4xx_HAL_Driver/Src/stm32f4xx_hal_adc_ex.c ****   ADC_Common_TypeDef *tmpADC_Common;
 982:../STM32CUBEMX/Drivers/STM32F4xx_HAL_Driver/Src/stm32f4xx_hal_adc_ex.c **** 
 983:../STM32CUBEMX/Drivers/STM32F4xx_HAL_Driver/Src/stm32f4xx_hal_adc_ex.c ****   /* Check the parameters */
 984:../STM32CUBEMX/Drivers/STM32F4xx_HAL_Driver/Src/stm32f4xx_hal_adc_ex.c ****   assert_param(IS_ADC_MODE(multimode->Mode));
 985:../STM32CUBEMX/Drivers/STM32F4xx_HAL_Driver/Src/stm32f4xx_hal_adc_ex.c ****   assert_param(IS_ADC_DMA_ACCESS_MODE(multimode->DMAAccessMode));
 986:../STM32CUBEMX/Drivers/STM32F4xx_HAL_Driver/Src/stm32f4xx_hal_adc_ex.c ****   assert_param(IS_ADC_SAMPLING_DELAY(multimode->TwoSamplingDelay));
 987:../STM32CUBEMX/Drivers/STM32F4xx_HAL_Driver/Src/stm32f4xx_hal_adc_ex.c ****   
 988:../STM32CUBEMX/Drivers/STM32F4xx_HAL_Driver/Src/stm32f4xx_hal_adc_ex.c ****   /* Process locked */
 989:../STM32CUBEMX/Drivers/STM32F4xx_HAL_Driver/Src/stm32f4xx_hal_adc_ex.c ****   __HAL_LOCK(hadc);
 990:../STM32CUBEMX/Drivers/STM32F4xx_HAL_Driver/Src/stm32f4xx_hal_adc_ex.c **** 
 991:../STM32CUBEMX/Drivers/STM32F4xx_HAL_Driver/Src/stm32f4xx_hal_adc_ex.c ****   /* Pointer to the common control register to which is belonging hadc    */
 992:../STM32CUBEMX/Drivers/STM32F4xx_HAL_Driver/Src/stm32f4xx_hal_adc_ex.c ****   /* (Depending on STM32F4 product, there may be up to 3 ADC and 1 common */
 993:../STM32CUBEMX/Drivers/STM32F4xx_HAL_Driver/Src/stm32f4xx_hal_adc_ex.c ****   /* control register)                                                    */
 994:../STM32CUBEMX/Drivers/STM32F4xx_HAL_Driver/Src/stm32f4xx_hal_adc_ex.c ****   tmpADC_Common = ADC_COMMON_REGISTER(hadc);
 995:../STM32CUBEMX/Drivers/STM32F4xx_HAL_Driver/Src/stm32f4xx_hal_adc_ex.c **** 
 996:../STM32CUBEMX/Drivers/STM32F4xx_HAL_Driver/Src/stm32f4xx_hal_adc_ex.c ****   /* Set ADC mode */
 997:../STM32CUBEMX/Drivers/STM32F4xx_HAL_Driver/Src/stm32f4xx_hal_adc_ex.c ****   tmpADC_Common->CCR &= ~(ADC_CCR_MULTI);
 998:../STM32CUBEMX/Drivers/STM32F4xx_HAL_Driver/Src/stm32f4xx_hal_adc_ex.c ****   tmpADC_Common->CCR |= multimode->Mode;
 999:../STM32CUBEMX/Drivers/STM32F4xx_HAL_Driver/Src/stm32f4xx_hal_adc_ex.c ****   
ARM GAS  C:\Users\ysl\AppData\Local\Temp\ccRy7Oyd.s 			page 19


1000:../STM32CUBEMX/Drivers/STM32F4xx_HAL_Driver/Src/stm32f4xx_hal_adc_ex.c ****   /* Set the ADC DMA access mode */
1001:../STM32CUBEMX/Drivers/STM32F4xx_HAL_Driver/Src/stm32f4xx_hal_adc_ex.c ****   tmpADC_Common->CCR &= ~(ADC_CCR_DMA);
1002:../STM32CUBEMX/Drivers/STM32F4xx_HAL_Driver/Src/stm32f4xx_hal_adc_ex.c ****   tmpADC_Common->CCR |= multimode->DMAAccessMode;
1003:../STM32CUBEMX/Drivers/STM32F4xx_HAL_Driver/Src/stm32f4xx_hal_adc_ex.c ****   
1004:../STM32CUBEMX/Drivers/STM32F4xx_HAL_Driver/Src/stm32f4xx_hal_adc_ex.c ****   /* Set delay between two sampling phases */
1005:../STM32CUBEMX/Drivers/STM32F4xx_HAL_Driver/Src/stm32f4xx_hal_adc_ex.c ****   tmpADC_Common->CCR &= ~(ADC_CCR_DELAY);
1006:../STM32CUBEMX/Drivers/STM32F4xx_HAL_Driver/Src/stm32f4xx_hal_adc_ex.c ****   tmpADC_Common->CCR |= multimode->TwoSamplingDelay;
1007:../STM32CUBEMX/Drivers/STM32F4xx_HAL_Driver/Src/stm32f4xx_hal_adc_ex.c ****   
1008:../STM32CUBEMX/Drivers/STM32F4xx_HAL_Driver/Src/stm32f4xx_hal_adc_ex.c ****   /* Process unlocked */
1009:../STM32CUBEMX/Drivers/STM32F4xx_HAL_Driver/Src/stm32f4xx_hal_adc_ex.c ****   __HAL_UNLOCK(hadc);
1010:../STM32CUBEMX/Drivers/STM32F4xx_HAL_Driver/Src/stm32f4xx_hal_adc_ex.c ****   
1011:../STM32CUBEMX/Drivers/STM32F4xx_HAL_Driver/Src/stm32f4xx_hal_adc_ex.c ****   /* Return function status */
1012:../STM32CUBEMX/Drivers/STM32F4xx_HAL_Driver/Src/stm32f4xx_hal_adc_ex.c ****   return HAL_OK;
1013:../STM32CUBEMX/Drivers/STM32F4xx_HAL_Driver/Src/stm32f4xx_hal_adc_ex.c **** }
1014:../STM32CUBEMX/Drivers/STM32F4xx_HAL_Driver/Src/stm32f4xx_hal_adc_ex.c **** 
1015:../STM32CUBEMX/Drivers/STM32F4xx_HAL_Driver/Src/stm32f4xx_hal_adc_ex.c **** /**
1016:../STM32CUBEMX/Drivers/STM32F4xx_HAL_Driver/Src/stm32f4xx_hal_adc_ex.c ****   * @}
1017:../STM32CUBEMX/Drivers/STM32F4xx_HAL_Driver/Src/stm32f4xx_hal_adc_ex.c ****   */
1018:../STM32CUBEMX/Drivers/STM32F4xx_HAL_Driver/Src/stm32f4xx_hal_adc_ex.c **** 
1019:../STM32CUBEMX/Drivers/STM32F4xx_HAL_Driver/Src/stm32f4xx_hal_adc_ex.c **** /**
1020:../STM32CUBEMX/Drivers/STM32F4xx_HAL_Driver/Src/stm32f4xx_hal_adc_ex.c ****   * @brief  DMA transfer complete callback. 
1021:../STM32CUBEMX/Drivers/STM32F4xx_HAL_Driver/Src/stm32f4xx_hal_adc_ex.c ****   * @param  hdma pointer to a DMA_HandleTypeDef structure that contains
1022:../STM32CUBEMX/Drivers/STM32F4xx_HAL_Driver/Src/stm32f4xx_hal_adc_ex.c ****   *                the configuration information for the specified DMA module.
1023:../STM32CUBEMX/Drivers/STM32F4xx_HAL_Driver/Src/stm32f4xx_hal_adc_ex.c ****   * @retval None
1024:../STM32CUBEMX/Drivers/STM32F4xx_HAL_Driver/Src/stm32f4xx_hal_adc_ex.c ****   */
1025:../STM32CUBEMX/Drivers/STM32F4xx_HAL_Driver/Src/stm32f4xx_hal_adc_ex.c **** static void ADC_MultiModeDMAConvCplt(DMA_HandleTypeDef *hdma)   
1026:../STM32CUBEMX/Drivers/STM32F4xx_HAL_Driver/Src/stm32f4xx_hal_adc_ex.c **** {
1027:../STM32CUBEMX/Drivers/STM32F4xx_HAL_Driver/Src/stm32f4xx_hal_adc_ex.c ****   /* Retrieve ADC handle corresponding to current DMA handle */
1028:../STM32CUBEMX/Drivers/STM32F4xx_HAL_Driver/Src/stm32f4xx_hal_adc_ex.c ****   ADC_HandleTypeDef* hadc = ( ADC_HandleTypeDef* )((DMA_HandleTypeDef* )hdma)->Parent;
1029:../STM32CUBEMX/Drivers/STM32F4xx_HAL_Driver/Src/stm32f4xx_hal_adc_ex.c ****   
1030:../STM32CUBEMX/Drivers/STM32F4xx_HAL_Driver/Src/stm32f4xx_hal_adc_ex.c ****   /* Update state machine on conversion status if not in error state */
1031:../STM32CUBEMX/Drivers/STM32F4xx_HAL_Driver/Src/stm32f4xx_hal_adc_ex.c ****   if (HAL_IS_BIT_CLR(hadc->State, HAL_ADC_STATE_ERROR_INTERNAL | HAL_ADC_STATE_ERROR_DMA))
1032:../STM32CUBEMX/Drivers/STM32F4xx_HAL_Driver/Src/stm32f4xx_hal_adc_ex.c ****   {
1033:../STM32CUBEMX/Drivers/STM32F4xx_HAL_Driver/Src/stm32f4xx_hal_adc_ex.c ****     /* Update ADC state machine */
1034:../STM32CUBEMX/Drivers/STM32F4xx_HAL_Driver/Src/stm32f4xx_hal_adc_ex.c ****     SET_BIT(hadc->State, HAL_ADC_STATE_REG_EOC);
1035:../STM32CUBEMX/Drivers/STM32F4xx_HAL_Driver/Src/stm32f4xx_hal_adc_ex.c ****     
1036:../STM32CUBEMX/Drivers/STM32F4xx_HAL_Driver/Src/stm32f4xx_hal_adc_ex.c ****     /* Determine whether any further conversion upcoming on group regular   */
1037:../STM32CUBEMX/Drivers/STM32F4xx_HAL_Driver/Src/stm32f4xx_hal_adc_ex.c ****     /* by external trigger, continuous mode or scan sequence on going.      */
1038:../STM32CUBEMX/Drivers/STM32F4xx_HAL_Driver/Src/stm32f4xx_hal_adc_ex.c ****     /* Note: On STM32F4, there is no independent flag of end of sequence.   */
1039:../STM32CUBEMX/Drivers/STM32F4xx_HAL_Driver/Src/stm32f4xx_hal_adc_ex.c ****     /*       The test of scan sequence on going is done either with scan    */
1040:../STM32CUBEMX/Drivers/STM32F4xx_HAL_Driver/Src/stm32f4xx_hal_adc_ex.c ****     /*       sequence disabled or with end of conversion flag set to        */
1041:../STM32CUBEMX/Drivers/STM32F4xx_HAL_Driver/Src/stm32f4xx_hal_adc_ex.c ****     /*       of end of sequence.                                            */
1042:../STM32CUBEMX/Drivers/STM32F4xx_HAL_Driver/Src/stm32f4xx_hal_adc_ex.c ****     if(ADC_IS_SOFTWARE_START_REGULAR(hadc)                   &&
1043:../STM32CUBEMX/Drivers/STM32F4xx_HAL_Driver/Src/stm32f4xx_hal_adc_ex.c ****        (hadc->Init.ContinuousConvMode == DISABLE)            &&
1044:../STM32CUBEMX/Drivers/STM32F4xx_HAL_Driver/Src/stm32f4xx_hal_adc_ex.c ****        (HAL_IS_BIT_CLR(hadc->Instance->SQR1, ADC_SQR1_L) || 
1045:../STM32CUBEMX/Drivers/STM32F4xx_HAL_Driver/Src/stm32f4xx_hal_adc_ex.c ****         HAL_IS_BIT_CLR(hadc->Instance->CR2, ADC_CR2_EOCS)  )   )
1046:../STM32CUBEMX/Drivers/STM32F4xx_HAL_Driver/Src/stm32f4xx_hal_adc_ex.c ****     {
1047:../STM32CUBEMX/Drivers/STM32F4xx_HAL_Driver/Src/stm32f4xx_hal_adc_ex.c ****       /* Disable ADC end of single conversion interrupt on group regular */
1048:../STM32CUBEMX/Drivers/STM32F4xx_HAL_Driver/Src/stm32f4xx_hal_adc_ex.c ****       /* Note: Overrun interrupt was enabled with EOC interrupt in          */
1049:../STM32CUBEMX/Drivers/STM32F4xx_HAL_Driver/Src/stm32f4xx_hal_adc_ex.c ****       /* HAL_ADC_Start_IT(), but is not disabled here because can be used   */
1050:../STM32CUBEMX/Drivers/STM32F4xx_HAL_Driver/Src/stm32f4xx_hal_adc_ex.c ****       /* by overrun IRQ process below.                                      */
1051:../STM32CUBEMX/Drivers/STM32F4xx_HAL_Driver/Src/stm32f4xx_hal_adc_ex.c ****       __HAL_ADC_DISABLE_IT(hadc, ADC_IT_EOC);
1052:../STM32CUBEMX/Drivers/STM32F4xx_HAL_Driver/Src/stm32f4xx_hal_adc_ex.c ****       
1053:../STM32CUBEMX/Drivers/STM32F4xx_HAL_Driver/Src/stm32f4xx_hal_adc_ex.c ****       /* Set ADC state */
1054:../STM32CUBEMX/Drivers/STM32F4xx_HAL_Driver/Src/stm32f4xx_hal_adc_ex.c ****       CLEAR_BIT(hadc->State, HAL_ADC_STATE_REG_BUSY);   
1055:../STM32CUBEMX/Drivers/STM32F4xx_HAL_Driver/Src/stm32f4xx_hal_adc_ex.c ****       
1056:../STM32CUBEMX/Drivers/STM32F4xx_HAL_Driver/Src/stm32f4xx_hal_adc_ex.c ****       if (HAL_IS_BIT_CLR(hadc->State, HAL_ADC_STATE_INJ_BUSY))
ARM GAS  C:\Users\ysl\AppData\Local\Temp\ccRy7Oyd.s 			page 20


1057:../STM32CUBEMX/Drivers/STM32F4xx_HAL_Driver/Src/stm32f4xx_hal_adc_ex.c ****       {
1058:../STM32CUBEMX/Drivers/STM32F4xx_HAL_Driver/Src/stm32f4xx_hal_adc_ex.c ****         SET_BIT(hadc->State, HAL_ADC_STATE_READY);
1059:../STM32CUBEMX/Drivers/STM32F4xx_HAL_Driver/Src/stm32f4xx_hal_adc_ex.c ****       }
1060:../STM32CUBEMX/Drivers/STM32F4xx_HAL_Driver/Src/stm32f4xx_hal_adc_ex.c ****     }
1061:../STM32CUBEMX/Drivers/STM32F4xx_HAL_Driver/Src/stm32f4xx_hal_adc_ex.c ****     
1062:../STM32CUBEMX/Drivers/STM32F4xx_HAL_Driver/Src/stm32f4xx_hal_adc_ex.c ****     /* Conversion complete callback */
1063:../STM32CUBEMX/Drivers/STM32F4xx_HAL_Driver/Src/stm32f4xx_hal_adc_ex.c ****     HAL_ADC_ConvCpltCallback(hadc);
1064:../STM32CUBEMX/Drivers/STM32F4xx_HAL_Driver/Src/stm32f4xx_hal_adc_ex.c ****   }
1065:../STM32CUBEMX/Drivers/STM32F4xx_HAL_Driver/Src/stm32f4xx_hal_adc_ex.c ****   else
1066:../STM32CUBEMX/Drivers/STM32F4xx_HAL_Driver/Src/stm32f4xx_hal_adc_ex.c ****   {
1067:../STM32CUBEMX/Drivers/STM32F4xx_HAL_Driver/Src/stm32f4xx_hal_adc_ex.c ****     /* Call DMA error callback */
1068:../STM32CUBEMX/Drivers/STM32F4xx_HAL_Driver/Src/stm32f4xx_hal_adc_ex.c ****     hadc->DMA_Handle->XferErrorCallback(hdma);
1069:../STM32CUBEMX/Drivers/STM32F4xx_HAL_Driver/Src/stm32f4xx_hal_adc_ex.c ****   }
1070:../STM32CUBEMX/Drivers/STM32F4xx_HAL_Driver/Src/stm32f4xx_hal_adc_ex.c **** }
1071:../STM32CUBEMX/Drivers/STM32F4xx_HAL_Driver/Src/stm32f4xx_hal_adc_ex.c **** 
1072:../STM32CUBEMX/Drivers/STM32F4xx_HAL_Driver/Src/stm32f4xx_hal_adc_ex.c **** /**
1073:../STM32CUBEMX/Drivers/STM32F4xx_HAL_Driver/Src/stm32f4xx_hal_adc_ex.c ****   * @brief  DMA half transfer complete callback. 
1074:../STM32CUBEMX/Drivers/STM32F4xx_HAL_Driver/Src/stm32f4xx_hal_adc_ex.c ****   * @param  hdma pointer to a DMA_HandleTypeDef structure that contains
1075:../STM32CUBEMX/Drivers/STM32F4xx_HAL_Driver/Src/stm32f4xx_hal_adc_ex.c ****   *                the configuration information for the specified DMA module.
1076:../STM32CUBEMX/Drivers/STM32F4xx_HAL_Driver/Src/stm32f4xx_hal_adc_ex.c ****   * @retval None
1077:../STM32CUBEMX/Drivers/STM32F4xx_HAL_Driver/Src/stm32f4xx_hal_adc_ex.c ****   */
1078:../STM32CUBEMX/Drivers/STM32F4xx_HAL_Driver/Src/stm32f4xx_hal_adc_ex.c **** static void ADC_MultiModeDMAHalfConvCplt(DMA_HandleTypeDef *hdma)   
1079:../STM32CUBEMX/Drivers/STM32F4xx_HAL_Driver/Src/stm32f4xx_hal_adc_ex.c **** {
1080:../STM32CUBEMX/Drivers/STM32F4xx_HAL_Driver/Src/stm32f4xx_hal_adc_ex.c ****     ADC_HandleTypeDef* hadc = ( ADC_HandleTypeDef* )((DMA_HandleTypeDef* )hdma)->Parent;
1081:../STM32CUBEMX/Drivers/STM32F4xx_HAL_Driver/Src/stm32f4xx_hal_adc_ex.c ****     /* Conversion complete callback */
1082:../STM32CUBEMX/Drivers/STM32F4xx_HAL_Driver/Src/stm32f4xx_hal_adc_ex.c ****     HAL_ADC_ConvHalfCpltCallback(hadc); 
1083:../STM32CUBEMX/Drivers/STM32F4xx_HAL_Driver/Src/stm32f4xx_hal_adc_ex.c **** }
1084:../STM32CUBEMX/Drivers/STM32F4xx_HAL_Driver/Src/stm32f4xx_hal_adc_ex.c **** 
1085:../STM32CUBEMX/Drivers/STM32F4xx_HAL_Driver/Src/stm32f4xx_hal_adc_ex.c **** /**
1086:../STM32CUBEMX/Drivers/STM32F4xx_HAL_Driver/Src/stm32f4xx_hal_adc_ex.c ****   * @brief  DMA error callback 
1087:../STM32CUBEMX/Drivers/STM32F4xx_HAL_Driver/Src/stm32f4xx_hal_adc_ex.c ****   * @param  hdma pointer to a DMA_HandleTypeDef structure that contains
1088:../STM32CUBEMX/Drivers/STM32F4xx_HAL_Driver/Src/stm32f4xx_hal_adc_ex.c ****   *                the configuration information for the specified DMA module.
1089:../STM32CUBEMX/Drivers/STM32F4xx_HAL_Driver/Src/stm32f4xx_hal_adc_ex.c ****   * @retval None
1090:../STM32CUBEMX/Drivers/STM32F4xx_HAL_Driver/Src/stm32f4xx_hal_adc_ex.c ****   */
1091:../STM32CUBEMX/Drivers/STM32F4xx_HAL_Driver/Src/stm32f4xx_hal_adc_ex.c **** static void ADC_MultiModeDMAError(DMA_HandleTypeDef *hdma)   
1092:../STM32CUBEMX/Drivers/STM32F4xx_HAL_Driver/Src/stm32f4xx_hal_adc_ex.c **** {
  29              		.loc 1 1092 1 view -0
  30              		.cfi_startproc
  31              		@ args = 0, pretend = 0, frame = 0
  32              		@ frame_needed = 0, uses_anonymous_args = 0
  33              		.loc 1 1092 1 is_stmt 0 view .LVU1
  34 0000 08B5     		push	{r3, lr}
  35              	.LCFI0:
  36              		.cfi_def_cfa_offset 8
  37              		.cfi_offset 3, -8
  38              		.cfi_offset 14, -4
1093:../STM32CUBEMX/Drivers/STM32F4xx_HAL_Driver/Src/stm32f4xx_hal_adc_ex.c ****     ADC_HandleTypeDef* hadc = ( ADC_HandleTypeDef* )((DMA_HandleTypeDef* )hdma)->Parent;
  39              		.loc 1 1093 5 is_stmt 1 view .LVU2
  40              		.loc 1 1093 24 is_stmt 0 view .LVU3
  41 0002 806B     		ldr	r0, [r0, #56]
  42              	.LVL1:
1094:../STM32CUBEMX/Drivers/STM32F4xx_HAL_Driver/Src/stm32f4xx_hal_adc_ex.c ****     hadc->State= HAL_ADC_STATE_ERROR_DMA;
  43              		.loc 1 1094 5 is_stmt 1 view .LVU4
  44              		.loc 1 1094 16 is_stmt 0 view .LVU5
  45 0004 4023     		movs	r3, #64
  46 0006 0364     		str	r3, [r0, #64]
1095:../STM32CUBEMX/Drivers/STM32F4xx_HAL_Driver/Src/stm32f4xx_hal_adc_ex.c ****     /* Set ADC error code to DMA error */
ARM GAS  C:\Users\ysl\AppData\Local\Temp\ccRy7Oyd.s 			page 21


1096:../STM32CUBEMX/Drivers/STM32F4xx_HAL_Driver/Src/stm32f4xx_hal_adc_ex.c ****     hadc->ErrorCode |= HAL_ADC_ERROR_DMA;
  47              		.loc 1 1096 5 is_stmt 1 view .LVU6
  48              		.loc 1 1096 21 is_stmt 0 view .LVU7
  49 0008 436C     		ldr	r3, [r0, #68]
  50 000a 43F00403 		orr	r3, r3, #4
  51 000e 4364     		str	r3, [r0, #68]
1097:../STM32CUBEMX/Drivers/STM32F4xx_HAL_Driver/Src/stm32f4xx_hal_adc_ex.c ****     HAL_ADC_ErrorCallback(hadc); 
  52              		.loc 1 1097 5 is_stmt 1 view .LVU8
  53 0010 FFF7FEFF 		bl	HAL_ADC_ErrorCallback
  54              	.LVL2:
1098:../STM32CUBEMX/Drivers/STM32F4xx_HAL_Driver/Src/stm32f4xx_hal_adc_ex.c **** }
  55              		.loc 1 1098 1 is_stmt 0 view .LVU9
  56 0014 08BD     		pop	{r3, pc}
  57              		.cfi_endproc
  58              	.LFE249:
  60              		.section	.text.ADC_MultiModeDMAHalfConvCplt,"ax",%progbits
  61              		.align	1
  62              		.syntax unified
  63              		.thumb
  64              		.thumb_func
  66              	ADC_MultiModeDMAHalfConvCplt:
  67              	.LVL3:
  68              	.LFB248:
1079:../STM32CUBEMX/Drivers/STM32F4xx_HAL_Driver/Src/stm32f4xx_hal_adc_ex.c ****     ADC_HandleTypeDef* hadc = ( ADC_HandleTypeDef* )((DMA_HandleTypeDef* )hdma)->Parent;
  69              		.loc 1 1079 1 is_stmt 1 view -0
  70              		.cfi_startproc
  71              		@ args = 0, pretend = 0, frame = 0
  72              		@ frame_needed = 0, uses_anonymous_args = 0
1079:../STM32CUBEMX/Drivers/STM32F4xx_HAL_Driver/Src/stm32f4xx_hal_adc_ex.c ****     ADC_HandleTypeDef* hadc = ( ADC_HandleTypeDef* )((DMA_HandleTypeDef* )hdma)->Parent;
  73              		.loc 1 1079 1 is_stmt 0 view .LVU11
  74 0000 08B5     		push	{r3, lr}
  75              	.LCFI1:
  76              		.cfi_def_cfa_offset 8
  77              		.cfi_offset 3, -8
  78              		.cfi_offset 14, -4
1080:../STM32CUBEMX/Drivers/STM32F4xx_HAL_Driver/Src/stm32f4xx_hal_adc_ex.c ****     /* Conversion complete callback */
  79              		.loc 1 1080 5 is_stmt 1 view .LVU12
  80              	.LVL4:
1082:../STM32CUBEMX/Drivers/STM32F4xx_HAL_Driver/Src/stm32f4xx_hal_adc_ex.c **** }
  81              		.loc 1 1082 5 view .LVU13
  82 0002 806B     		ldr	r0, [r0, #56]
  83              	.LVL5:
1082:../STM32CUBEMX/Drivers/STM32F4xx_HAL_Driver/Src/stm32f4xx_hal_adc_ex.c **** }
  84              		.loc 1 1082 5 is_stmt 0 view .LVU14
  85 0004 FFF7FEFF 		bl	HAL_ADC_ConvHalfCpltCallback
  86              	.LVL6:
1083:../STM32CUBEMX/Drivers/STM32F4xx_HAL_Driver/Src/stm32f4xx_hal_adc_ex.c **** 
  87              		.loc 1 1083 1 view .LVU15
  88 0008 08BD     		pop	{r3, pc}
  89              		.cfi_endproc
  90              	.LFE248:
  92              		.section	.text.ADC_MultiModeDMAConvCplt,"ax",%progbits
  93              		.align	1
  94              		.syntax unified
  95              		.thumb
  96              		.thumb_func
  98              	ADC_MultiModeDMAConvCplt:
ARM GAS  C:\Users\ysl\AppData\Local\Temp\ccRy7Oyd.s 			page 22


  99              	.LVL7:
 100              	.LFB247:
1026:../STM32CUBEMX/Drivers/STM32F4xx_HAL_Driver/Src/stm32f4xx_hal_adc_ex.c ****   /* Retrieve ADC handle corresponding to current DMA handle */
 101              		.loc 1 1026 1 is_stmt 1 view -0
 102              		.cfi_startproc
 103              		@ args = 0, pretend = 0, frame = 0
 104              		@ frame_needed = 0, uses_anonymous_args = 0
1026:../STM32CUBEMX/Drivers/STM32F4xx_HAL_Driver/Src/stm32f4xx_hal_adc_ex.c ****   /* Retrieve ADC handle corresponding to current DMA handle */
 105              		.loc 1 1026 1 is_stmt 0 view .LVU17
 106 0000 08B5     		push	{r3, lr}
 107              	.LCFI2:
 108              		.cfi_def_cfa_offset 8
 109              		.cfi_offset 3, -8
 110              		.cfi_offset 14, -4
1028:../STM32CUBEMX/Drivers/STM32F4xx_HAL_Driver/Src/stm32f4xx_hal_adc_ex.c ****   
 111              		.loc 1 1028 3 is_stmt 1 view .LVU18
1028:../STM32CUBEMX/Drivers/STM32F4xx_HAL_Driver/Src/stm32f4xx_hal_adc_ex.c ****   
 112              		.loc 1 1028 22 is_stmt 0 view .LVU19
 113 0002 836B     		ldr	r3, [r0, #56]
 114              	.LVL8:
1031:../STM32CUBEMX/Drivers/STM32F4xx_HAL_Driver/Src/stm32f4xx_hal_adc_ex.c ****   {
 115              		.loc 1 1031 3 is_stmt 1 view .LVU20
1031:../STM32CUBEMX/Drivers/STM32F4xx_HAL_Driver/Src/stm32f4xx_hal_adc_ex.c ****   {
 116              		.loc 1 1031 7 is_stmt 0 view .LVU21
 117 0004 1A6C     		ldr	r2, [r3, #64]
1031:../STM32CUBEMX/Drivers/STM32F4xx_HAL_Driver/Src/stm32f4xx_hal_adc_ex.c ****   {
 118              		.loc 1 1031 6 view .LVU22
 119 0006 12F0500F 		tst	r2, #80
 120 000a 26D1     		bne	.L6
1034:../STM32CUBEMX/Drivers/STM32F4xx_HAL_Driver/Src/stm32f4xx_hal_adc_ex.c ****     
 121              		.loc 1 1034 5 is_stmt 1 view .LVU23
 122 000c 1A6C     		ldr	r2, [r3, #64]
 123 000e 42F40072 		orr	r2, r2, #512
 124 0012 1A64     		str	r2, [r3, #64]
1042:../STM32CUBEMX/Drivers/STM32F4xx_HAL_Driver/Src/stm32f4xx_hal_adc_ex.c ****        (hadc->Init.ContinuousConvMode == DISABLE)            &&
 125              		.loc 1 1042 5 view .LVU24
1042:../STM32CUBEMX/Drivers/STM32F4xx_HAL_Driver/Src/stm32f4xx_hal_adc_ex.c ****        (hadc->Init.ContinuousConvMode == DISABLE)            &&
 126              		.loc 1 1042 8 is_stmt 0 view .LVU25
 127 0014 1A68     		ldr	r2, [r3]
 128 0016 9168     		ldr	r1, [r2, #8]
1042:../STM32CUBEMX/Drivers/STM32F4xx_HAL_Driver/Src/stm32f4xx_hal_adc_ex.c ****        (hadc->Init.ContinuousConvMode == DISABLE)            &&
 129              		.loc 1 1042 7 view .LVU26
 130 0018 11F0405F 		tst	r1, #805306368
 131 001c 19D1     		bne	.L7
1043:../STM32CUBEMX/Drivers/STM32F4xx_HAL_Driver/Src/stm32f4xx_hal_adc_ex.c ****        (HAL_IS_BIT_CLR(hadc->Instance->SQR1, ADC_SQR1_L) || 
 132              		.loc 1 1043 19 discriminator 1 view .LVU27
 133 001e 197E     		ldrb	r1, [r3, #24]	@ zero_extendqisi2
1042:../STM32CUBEMX/Drivers/STM32F4xx_HAL_Driver/Src/stm32f4xx_hal_adc_ex.c ****        (hadc->Init.ContinuousConvMode == DISABLE)            &&
 134              		.loc 1 1042 62 discriminator 1 view .LVU28
 135 0020 B9B9     		cbnz	r1, .L7
1044:../STM32CUBEMX/Drivers/STM32F4xx_HAL_Driver/Src/stm32f4xx_hal_adc_ex.c ****         HAL_IS_BIT_CLR(hadc->Instance->CR2, ADC_CR2_EOCS)  )   )
 136              		.loc 1 1044 9 view .LVU29
 137 0022 D16A     		ldr	r1, [r2, #44]
1043:../STM32CUBEMX/Drivers/STM32F4xx_HAL_Driver/Src/stm32f4xx_hal_adc_ex.c ****        (HAL_IS_BIT_CLR(hadc->Instance->SQR1, ADC_SQR1_L) || 
 138              		.loc 1 1043 62 view .LVU30
 139 0024 11F4700F 		tst	r1, #15728640
 140 0028 03D0     		beq	.L8
ARM GAS  C:\Users\ysl\AppData\Local\Temp\ccRy7Oyd.s 			page 23


1045:../STM32CUBEMX/Drivers/STM32F4xx_HAL_Driver/Src/stm32f4xx_hal_adc_ex.c ****     {
 141              		.loc 1 1045 9 view .LVU31
 142 002a 9168     		ldr	r1, [r2, #8]
1044:../STM32CUBEMX/Drivers/STM32F4xx_HAL_Driver/Src/stm32f4xx_hal_adc_ex.c ****         HAL_IS_BIT_CLR(hadc->Instance->CR2, ADC_CR2_EOCS)  )   )
 143              		.loc 1 1044 58 view .LVU32
 144 002c 11F4806F 		tst	r1, #1024
 145 0030 0FD1     		bne	.L7
 146              	.L8:
1051:../STM32CUBEMX/Drivers/STM32F4xx_HAL_Driver/Src/stm32f4xx_hal_adc_ex.c ****       
 147              		.loc 1 1051 7 is_stmt 1 view .LVU33
 148 0032 5168     		ldr	r1, [r2, #4]
 149 0034 21F02001 		bic	r1, r1, #32
 150 0038 5160     		str	r1, [r2, #4]
1054:../STM32CUBEMX/Drivers/STM32F4xx_HAL_Driver/Src/stm32f4xx_hal_adc_ex.c ****       
 151              		.loc 1 1054 7 view .LVU34
 152 003a 1A6C     		ldr	r2, [r3, #64]
 153 003c 22F48072 		bic	r2, r2, #256
 154 0040 1A64     		str	r2, [r3, #64]
1056:../STM32CUBEMX/Drivers/STM32F4xx_HAL_Driver/Src/stm32f4xx_hal_adc_ex.c ****       {
 155              		.loc 1 1056 7 view .LVU35
1056:../STM32CUBEMX/Drivers/STM32F4xx_HAL_Driver/Src/stm32f4xx_hal_adc_ex.c ****       {
 156              		.loc 1 1056 11 is_stmt 0 view .LVU36
 157 0042 1A6C     		ldr	r2, [r3, #64]
1056:../STM32CUBEMX/Drivers/STM32F4xx_HAL_Driver/Src/stm32f4xx_hal_adc_ex.c ****       {
 158              		.loc 1 1056 10 view .LVU37
 159 0044 12F4805F 		tst	r2, #4096
 160 0048 03D1     		bne	.L7
1058:../STM32CUBEMX/Drivers/STM32F4xx_HAL_Driver/Src/stm32f4xx_hal_adc_ex.c ****       }
 161              		.loc 1 1058 9 is_stmt 1 view .LVU38
 162 004a 1A6C     		ldr	r2, [r3, #64]
 163 004c 42F00102 		orr	r2, r2, #1
 164 0050 1A64     		str	r2, [r3, #64]
 165              	.L7:
1063:../STM32CUBEMX/Drivers/STM32F4xx_HAL_Driver/Src/stm32f4xx_hal_adc_ex.c ****   }
 166              		.loc 1 1063 5 view .LVU39
 167 0052 1846     		mov	r0, r3
 168              	.LVL9:
1063:../STM32CUBEMX/Drivers/STM32F4xx_HAL_Driver/Src/stm32f4xx_hal_adc_ex.c ****   }
 169              		.loc 1 1063 5 is_stmt 0 view .LVU40
 170 0054 FFF7FEFF 		bl	HAL_ADC_ConvCpltCallback
 171              	.LVL10:
 172              	.L5:
1070:../STM32CUBEMX/Drivers/STM32F4xx_HAL_Driver/Src/stm32f4xx_hal_adc_ex.c **** 
 173              		.loc 1 1070 1 view .LVU41
 174 0058 08BD     		pop	{r3, pc}
 175              	.LVL11:
 176              	.L6:
1068:../STM32CUBEMX/Drivers/STM32F4xx_HAL_Driver/Src/stm32f4xx_hal_adc_ex.c ****   }
 177              		.loc 1 1068 5 is_stmt 1 view .LVU42
1068:../STM32CUBEMX/Drivers/STM32F4xx_HAL_Driver/Src/stm32f4xx_hal_adc_ex.c ****   }
 178              		.loc 1 1068 9 is_stmt 0 view .LVU43
 179 005a 9B6B     		ldr	r3, [r3, #56]
 180              	.LVL12:
1068:../STM32CUBEMX/Drivers/STM32F4xx_HAL_Driver/Src/stm32f4xx_hal_adc_ex.c ****   }
 181              		.loc 1 1068 21 view .LVU44
 182 005c DB6C     		ldr	r3, [r3, #76]
1068:../STM32CUBEMX/Drivers/STM32F4xx_HAL_Driver/Src/stm32f4xx_hal_adc_ex.c ****   }
ARM GAS  C:\Users\ysl\AppData\Local\Temp\ccRy7Oyd.s 			page 24


 183              		.loc 1 1068 5 view .LVU45
 184 005e 9847     		blx	r3
 185              	.LVL13:
1070:../STM32CUBEMX/Drivers/STM32F4xx_HAL_Driver/Src/stm32f4xx_hal_adc_ex.c **** 
 186              		.loc 1 1070 1 view .LVU46
 187 0060 FAE7     		b	.L5
 188              		.cfi_endproc
 189              	.LFE247:
 191              		.section	.text.HAL_ADCEx_InjectedStart,"ax",%progbits
 192              		.align	1
 193              		.global	HAL_ADCEx_InjectedStart
 194              		.syntax unified
 195              		.thumb
 196              		.thumb_func
 198              	HAL_ADCEx_InjectedStart:
 199              	.LVL14:
 200              	.LFB235:
 147:../STM32CUBEMX/Drivers/STM32F4xx_HAL_Driver/Src/stm32f4xx_hal_adc_ex.c ****   __IO uint32_t counter = 0U;
 201              		.loc 1 147 1 is_stmt 1 view -0
 202              		.cfi_startproc
 203              		@ args = 0, pretend = 0, frame = 8
 204              		@ frame_needed = 0, uses_anonymous_args = 0
 205              		@ link register save eliminated.
 147:../STM32CUBEMX/Drivers/STM32F4xx_HAL_Driver/Src/stm32f4xx_hal_adc_ex.c ****   __IO uint32_t counter = 0U;
 206              		.loc 1 147 1 is_stmt 0 view .LVU48
 207 0000 82B0     		sub	sp, sp, #8
 208              	.LCFI3:
 209              		.cfi_def_cfa_offset 8
 148:../STM32CUBEMX/Drivers/STM32F4xx_HAL_Driver/Src/stm32f4xx_hal_adc_ex.c ****   uint32_t tmp1 = 0U, tmp2 = 0U;
 210              		.loc 1 148 3 is_stmt 1 view .LVU49
 148:../STM32CUBEMX/Drivers/STM32F4xx_HAL_Driver/Src/stm32f4xx_hal_adc_ex.c ****   uint32_t tmp1 = 0U, tmp2 = 0U;
 211              		.loc 1 148 17 is_stmt 0 view .LVU50
 212 0002 0023     		movs	r3, #0
 213 0004 0193     		str	r3, [sp, #4]
 149:../STM32CUBEMX/Drivers/STM32F4xx_HAL_Driver/Src/stm32f4xx_hal_adc_ex.c ****   ADC_Common_TypeDef *tmpADC_Common;
 214              		.loc 1 149 3 is_stmt 1 view .LVU51
 215              	.LVL15:
 150:../STM32CUBEMX/Drivers/STM32F4xx_HAL_Driver/Src/stm32f4xx_hal_adc_ex.c ****   
 216              		.loc 1 150 3 view .LVU52
 153:../STM32CUBEMX/Drivers/STM32F4xx_HAL_Driver/Src/stm32f4xx_hal_adc_ex.c ****   
 217              		.loc 1 153 3 view .LVU53
 153:../STM32CUBEMX/Drivers/STM32F4xx_HAL_Driver/Src/stm32f4xx_hal_adc_ex.c ****   
 218              		.loc 1 153 3 view .LVU54
 219 0006 90F83C30 		ldrb	r3, [r0, #60]	@ zero_extendqisi2
 220 000a 012B     		cmp	r3, #1
 221 000c 67D0     		beq	.L19
 153:../STM32CUBEMX/Drivers/STM32F4xx_HAL_Driver/Src/stm32f4xx_hal_adc_ex.c ****   
 222              		.loc 1 153 3 discriminator 2 view .LVU55
 223 000e 0123     		movs	r3, #1
 224 0010 80F83C30 		strb	r3, [r0, #60]
 153:../STM32CUBEMX/Drivers/STM32F4xx_HAL_Driver/Src/stm32f4xx_hal_adc_ex.c ****   
 225              		.loc 1 153 3 discriminator 2 view .LVU56
 159:../STM32CUBEMX/Drivers/STM32F4xx_HAL_Driver/Src/stm32f4xx_hal_adc_ex.c ****   {  
 226              		.loc 1 159 3 discriminator 2 view .LVU57
 159:../STM32CUBEMX/Drivers/STM32F4xx_HAL_Driver/Src/stm32f4xx_hal_adc_ex.c ****   {  
 227              		.loc 1 159 11 is_stmt 0 discriminator 2 view .LVU58
 228 0014 0368     		ldr	r3, [r0]
ARM GAS  C:\Users\ysl\AppData\Local\Temp\ccRy7Oyd.s 			page 25


 159:../STM32CUBEMX/Drivers/STM32F4xx_HAL_Driver/Src/stm32f4xx_hal_adc_ex.c ****   {  
 229              		.loc 1 159 21 discriminator 2 view .LVU59
 230 0016 9A68     		ldr	r2, [r3, #8]
 159:../STM32CUBEMX/Drivers/STM32F4xx_HAL_Driver/Src/stm32f4xx_hal_adc_ex.c ****   {  
 231              		.loc 1 159 5 discriminator 2 view .LVU60
 232 0018 12F0010F 		tst	r2, #1
 233 001c 13D1     		bne	.L13
 162:../STM32CUBEMX/Drivers/STM32F4xx_HAL_Driver/Src/stm32f4xx_hal_adc_ex.c ****     
 234              		.loc 1 162 5 is_stmt 1 view .LVU61
 235 001e 9A68     		ldr	r2, [r3, #8]
 236 0020 42F00102 		orr	r2, r2, #1
 237 0024 9A60     		str	r2, [r3, #8]
 166:../STM32CUBEMX/Drivers/STM32F4xx_HAL_Driver/Src/stm32f4xx_hal_adc_ex.c ****     while(counter != 0U)
 238              		.loc 1 166 5 view .LVU62
 166:../STM32CUBEMX/Drivers/STM32F4xx_HAL_Driver/Src/stm32f4xx_hal_adc_ex.c ****     while(counter != 0U)
 239              		.loc 1 166 53 is_stmt 0 view .LVU63
 240 0026 334B     		ldr	r3, .L27
 241 0028 1B68     		ldr	r3, [r3]
 242 002a 334A     		ldr	r2, .L27+4
 243 002c A2FB0323 		umull	r2, r3, r2, r3
 244 0030 9B0C     		lsrs	r3, r3, #18
 166:../STM32CUBEMX/Drivers/STM32F4xx_HAL_Driver/Src/stm32f4xx_hal_adc_ex.c ****     while(counter != 0U)
 245              		.loc 1 166 34 view .LVU64
 246 0032 03EB4303 		add	r3, r3, r3, lsl #1
 166:../STM32CUBEMX/Drivers/STM32F4xx_HAL_Driver/Src/stm32f4xx_hal_adc_ex.c ****     while(counter != 0U)
 247              		.loc 1 166 13 view .LVU65
 248 0036 0193     		str	r3, [sp, #4]
 167:../STM32CUBEMX/Drivers/STM32F4xx_HAL_Driver/Src/stm32f4xx_hal_adc_ex.c ****     {
 249              		.loc 1 167 5 is_stmt 1 view .LVU66
 167:../STM32CUBEMX/Drivers/STM32F4xx_HAL_Driver/Src/stm32f4xx_hal_adc_ex.c ****     {
 250              		.loc 1 167 10 is_stmt 0 view .LVU67
 251 0038 02E0     		b	.L14
 252              	.L15:
 169:../STM32CUBEMX/Drivers/STM32F4xx_HAL_Driver/Src/stm32f4xx_hal_adc_ex.c ****     }
 253              		.loc 1 169 7 is_stmt 1 view .LVU68
 169:../STM32CUBEMX/Drivers/STM32F4xx_HAL_Driver/Src/stm32f4xx_hal_adc_ex.c ****     }
 254              		.loc 1 169 14 is_stmt 0 view .LVU69
 255 003a 019B     		ldr	r3, [sp, #4]
 256 003c 013B     		subs	r3, r3, #1
 257 003e 0193     		str	r3, [sp, #4]
 258              	.L14:
 167:../STM32CUBEMX/Drivers/STM32F4xx_HAL_Driver/Src/stm32f4xx_hal_adc_ex.c ****     {
 259              		.loc 1 167 19 is_stmt 1 view .LVU70
 260 0040 019B     		ldr	r3, [sp, #4]
 261 0042 002B     		cmp	r3, #0
 262 0044 F9D1     		bne	.L15
 263              	.L13:
 174:../STM32CUBEMX/Drivers/STM32F4xx_HAL_Driver/Src/stm32f4xx_hal_adc_ex.c ****   {
 264              		.loc 1 174 3 view .LVU71
 174:../STM32CUBEMX/Drivers/STM32F4xx_HAL_Driver/Src/stm32f4xx_hal_adc_ex.c ****   {
 265              		.loc 1 174 6 is_stmt 0 view .LVU72
 266 0046 0268     		ldr	r2, [r0]
 267 0048 9368     		ldr	r3, [r2, #8]
 174:../STM32CUBEMX/Drivers/STM32F4xx_HAL_Driver/Src/stm32f4xx_hal_adc_ex.c ****   {
 268              		.loc 1 174 5 view .LVU73
 269 004a 13F0010F 		tst	r3, #1
 270 004e 3BD0     		beq	.L16
ARM GAS  C:\Users\ysl\AppData\Local\Temp\ccRy7Oyd.s 			page 26


 179:../STM32CUBEMX/Drivers/STM32F4xx_HAL_Driver/Src/stm32f4xx_hal_adc_ex.c ****                       HAL_ADC_STATE_READY | HAL_ADC_STATE_INJ_EOC,
 271              		.loc 1 179 5 is_stmt 1 view .LVU74
 272 0050 036C     		ldr	r3, [r0, #64]
 273 0052 23F44053 		bic	r3, r3, #12288
 274 0056 23F00103 		bic	r3, r3, #1
 275 005a 43F48053 		orr	r3, r3, #4096
 276 005e 0364     		str	r3, [r0, #64]
 187:../STM32CUBEMX/Drivers/STM32F4xx_HAL_Driver/Src/stm32f4xx_hal_adc_ex.c ****     {
 277              		.loc 1 187 5 view .LVU75
 187:../STM32CUBEMX/Drivers/STM32F4xx_HAL_Driver/Src/stm32f4xx_hal_adc_ex.c ****     {
 278              		.loc 1 187 9 is_stmt 0 view .LVU76
 279 0060 036C     		ldr	r3, [r0, #64]
 187:../STM32CUBEMX/Drivers/STM32F4xx_HAL_Driver/Src/stm32f4xx_hal_adc_ex.c ****     {
 280              		.loc 1 187 8 view .LVU77
 281 0062 13F4807F 		tst	r3, #256
 282 0066 01D1     		bne	.L17
 190:../STM32CUBEMX/Drivers/STM32F4xx_HAL_Driver/Src/stm32f4xx_hal_adc_ex.c ****     }
 283              		.loc 1 190 7 is_stmt 1 view .LVU78
 284 0068 0023     		movs	r3, #0
 285 006a 4364     		str	r3, [r0, #68]
 286              	.L17:
 196:../STM32CUBEMX/Drivers/STM32F4xx_HAL_Driver/Src/stm32f4xx_hal_adc_ex.c ****     
 287              		.loc 1 196 5 view .LVU79
 196:../STM32CUBEMX/Drivers/STM32F4xx_HAL_Driver/Src/stm32f4xx_hal_adc_ex.c ****     
 288              		.loc 1 196 5 view .LVU80
 289 006c 0023     		movs	r3, #0
 290 006e 80F83C30 		strb	r3, [r0, #60]
 196:../STM32CUBEMX/Drivers/STM32F4xx_HAL_Driver/Src/stm32f4xx_hal_adc_ex.c ****     
 291              		.loc 1 196 5 view .LVU81
 200:../STM32CUBEMX/Drivers/STM32F4xx_HAL_Driver/Src/stm32f4xx_hal_adc_ex.c **** 
 292              		.loc 1 200 5 view .LVU82
 293 0072 6FF00403 		mvn	r3, #4
 294 0076 1360     		str	r3, [r2]
 205:../STM32CUBEMX/Drivers/STM32F4xx_HAL_Driver/Src/stm32f4xx_hal_adc_ex.c **** 
 295              		.loc 1 205 5 view .LVU83
 296              	.LVL16:
 208:../STM32CUBEMX/Drivers/STM32F4xx_HAL_Driver/Src/stm32f4xx_hal_adc_ex.c ****     {
 297              		.loc 1 208 5 view .LVU84
 208:../STM32CUBEMX/Drivers/STM32F4xx_HAL_Driver/Src/stm32f4xx_hal_adc_ex.c ****     {
 298              		.loc 1 208 8 is_stmt 0 view .LVU85
 299 0078 204B     		ldr	r3, .L27+8
 300 007a 5B68     		ldr	r3, [r3, #4]
 208:../STM32CUBEMX/Drivers/STM32F4xx_HAL_Driver/Src/stm32f4xx_hal_adc_ex.c ****     {
 301              		.loc 1 208 7 view .LVU86
 302 007c 13F01F0F 		tst	r3, #31
 303 0080 0ED1     		bne	.L18
 210:../STM32CUBEMX/Drivers/STM32F4xx_HAL_Driver/Src/stm32f4xx_hal_adc_ex.c ****       tmp2 = HAL_IS_BIT_CLR(hadc->Instance->CR1, ADC_CR1_JAUTO);
 304              		.loc 1 210 7 is_stmt 1 view .LVU87
 210:../STM32CUBEMX/Drivers/STM32F4xx_HAL_Driver/Src/stm32f4xx_hal_adc_ex.c ****       tmp2 = HAL_IS_BIT_CLR(hadc->Instance->CR1, ADC_CR1_JAUTO);
 305              		.loc 1 210 14 is_stmt 0 view .LVU88
 306 0082 0268     		ldr	r2, [r0]
 307 0084 9168     		ldr	r1, [r2, #8]
 308              	.LVL17:
 211:../STM32CUBEMX/Drivers/STM32F4xx_HAL_Driver/Src/stm32f4xx_hal_adc_ex.c ****       if(tmp1 && tmp2)
 309              		.loc 1 211 7 is_stmt 1 view .LVU89
 211:../STM32CUBEMX/Drivers/STM32F4xx_HAL_Driver/Src/stm32f4xx_hal_adc_ex.c ****       if(tmp1 && tmp2)
 310              		.loc 1 211 14 is_stmt 0 view .LVU90
ARM GAS  C:\Users\ysl\AppData\Local\Temp\ccRy7Oyd.s 			page 27


 311 0086 5368     		ldr	r3, [r2, #4]
 312 0088 03F48063 		and	r3, r3, #1024
 313              	.LVL18:
 212:../STM32CUBEMX/Drivers/STM32F4xx_HAL_Driver/Src/stm32f4xx_hal_adc_ex.c ****       {
 314              		.loc 1 212 7 is_stmt 1 view .LVU91
 212:../STM32CUBEMX/Drivers/STM32F4xx_HAL_Driver/Src/stm32f4xx_hal_adc_ex.c ****       {
 315              		.loc 1 212 9 is_stmt 0 view .LVU92
 316 008c 11F4401F 		tst	r1, #3145728
 317 0090 27D1     		bne	.L20
 212:../STM32CUBEMX/Drivers/STM32F4xx_HAL_Driver/Src/stm32f4xx_hal_adc_ex.c ****       {
 318              		.loc 1 212 15 discriminator 1 view .LVU93
 319 0092 43BB     		cbnz	r3, .L21
 215:../STM32CUBEMX/Drivers/STM32F4xx_HAL_Driver/Src/stm32f4xx_hal_adc_ex.c ****       }
 320              		.loc 1 215 9 is_stmt 1 view .LVU94
 215:../STM32CUBEMX/Drivers/STM32F4xx_HAL_Driver/Src/stm32f4xx_hal_adc_ex.c ****       }
 321              		.loc 1 215 29 is_stmt 0 view .LVU95
 322 0094 9368     		ldr	r3, [r2, #8]
 323              	.LVL19:
 215:../STM32CUBEMX/Drivers/STM32F4xx_HAL_Driver/Src/stm32f4xx_hal_adc_ex.c ****       }
 324              		.loc 1 215 29 view .LVU96
 325 0096 43F48003 		orr	r3, r3, #4194304
 326 009a 9360     		str	r3, [r2, #8]
 239:../STM32CUBEMX/Drivers/STM32F4xx_HAL_Driver/Src/stm32f4xx_hal_adc_ex.c **** }
 327              		.loc 1 239 10 view .LVU97
 328 009c 0020     		movs	r0, #0
 329              	.LVL20:
 239:../STM32CUBEMX/Drivers/STM32F4xx_HAL_Driver/Src/stm32f4xx_hal_adc_ex.c **** }
 330              		.loc 1 239 10 view .LVU98
 331 009e 1CE0     		b	.L12
 332              	.LVL21:
 333              	.L18:
 220:../STM32CUBEMX/Drivers/STM32F4xx_HAL_Driver/Src/stm32f4xx_hal_adc_ex.c ****       tmp2 = HAL_IS_BIT_CLR(hadc->Instance->CR1, ADC_CR1_JAUTO);
 334              		.loc 1 220 7 is_stmt 1 view .LVU99
 220:../STM32CUBEMX/Drivers/STM32F4xx_HAL_Driver/Src/stm32f4xx_hal_adc_ex.c ****       tmp2 = HAL_IS_BIT_CLR(hadc->Instance->CR1, ADC_CR1_JAUTO);
 335              		.loc 1 220 14 is_stmt 0 view .LVU100
 336 00a0 0368     		ldr	r3, [r0]
 337 00a2 9A68     		ldr	r2, [r3, #8]
 338 00a4 02F44012 		and	r2, r2, #3145728
 339              	.LVL22:
 221:../STM32CUBEMX/Drivers/STM32F4xx_HAL_Driver/Src/stm32f4xx_hal_adc_ex.c ****       if((hadc->Instance == ADC1) && tmp1 && tmp2)  
 340              		.loc 1 221 7 is_stmt 1 view .LVU101
 221:../STM32CUBEMX/Drivers/STM32F4xx_HAL_Driver/Src/stm32f4xx_hal_adc_ex.c ****       if((hadc->Instance == ADC1) && tmp1 && tmp2)  
 341              		.loc 1 221 14 is_stmt 0 view .LVU102
 342 00a8 5968     		ldr	r1, [r3, #4]
 343 00aa 01F48061 		and	r1, r1, #1024
 344              	.LVL23:
 222:../STM32CUBEMX/Drivers/STM32F4xx_HAL_Driver/Src/stm32f4xx_hal_adc_ex.c ****       {
 345              		.loc 1 222 7 is_stmt 1 view .LVU103
 222:../STM32CUBEMX/Drivers/STM32F4xx_HAL_Driver/Src/stm32f4xx_hal_adc_ex.c ****       {
 346              		.loc 1 222 9 is_stmt 0 view .LVU104
 347 00ae 1448     		ldr	r0, .L27+12
 348              	.LVL24:
 222:../STM32CUBEMX/Drivers/STM32F4xx_HAL_Driver/Src/stm32f4xx_hal_adc_ex.c ****       {
 349              		.loc 1 222 9 view .LVU105
 350 00b0 8342     		cmp	r3, r0
 351 00b2 01D0     		beq	.L26
 239:../STM32CUBEMX/Drivers/STM32F4xx_HAL_Driver/Src/stm32f4xx_hal_adc_ex.c **** }
ARM GAS  C:\Users\ysl\AppData\Local\Temp\ccRy7Oyd.s 			page 28


 352              		.loc 1 239 10 view .LVU106
 353 00b4 0020     		movs	r0, #0
 354 00b6 10E0     		b	.L12
 355              	.L26:
 222:../STM32CUBEMX/Drivers/STM32F4xx_HAL_Driver/Src/stm32f4xx_hal_adc_ex.c ****       {
 356              		.loc 1 222 35 discriminator 1 view .LVU107
 357 00b8 BAB9     		cbnz	r2, .L23
 222:../STM32CUBEMX/Drivers/STM32F4xx_HAL_Driver/Src/stm32f4xx_hal_adc_ex.c ****       {
 358              		.loc 1 222 43 discriminator 2 view .LVU108
 359 00ba C1B9     		cbnz	r1, .L24
 225:../STM32CUBEMX/Drivers/STM32F4xx_HAL_Driver/Src/stm32f4xx_hal_adc_ex.c ****       }
 360              		.loc 1 225 9 is_stmt 1 view .LVU109
 225:../STM32CUBEMX/Drivers/STM32F4xx_HAL_Driver/Src/stm32f4xx_hal_adc_ex.c ****       }
 361              		.loc 1 225 29 is_stmt 0 view .LVU110
 362 00bc 9A68     		ldr	r2, [r3, #8]
 363              	.LVL25:
 225:../STM32CUBEMX/Drivers/STM32F4xx_HAL_Driver/Src/stm32f4xx_hal_adc_ex.c ****       }
 364              		.loc 1 225 29 view .LVU111
 365 00be 42F48002 		orr	r2, r2, #4194304
 366 00c2 9A60     		str	r2, [r3, #8]
 239:../STM32CUBEMX/Drivers/STM32F4xx_HAL_Driver/Src/stm32f4xx_hal_adc_ex.c **** }
 367              		.loc 1 239 10 view .LVU112
 368 00c4 0020     		movs	r0, #0
 369 00c6 08E0     		b	.L12
 370              	.LVL26:
 371              	.L16:
 232:../STM32CUBEMX/Drivers/STM32F4xx_HAL_Driver/Src/stm32f4xx_hal_adc_ex.c **** 
 372              		.loc 1 232 5 is_stmt 1 view .LVU113
 373 00c8 036C     		ldr	r3, [r0, #64]
 374 00ca 43F01003 		orr	r3, r3, #16
 375 00ce 0364     		str	r3, [r0, #64]
 235:../STM32CUBEMX/Drivers/STM32F4xx_HAL_Driver/Src/stm32f4xx_hal_adc_ex.c ****   }
 376              		.loc 1 235 5 view .LVU114
 377 00d0 436C     		ldr	r3, [r0, #68]
 378 00d2 43F00103 		orr	r3, r3, #1
 379 00d6 4364     		str	r3, [r0, #68]
 239:../STM32CUBEMX/Drivers/STM32F4xx_HAL_Driver/Src/stm32f4xx_hal_adc_ex.c **** }
 380              		.loc 1 239 10 is_stmt 0 view .LVU115
 381 00d8 0020     		movs	r0, #0
 382              	.LVL27:
 383              	.L12:
 240:../STM32CUBEMX/Drivers/STM32F4xx_HAL_Driver/Src/stm32f4xx_hal_adc_ex.c **** 
 384              		.loc 1 240 1 view .LVU116
 385 00da 02B0     		add	sp, sp, #8
 386              	.LCFI4:
 387              		.cfi_remember_state
 388              		.cfi_def_cfa_offset 0
 389              		@ sp needed
 390 00dc 7047     		bx	lr
 391              	.LVL28:
 392              	.L19:
 393              	.LCFI5:
 394              		.cfi_restore_state
 153:../STM32CUBEMX/Drivers/STM32F4xx_HAL_Driver/Src/stm32f4xx_hal_adc_ex.c ****   
 395              		.loc 1 153 3 view .LVU117
 396 00de 0220     		movs	r0, #2
 397              	.LVL29:
ARM GAS  C:\Users\ysl\AppData\Local\Temp\ccRy7Oyd.s 			page 29


 153:../STM32CUBEMX/Drivers/STM32F4xx_HAL_Driver/Src/stm32f4xx_hal_adc_ex.c ****   
 398              		.loc 1 153 3 view .LVU118
 399 00e0 FBE7     		b	.L12
 400              	.LVL30:
 401              	.L20:
 239:../STM32CUBEMX/Drivers/STM32F4xx_HAL_Driver/Src/stm32f4xx_hal_adc_ex.c **** }
 402              		.loc 1 239 10 view .LVU119
 403 00e2 0020     		movs	r0, #0
 404              	.LVL31:
 239:../STM32CUBEMX/Drivers/STM32F4xx_HAL_Driver/Src/stm32f4xx_hal_adc_ex.c **** }
 405              		.loc 1 239 10 view .LVU120
 406 00e4 F9E7     		b	.L12
 407              	.LVL32:
 408              	.L21:
 239:../STM32CUBEMX/Drivers/STM32F4xx_HAL_Driver/Src/stm32f4xx_hal_adc_ex.c **** }
 409              		.loc 1 239 10 view .LVU121
 410 00e6 0020     		movs	r0, #0
 411              	.LVL33:
 239:../STM32CUBEMX/Drivers/STM32F4xx_HAL_Driver/Src/stm32f4xx_hal_adc_ex.c **** }
 412              		.loc 1 239 10 view .LVU122
 413 00e8 F7E7     		b	.L12
 414              	.LVL34:
 415              	.L23:
 239:../STM32CUBEMX/Drivers/STM32F4xx_HAL_Driver/Src/stm32f4xx_hal_adc_ex.c **** }
 416              		.loc 1 239 10 view .LVU123
 417 00ea 0020     		movs	r0, #0
 418 00ec F5E7     		b	.L12
 419              	.L24:
 420 00ee 0020     		movs	r0, #0
 421 00f0 F3E7     		b	.L12
 422              	.L28:
 423 00f2 00BF     		.align	2
 424              	.L27:
 425 00f4 00000000 		.word	SystemCoreClock
 426 00f8 83DE1B43 		.word	1125899907
 427 00fc 00230140 		.word	1073816320
 428 0100 00200140 		.word	1073815552
 429              		.cfi_endproc
 430              	.LFE235:
 432              		.section	.text.HAL_ADCEx_InjectedStart_IT,"ax",%progbits
 433              		.align	1
 434              		.global	HAL_ADCEx_InjectedStart_IT
 435              		.syntax unified
 436              		.thumb
 437              		.thumb_func
 439              	HAL_ADCEx_InjectedStart_IT:
 440              	.LVL35:
 441              	.LFB236:
 250:../STM32CUBEMX/Drivers/STM32F4xx_HAL_Driver/Src/stm32f4xx_hal_adc_ex.c ****   __IO uint32_t counter = 0U;
 442              		.loc 1 250 1 is_stmt 1 view -0
 443              		.cfi_startproc
 444              		@ args = 0, pretend = 0, frame = 8
 445              		@ frame_needed = 0, uses_anonymous_args = 0
 446              		@ link register save eliminated.
 250:../STM32CUBEMX/Drivers/STM32F4xx_HAL_Driver/Src/stm32f4xx_hal_adc_ex.c ****   __IO uint32_t counter = 0U;
 447              		.loc 1 250 1 is_stmt 0 view .LVU125
 448 0000 82B0     		sub	sp, sp, #8
ARM GAS  C:\Users\ysl\AppData\Local\Temp\ccRy7Oyd.s 			page 30


 449              	.LCFI6:
 450              		.cfi_def_cfa_offset 8
 251:../STM32CUBEMX/Drivers/STM32F4xx_HAL_Driver/Src/stm32f4xx_hal_adc_ex.c ****   uint32_t tmp1 = 0U, tmp2 = 0U;
 451              		.loc 1 251 3 is_stmt 1 view .LVU126
 251:../STM32CUBEMX/Drivers/STM32F4xx_HAL_Driver/Src/stm32f4xx_hal_adc_ex.c ****   uint32_t tmp1 = 0U, tmp2 = 0U;
 452              		.loc 1 251 17 is_stmt 0 view .LVU127
 453 0002 0023     		movs	r3, #0
 454 0004 0193     		str	r3, [sp, #4]
 252:../STM32CUBEMX/Drivers/STM32F4xx_HAL_Driver/Src/stm32f4xx_hal_adc_ex.c ****   ADC_Common_TypeDef *tmpADC_Common;
 455              		.loc 1 252 3 is_stmt 1 view .LVU128
 456              	.LVL36:
 253:../STM32CUBEMX/Drivers/STM32F4xx_HAL_Driver/Src/stm32f4xx_hal_adc_ex.c ****   
 457              		.loc 1 253 3 view .LVU129
 256:../STM32CUBEMX/Drivers/STM32F4xx_HAL_Driver/Src/stm32f4xx_hal_adc_ex.c ****   
 458              		.loc 1 256 3 view .LVU130
 256:../STM32CUBEMX/Drivers/STM32F4xx_HAL_Driver/Src/stm32f4xx_hal_adc_ex.c ****   
 459              		.loc 1 256 3 view .LVU131
 460 0006 90F83C30 		ldrb	r3, [r0, #60]	@ zero_extendqisi2
 461 000a 012B     		cmp	r3, #1
 462 000c 6CD0     		beq	.L37
 256:../STM32CUBEMX/Drivers/STM32F4xx_HAL_Driver/Src/stm32f4xx_hal_adc_ex.c ****   
 463              		.loc 1 256 3 discriminator 2 view .LVU132
 464 000e 0123     		movs	r3, #1
 465 0010 80F83C30 		strb	r3, [r0, #60]
 256:../STM32CUBEMX/Drivers/STM32F4xx_HAL_Driver/Src/stm32f4xx_hal_adc_ex.c ****   
 466              		.loc 1 256 3 discriminator 2 view .LVU133
 262:../STM32CUBEMX/Drivers/STM32F4xx_HAL_Driver/Src/stm32f4xx_hal_adc_ex.c ****   {  
 467              		.loc 1 262 3 discriminator 2 view .LVU134
 262:../STM32CUBEMX/Drivers/STM32F4xx_HAL_Driver/Src/stm32f4xx_hal_adc_ex.c ****   {  
 468              		.loc 1 262 11 is_stmt 0 discriminator 2 view .LVU135
 469 0014 0368     		ldr	r3, [r0]
 262:../STM32CUBEMX/Drivers/STM32F4xx_HAL_Driver/Src/stm32f4xx_hal_adc_ex.c ****   {  
 470              		.loc 1 262 21 discriminator 2 view .LVU136
 471 0016 9A68     		ldr	r2, [r3, #8]
 262:../STM32CUBEMX/Drivers/STM32F4xx_HAL_Driver/Src/stm32f4xx_hal_adc_ex.c ****   {  
 472              		.loc 1 262 5 discriminator 2 view .LVU137
 473 0018 12F0010F 		tst	r2, #1
 474 001c 13D1     		bne	.L31
 265:../STM32CUBEMX/Drivers/STM32F4xx_HAL_Driver/Src/stm32f4xx_hal_adc_ex.c ****     
 475              		.loc 1 265 5 is_stmt 1 view .LVU138
 476 001e 9A68     		ldr	r2, [r3, #8]
 477 0020 42F00102 		orr	r2, r2, #1
 478 0024 9A60     		str	r2, [r3, #8]
 269:../STM32CUBEMX/Drivers/STM32F4xx_HAL_Driver/Src/stm32f4xx_hal_adc_ex.c ****     while(counter != 0U)
 479              		.loc 1 269 5 view .LVU139
 269:../STM32CUBEMX/Drivers/STM32F4xx_HAL_Driver/Src/stm32f4xx_hal_adc_ex.c ****     while(counter != 0U)
 480              		.loc 1 269 53 is_stmt 0 view .LVU140
 481 0026 354B     		ldr	r3, .L45
 482 0028 1B68     		ldr	r3, [r3]
 483 002a 354A     		ldr	r2, .L45+4
 484 002c A2FB0323 		umull	r2, r3, r2, r3
 485 0030 9B0C     		lsrs	r3, r3, #18
 269:../STM32CUBEMX/Drivers/STM32F4xx_HAL_Driver/Src/stm32f4xx_hal_adc_ex.c ****     while(counter != 0U)
 486              		.loc 1 269 34 view .LVU141
 487 0032 03EB4303 		add	r3, r3, r3, lsl #1
 269:../STM32CUBEMX/Drivers/STM32F4xx_HAL_Driver/Src/stm32f4xx_hal_adc_ex.c ****     while(counter != 0U)
 488              		.loc 1 269 13 view .LVU142
ARM GAS  C:\Users\ysl\AppData\Local\Temp\ccRy7Oyd.s 			page 31


 489 0036 0193     		str	r3, [sp, #4]
 270:../STM32CUBEMX/Drivers/STM32F4xx_HAL_Driver/Src/stm32f4xx_hal_adc_ex.c ****     {
 490              		.loc 1 270 5 is_stmt 1 view .LVU143
 270:../STM32CUBEMX/Drivers/STM32F4xx_HAL_Driver/Src/stm32f4xx_hal_adc_ex.c ****     {
 491              		.loc 1 270 10 is_stmt 0 view .LVU144
 492 0038 02E0     		b	.L32
 493              	.L33:
 272:../STM32CUBEMX/Drivers/STM32F4xx_HAL_Driver/Src/stm32f4xx_hal_adc_ex.c ****     }
 494              		.loc 1 272 7 is_stmt 1 view .LVU145
 272:../STM32CUBEMX/Drivers/STM32F4xx_HAL_Driver/Src/stm32f4xx_hal_adc_ex.c ****     }
 495              		.loc 1 272 14 is_stmt 0 view .LVU146
 496 003a 019B     		ldr	r3, [sp, #4]
 497 003c 013B     		subs	r3, r3, #1
 498 003e 0193     		str	r3, [sp, #4]
 499              	.L32:
 270:../STM32CUBEMX/Drivers/STM32F4xx_HAL_Driver/Src/stm32f4xx_hal_adc_ex.c ****     {
 500              		.loc 1 270 19 is_stmt 1 view .LVU147
 501 0040 019B     		ldr	r3, [sp, #4]
 502 0042 002B     		cmp	r3, #0
 503 0044 F9D1     		bne	.L33
 504              	.L31:
 277:../STM32CUBEMX/Drivers/STM32F4xx_HAL_Driver/Src/stm32f4xx_hal_adc_ex.c ****   {
 505              		.loc 1 277 3 view .LVU148
 277:../STM32CUBEMX/Drivers/STM32F4xx_HAL_Driver/Src/stm32f4xx_hal_adc_ex.c ****   {
 506              		.loc 1 277 6 is_stmt 0 view .LVU149
 507 0046 0268     		ldr	r2, [r0]
 508 0048 9368     		ldr	r3, [r2, #8]
 277:../STM32CUBEMX/Drivers/STM32F4xx_HAL_Driver/Src/stm32f4xx_hal_adc_ex.c ****   {
 509              		.loc 1 277 5 view .LVU150
 510 004a 13F0010F 		tst	r3, #1
 511 004e 40D0     		beq	.L34
 282:../STM32CUBEMX/Drivers/STM32F4xx_HAL_Driver/Src/stm32f4xx_hal_adc_ex.c ****                       HAL_ADC_STATE_READY | HAL_ADC_STATE_INJ_EOC,
 512              		.loc 1 282 5 is_stmt 1 view .LVU151
 513 0050 036C     		ldr	r3, [r0, #64]
 514 0052 23F44053 		bic	r3, r3, #12288
 515 0056 23F00103 		bic	r3, r3, #1
 516 005a 43F48053 		orr	r3, r3, #4096
 517 005e 0364     		str	r3, [r0, #64]
 290:../STM32CUBEMX/Drivers/STM32F4xx_HAL_Driver/Src/stm32f4xx_hal_adc_ex.c ****     {
 518              		.loc 1 290 5 view .LVU152
 290:../STM32CUBEMX/Drivers/STM32F4xx_HAL_Driver/Src/stm32f4xx_hal_adc_ex.c ****     {
 519              		.loc 1 290 9 is_stmt 0 view .LVU153
 520 0060 036C     		ldr	r3, [r0, #64]
 290:../STM32CUBEMX/Drivers/STM32F4xx_HAL_Driver/Src/stm32f4xx_hal_adc_ex.c ****     {
 521              		.loc 1 290 8 view .LVU154
 522 0062 13F4807F 		tst	r3, #256
 523 0066 01D1     		bne	.L35
 293:../STM32CUBEMX/Drivers/STM32F4xx_HAL_Driver/Src/stm32f4xx_hal_adc_ex.c ****     }
 524              		.loc 1 293 7 is_stmt 1 view .LVU155
 525 0068 0023     		movs	r3, #0
 526 006a 4364     		str	r3, [r0, #68]
 527              	.L35:
 299:../STM32CUBEMX/Drivers/STM32F4xx_HAL_Driver/Src/stm32f4xx_hal_adc_ex.c ****     
 528              		.loc 1 299 5 view .LVU156
 299:../STM32CUBEMX/Drivers/STM32F4xx_HAL_Driver/Src/stm32f4xx_hal_adc_ex.c ****     
 529              		.loc 1 299 5 view .LVU157
 530 006c 0023     		movs	r3, #0
ARM GAS  C:\Users\ysl\AppData\Local\Temp\ccRy7Oyd.s 			page 32


 531 006e 80F83C30 		strb	r3, [r0, #60]
 299:../STM32CUBEMX/Drivers/STM32F4xx_HAL_Driver/Src/stm32f4xx_hal_adc_ex.c ****     
 532              		.loc 1 299 5 view .LVU158
 303:../STM32CUBEMX/Drivers/STM32F4xx_HAL_Driver/Src/stm32f4xx_hal_adc_ex.c ****     
 533              		.loc 1 303 5 view .LVU159
 534 0072 6FF00403 		mvn	r3, #4
 535 0076 1360     		str	r3, [r2]
 306:../STM32CUBEMX/Drivers/STM32F4xx_HAL_Driver/Src/stm32f4xx_hal_adc_ex.c **** 
 536              		.loc 1 306 5 view .LVU160
 537 0078 0268     		ldr	r2, [r0]
 538 007a 5368     		ldr	r3, [r2, #4]
 539 007c 43F08003 		orr	r3, r3, #128
 540 0080 5360     		str	r3, [r2, #4]
 311:../STM32CUBEMX/Drivers/STM32F4xx_HAL_Driver/Src/stm32f4xx_hal_adc_ex.c ****     
 541              		.loc 1 311 5 view .LVU161
 542              	.LVL37:
 314:../STM32CUBEMX/Drivers/STM32F4xx_HAL_Driver/Src/stm32f4xx_hal_adc_ex.c ****     {
 543              		.loc 1 314 5 view .LVU162
 314:../STM32CUBEMX/Drivers/STM32F4xx_HAL_Driver/Src/stm32f4xx_hal_adc_ex.c ****     {
 544              		.loc 1 314 8 is_stmt 0 view .LVU163
 545 0082 204B     		ldr	r3, .L45+8
 546 0084 5B68     		ldr	r3, [r3, #4]
 314:../STM32CUBEMX/Drivers/STM32F4xx_HAL_Driver/Src/stm32f4xx_hal_adc_ex.c ****     {
 547              		.loc 1 314 7 view .LVU164
 548 0086 13F01F0F 		tst	r3, #31
 549 008a 0ED1     		bne	.L36
 316:../STM32CUBEMX/Drivers/STM32F4xx_HAL_Driver/Src/stm32f4xx_hal_adc_ex.c ****       tmp2 = HAL_IS_BIT_CLR(hadc->Instance->CR1, ADC_CR1_JAUTO);
 550              		.loc 1 316 7 is_stmt 1 view .LVU165
 316:../STM32CUBEMX/Drivers/STM32F4xx_HAL_Driver/Src/stm32f4xx_hal_adc_ex.c ****       tmp2 = HAL_IS_BIT_CLR(hadc->Instance->CR1, ADC_CR1_JAUTO);
 551              		.loc 1 316 14 is_stmt 0 view .LVU166
 552 008c 0268     		ldr	r2, [r0]
 553 008e 9168     		ldr	r1, [r2, #8]
 554              	.LVL38:
 317:../STM32CUBEMX/Drivers/STM32F4xx_HAL_Driver/Src/stm32f4xx_hal_adc_ex.c ****       if(tmp1 && tmp2)
 555              		.loc 1 317 7 is_stmt 1 view .LVU167
 317:../STM32CUBEMX/Drivers/STM32F4xx_HAL_Driver/Src/stm32f4xx_hal_adc_ex.c ****       if(tmp1 && tmp2)
 556              		.loc 1 317 14 is_stmt 0 view .LVU168
 557 0090 5368     		ldr	r3, [r2, #4]
 558 0092 03F48063 		and	r3, r3, #1024
 559              	.LVL39:
 318:../STM32CUBEMX/Drivers/STM32F4xx_HAL_Driver/Src/stm32f4xx_hal_adc_ex.c ****       {
 560              		.loc 1 318 7 is_stmt 1 view .LVU169
 318:../STM32CUBEMX/Drivers/STM32F4xx_HAL_Driver/Src/stm32f4xx_hal_adc_ex.c ****       {
 561              		.loc 1 318 9 is_stmt 0 view .LVU170
 562 0096 11F4401F 		tst	r1, #3145728
 563 009a 27D1     		bne	.L38
 318:../STM32CUBEMX/Drivers/STM32F4xx_HAL_Driver/Src/stm32f4xx_hal_adc_ex.c ****       {
 564              		.loc 1 318 15 discriminator 1 view .LVU171
 565 009c 43BB     		cbnz	r3, .L39
 321:../STM32CUBEMX/Drivers/STM32F4xx_HAL_Driver/Src/stm32f4xx_hal_adc_ex.c ****       }
 566              		.loc 1 321 9 is_stmt 1 view .LVU172
 321:../STM32CUBEMX/Drivers/STM32F4xx_HAL_Driver/Src/stm32f4xx_hal_adc_ex.c ****       }
 567              		.loc 1 321 29 is_stmt 0 view .LVU173
 568 009e 9368     		ldr	r3, [r2, #8]
 569              	.LVL40:
 321:../STM32CUBEMX/Drivers/STM32F4xx_HAL_Driver/Src/stm32f4xx_hal_adc_ex.c ****       }
 570              		.loc 1 321 29 view .LVU174
ARM GAS  C:\Users\ysl\AppData\Local\Temp\ccRy7Oyd.s 			page 33


 571 00a0 43F48003 		orr	r3, r3, #4194304
 572 00a4 9360     		str	r3, [r2, #8]
 345:../STM32CUBEMX/Drivers/STM32F4xx_HAL_Driver/Src/stm32f4xx_hal_adc_ex.c **** }
 573              		.loc 1 345 10 view .LVU175
 574 00a6 0020     		movs	r0, #0
 575              	.LVL41:
 345:../STM32CUBEMX/Drivers/STM32F4xx_HAL_Driver/Src/stm32f4xx_hal_adc_ex.c **** }
 576              		.loc 1 345 10 view .LVU176
 577 00a8 1CE0     		b	.L30
 578              	.LVL42:
 579              	.L36:
 326:../STM32CUBEMX/Drivers/STM32F4xx_HAL_Driver/Src/stm32f4xx_hal_adc_ex.c ****       tmp2 = HAL_IS_BIT_CLR(hadc->Instance->CR1, ADC_CR1_JAUTO);
 580              		.loc 1 326 7 is_stmt 1 view .LVU177
 326:../STM32CUBEMX/Drivers/STM32F4xx_HAL_Driver/Src/stm32f4xx_hal_adc_ex.c ****       tmp2 = HAL_IS_BIT_CLR(hadc->Instance->CR1, ADC_CR1_JAUTO);
 581              		.loc 1 326 14 is_stmt 0 view .LVU178
 582 00aa 0368     		ldr	r3, [r0]
 583 00ac 9A68     		ldr	r2, [r3, #8]
 584 00ae 02F44012 		and	r2, r2, #3145728
 585              	.LVL43:
 327:../STM32CUBEMX/Drivers/STM32F4xx_HAL_Driver/Src/stm32f4xx_hal_adc_ex.c ****       if((hadc->Instance == ADC1) && tmp1 && tmp2)  
 586              		.loc 1 327 7 is_stmt 1 view .LVU179
 327:../STM32CUBEMX/Drivers/STM32F4xx_HAL_Driver/Src/stm32f4xx_hal_adc_ex.c ****       if((hadc->Instance == ADC1) && tmp1 && tmp2)  
 587              		.loc 1 327 14 is_stmt 0 view .LVU180
 588 00b2 5968     		ldr	r1, [r3, #4]
 589 00b4 01F48061 		and	r1, r1, #1024
 590              	.LVL44:
 328:../STM32CUBEMX/Drivers/STM32F4xx_HAL_Driver/Src/stm32f4xx_hal_adc_ex.c ****       {
 591              		.loc 1 328 7 is_stmt 1 view .LVU181
 328:../STM32CUBEMX/Drivers/STM32F4xx_HAL_Driver/Src/stm32f4xx_hal_adc_ex.c ****       {
 592              		.loc 1 328 9 is_stmt 0 view .LVU182
 593 00b8 1348     		ldr	r0, .L45+12
 594              	.LVL45:
 328:../STM32CUBEMX/Drivers/STM32F4xx_HAL_Driver/Src/stm32f4xx_hal_adc_ex.c ****       {
 595              		.loc 1 328 9 view .LVU183
 596 00ba 8342     		cmp	r3, r0
 597 00bc 01D0     		beq	.L44
 345:../STM32CUBEMX/Drivers/STM32F4xx_HAL_Driver/Src/stm32f4xx_hal_adc_ex.c **** }
 598              		.loc 1 345 10 view .LVU184
 599 00be 0020     		movs	r0, #0
 600 00c0 10E0     		b	.L30
 601              	.L44:
 328:../STM32CUBEMX/Drivers/STM32F4xx_HAL_Driver/Src/stm32f4xx_hal_adc_ex.c ****       {
 602              		.loc 1 328 35 discriminator 1 view .LVU185
 603 00c2 BAB9     		cbnz	r2, .L41
 328:../STM32CUBEMX/Drivers/STM32F4xx_HAL_Driver/Src/stm32f4xx_hal_adc_ex.c ****       {
 604              		.loc 1 328 43 discriminator 2 view .LVU186
 605 00c4 C1B9     		cbnz	r1, .L42
 331:../STM32CUBEMX/Drivers/STM32F4xx_HAL_Driver/Src/stm32f4xx_hal_adc_ex.c ****       }
 606              		.loc 1 331 9 is_stmt 1 view .LVU187
 331:../STM32CUBEMX/Drivers/STM32F4xx_HAL_Driver/Src/stm32f4xx_hal_adc_ex.c ****       }
 607              		.loc 1 331 29 is_stmt 0 view .LVU188
 608 00c6 9A68     		ldr	r2, [r3, #8]
 609              	.LVL46:
 331:../STM32CUBEMX/Drivers/STM32F4xx_HAL_Driver/Src/stm32f4xx_hal_adc_ex.c ****       }
 610              		.loc 1 331 29 view .LVU189
 611 00c8 42F48002 		orr	r2, r2, #4194304
 612 00cc 9A60     		str	r2, [r3, #8]
ARM GAS  C:\Users\ysl\AppData\Local\Temp\ccRy7Oyd.s 			page 34


 345:../STM32CUBEMX/Drivers/STM32F4xx_HAL_Driver/Src/stm32f4xx_hal_adc_ex.c **** }
 613              		.loc 1 345 10 view .LVU190
 614 00ce 0020     		movs	r0, #0
 615 00d0 08E0     		b	.L30
 616              	.LVL47:
 617              	.L34:
 338:../STM32CUBEMX/Drivers/STM32F4xx_HAL_Driver/Src/stm32f4xx_hal_adc_ex.c **** 
 618              		.loc 1 338 5 is_stmt 1 view .LVU191
 619 00d2 036C     		ldr	r3, [r0, #64]
 620 00d4 43F01003 		orr	r3, r3, #16
 621 00d8 0364     		str	r3, [r0, #64]
 341:../STM32CUBEMX/Drivers/STM32F4xx_HAL_Driver/Src/stm32f4xx_hal_adc_ex.c ****   }
 622              		.loc 1 341 5 view .LVU192
 623 00da 436C     		ldr	r3, [r0, #68]
 624 00dc 43F00103 		orr	r3, r3, #1
 625 00e0 4364     		str	r3, [r0, #68]
 345:../STM32CUBEMX/Drivers/STM32F4xx_HAL_Driver/Src/stm32f4xx_hal_adc_ex.c **** }
 626              		.loc 1 345 10 is_stmt 0 view .LVU193
 627 00e2 0020     		movs	r0, #0
 628              	.LVL48:
 629              	.L30:
 346:../STM32CUBEMX/Drivers/STM32F4xx_HAL_Driver/Src/stm32f4xx_hal_adc_ex.c **** 
 630              		.loc 1 346 1 view .LVU194
 631 00e4 02B0     		add	sp, sp, #8
 632              	.LCFI7:
 633              		.cfi_remember_state
 634              		.cfi_def_cfa_offset 0
 635              		@ sp needed
 636 00e6 7047     		bx	lr
 637              	.LVL49:
 638              	.L37:
 639              	.LCFI8:
 640              		.cfi_restore_state
 256:../STM32CUBEMX/Drivers/STM32F4xx_HAL_Driver/Src/stm32f4xx_hal_adc_ex.c ****   
 641              		.loc 1 256 3 view .LVU195
 642 00e8 0220     		movs	r0, #2
 643              	.LVL50:
 256:../STM32CUBEMX/Drivers/STM32F4xx_HAL_Driver/Src/stm32f4xx_hal_adc_ex.c ****   
 644              		.loc 1 256 3 view .LVU196
 645 00ea FBE7     		b	.L30
 646              	.LVL51:
 647              	.L38:
 345:../STM32CUBEMX/Drivers/STM32F4xx_HAL_Driver/Src/stm32f4xx_hal_adc_ex.c **** }
 648              		.loc 1 345 10 view .LVU197
 649 00ec 0020     		movs	r0, #0
 650              	.LVL52:
 345:../STM32CUBEMX/Drivers/STM32F4xx_HAL_Driver/Src/stm32f4xx_hal_adc_ex.c **** }
 651              		.loc 1 345 10 view .LVU198
 652 00ee F9E7     		b	.L30
 653              	.LVL53:
 654              	.L39:
 345:../STM32CUBEMX/Drivers/STM32F4xx_HAL_Driver/Src/stm32f4xx_hal_adc_ex.c **** }
 655              		.loc 1 345 10 view .LVU199
 656 00f0 0020     		movs	r0, #0
 657              	.LVL54:
 345:../STM32CUBEMX/Drivers/STM32F4xx_HAL_Driver/Src/stm32f4xx_hal_adc_ex.c **** }
 658              		.loc 1 345 10 view .LVU200
ARM GAS  C:\Users\ysl\AppData\Local\Temp\ccRy7Oyd.s 			page 35


 659 00f2 F7E7     		b	.L30
 660              	.LVL55:
 661              	.L41:
 345:../STM32CUBEMX/Drivers/STM32F4xx_HAL_Driver/Src/stm32f4xx_hal_adc_ex.c **** }
 662              		.loc 1 345 10 view .LVU201
 663 00f4 0020     		movs	r0, #0
 664 00f6 F5E7     		b	.L30
 665              	.L42:
 666 00f8 0020     		movs	r0, #0
 667 00fa F3E7     		b	.L30
 668              	.L46:
 669              		.align	2
 670              	.L45:
 671 00fc 00000000 		.word	SystemCoreClock
 672 0100 83DE1B43 		.word	1125899907
 673 0104 00230140 		.word	1073816320
 674 0108 00200140 		.word	1073815552
 675              		.cfi_endproc
 676              	.LFE236:
 678              		.section	.text.HAL_ADCEx_InjectedStop,"ax",%progbits
 679              		.align	1
 680              		.global	HAL_ADCEx_InjectedStop
 681              		.syntax unified
 682              		.thumb
 683              		.thumb_func
 685              	HAL_ADCEx_InjectedStop:
 686              	.LVL56:
 687              	.LFB237:
 361:../STM32CUBEMX/Drivers/STM32F4xx_HAL_Driver/Src/stm32f4xx_hal_adc_ex.c ****   HAL_StatusTypeDef tmp_hal_status = HAL_OK;
 688              		.loc 1 361 1 is_stmt 1 view -0
 689              		.cfi_startproc
 690              		@ args = 0, pretend = 0, frame = 0
 691              		@ frame_needed = 0, uses_anonymous_args = 0
 692              		@ link register save eliminated.
 361:../STM32CUBEMX/Drivers/STM32F4xx_HAL_Driver/Src/stm32f4xx_hal_adc_ex.c ****   HAL_StatusTypeDef tmp_hal_status = HAL_OK;
 693              		.loc 1 361 1 is_stmt 0 view .LVU203
 694 0000 0346     		mov	r3, r0
 362:../STM32CUBEMX/Drivers/STM32F4xx_HAL_Driver/Src/stm32f4xx_hal_adc_ex.c ****   
 695              		.loc 1 362 3 is_stmt 1 view .LVU204
 696              	.LVL57:
 365:../STM32CUBEMX/Drivers/STM32F4xx_HAL_Driver/Src/stm32f4xx_hal_adc_ex.c **** 
 697              		.loc 1 365 3 view .LVU205
 368:../STM32CUBEMX/Drivers/STM32F4xx_HAL_Driver/Src/stm32f4xx_hal_adc_ex.c ****     
 698              		.loc 1 368 3 view .LVU206
 368:../STM32CUBEMX/Drivers/STM32F4xx_HAL_Driver/Src/stm32f4xx_hal_adc_ex.c ****     
 699              		.loc 1 368 3 view .LVU207
 700 0002 90F83C20 		ldrb	r2, [r0, #60]	@ zero_extendqisi2
 701 0006 012A     		cmp	r2, #1
 702 0008 29D0     		beq	.L51
 368:../STM32CUBEMX/Drivers/STM32F4xx_HAL_Driver/Src/stm32f4xx_hal_adc_ex.c ****     
 703              		.loc 1 368 3 discriminator 2 view .LVU208
 704 000a 0122     		movs	r2, #1
 705 000c 80F83C20 		strb	r2, [r0, #60]
 368:../STM32CUBEMX/Drivers/STM32F4xx_HAL_Driver/Src/stm32f4xx_hal_adc_ex.c ****     
 706              		.loc 1 368 3 discriminator 2 view .LVU209
 376:../STM32CUBEMX/Drivers/STM32F4xx_HAL_Driver/Src/stm32f4xx_hal_adc_ex.c ****      HAL_IS_BIT_CLR(hadc->Instance->CR1, ADC_CR1_JAUTO)   )
 707              		.loc 1 376 3 discriminator 2 view .LVU210
ARM GAS  C:\Users\ysl\AppData\Local\Temp\ccRy7Oyd.s 			page 36


 376:../STM32CUBEMX/Drivers/STM32F4xx_HAL_Driver/Src/stm32f4xx_hal_adc_ex.c ****      HAL_IS_BIT_CLR(hadc->Instance->CR1, ADC_CR1_JAUTO)   )
 708              		.loc 1 376 12 is_stmt 0 discriminator 2 view .LVU211
 709 0010 026C     		ldr	r2, [r0, #64]
 376:../STM32CUBEMX/Drivers/STM32F4xx_HAL_Driver/Src/stm32f4xx_hal_adc_ex.c ****      HAL_IS_BIT_CLR(hadc->Instance->CR1, ADC_CR1_JAUTO)   )
 710              		.loc 1 376 5 discriminator 2 view .LVU212
 711 0012 12F4807F 		tst	r2, #256
 712 0016 17D1     		bne	.L49
 377:../STM32CUBEMX/Drivers/STM32F4xx_HAL_Driver/Src/stm32f4xx_hal_adc_ex.c ****   {
 713              		.loc 1 377 6 discriminator 1 view .LVU213
 714 0018 0268     		ldr	r2, [r0]
 715 001a 5168     		ldr	r1, [r2, #4]
 376:../STM32CUBEMX/Drivers/STM32F4xx_HAL_Driver/Src/stm32f4xx_hal_adc_ex.c ****      HAL_IS_BIT_CLR(hadc->Instance->CR1, ADC_CR1_JAUTO)   )
 716              		.loc 1 376 57 discriminator 1 view .LVU214
 717 001c 11F4806F 		tst	r1, #1024
 718 0020 12D1     		bne	.L49
 381:../STM32CUBEMX/Drivers/STM32F4xx_HAL_Driver/Src/stm32f4xx_hal_adc_ex.c ****     
 719              		.loc 1 381 5 is_stmt 1 view .LVU215
 720 0022 9168     		ldr	r1, [r2, #8]
 721 0024 21F00101 		bic	r1, r1, #1
 722 0028 9160     		str	r1, [r2, #8]
 384:../STM32CUBEMX/Drivers/STM32F4xx_HAL_Driver/Src/stm32f4xx_hal_adc_ex.c ****     {
 723              		.loc 1 384 5 view .LVU216
 384:../STM32CUBEMX/Drivers/STM32F4xx_HAL_Driver/Src/stm32f4xx_hal_adc_ex.c ****     {
 724              		.loc 1 384 8 is_stmt 0 view .LVU217
 725 002a 0268     		ldr	r2, [r0]
 726 002c 9268     		ldr	r2, [r2, #8]
 384:../STM32CUBEMX/Drivers/STM32F4xx_HAL_Driver/Src/stm32f4xx_hal_adc_ex.c ****     {
 727              		.loc 1 384 7 view .LVU218
 728 002e 12F0010F 		tst	r2, #1
 729 0032 12D1     		bne	.L52
 387:../STM32CUBEMX/Drivers/STM32F4xx_HAL_Driver/Src/stm32f4xx_hal_adc_ex.c ****                         HAL_ADC_STATE_REG_BUSY | HAL_ADC_STATE_INJ_BUSY,
 730              		.loc 1 387 7 is_stmt 1 view .LVU219
 731 0034 026C     		ldr	r2, [r0, #64]
 732 0036 22F48852 		bic	r2, r2, #4352
 733 003a 22F00102 		bic	r2, r2, #1
 734 003e 42F00102 		orr	r2, r2, #1
 735 0042 0264     		str	r2, [r0, #64]
 362:../STM32CUBEMX/Drivers/STM32F4xx_HAL_Driver/Src/stm32f4xx_hal_adc_ex.c ****   
 736              		.loc 1 362 21 is_stmt 0 view .LVU220
 737 0044 0020     		movs	r0, #0
 738              	.LVL58:
 362:../STM32CUBEMX/Drivers/STM32F4xx_HAL_Driver/Src/stm32f4xx_hal_adc_ex.c ****   
 739              		.loc 1 362 21 view .LVU221
 740 0046 04E0     		b	.L50
 741              	.LVL59:
 742              	.L49:
 395:../STM32CUBEMX/Drivers/STM32F4xx_HAL_Driver/Src/stm32f4xx_hal_adc_ex.c ****       
 743              		.loc 1 395 5 is_stmt 1 view .LVU222
 744 0048 1A6C     		ldr	r2, [r3, #64]
 745 004a 42F02002 		orr	r2, r2, #32
 746 004e 1A64     		str	r2, [r3, #64]
 397:../STM32CUBEMX/Drivers/STM32F4xx_HAL_Driver/Src/stm32f4xx_hal_adc_ex.c ****   }
 747              		.loc 1 397 5 view .LVU223
 748              	.LVL60:
 397:../STM32CUBEMX/Drivers/STM32F4xx_HAL_Driver/Src/stm32f4xx_hal_adc_ex.c ****   }
 749              		.loc 1 397 20 is_stmt 0 view .LVU224
 750 0050 0120     		movs	r0, #1
ARM GAS  C:\Users\ysl\AppData\Local\Temp\ccRy7Oyd.s 			page 37


 751              	.LVL61:
 752              	.L50:
 401:../STM32CUBEMX/Drivers/STM32F4xx_HAL_Driver/Src/stm32f4xx_hal_adc_ex.c ****   
 753              		.loc 1 401 3 is_stmt 1 view .LVU225
 401:../STM32CUBEMX/Drivers/STM32F4xx_HAL_Driver/Src/stm32f4xx_hal_adc_ex.c ****   
 754              		.loc 1 401 3 view .LVU226
 755 0052 0022     		movs	r2, #0
 756 0054 83F83C20 		strb	r2, [r3, #60]
 401:../STM32CUBEMX/Drivers/STM32F4xx_HAL_Driver/Src/stm32f4xx_hal_adc_ex.c ****   
 757              		.loc 1 401 3 view .LVU227
 404:../STM32CUBEMX/Drivers/STM32F4xx_HAL_Driver/Src/stm32f4xx_hal_adc_ex.c **** }
 758              		.loc 1 404 3 view .LVU228
 404:../STM32CUBEMX/Drivers/STM32F4xx_HAL_Driver/Src/stm32f4xx_hal_adc_ex.c **** }
 759              		.loc 1 404 10 is_stmt 0 view .LVU229
 760 0058 7047     		bx	lr
 761              	.LVL62:
 762              	.L52:
 362:../STM32CUBEMX/Drivers/STM32F4xx_HAL_Driver/Src/stm32f4xx_hal_adc_ex.c ****   
 763              		.loc 1 362 21 view .LVU230
 764 005a 0020     		movs	r0, #0
 765              	.LVL63:
 362:../STM32CUBEMX/Drivers/STM32F4xx_HAL_Driver/Src/stm32f4xx_hal_adc_ex.c ****   
 766              		.loc 1 362 21 view .LVU231
 767 005c F9E7     		b	.L50
 768              	.LVL64:
 769              	.L51:
 368:../STM32CUBEMX/Drivers/STM32F4xx_HAL_Driver/Src/stm32f4xx_hal_adc_ex.c ****     
 770              		.loc 1 368 3 view .LVU232
 771 005e 0220     		movs	r0, #2
 772              	.LVL65:
 405:../STM32CUBEMX/Drivers/STM32F4xx_HAL_Driver/Src/stm32f4xx_hal_adc_ex.c **** 
 773              		.loc 1 405 1 view .LVU233
 774 0060 7047     		bx	lr
 775              		.cfi_endproc
 776              	.LFE237:
 778              		.section	.text.HAL_ADCEx_InjectedPollForConversion,"ax",%progbits
 779              		.align	1
 780              		.global	HAL_ADCEx_InjectedPollForConversion
 781              		.syntax unified
 782              		.thumb
 783              		.thumb_func
 785              	HAL_ADCEx_InjectedPollForConversion:
 786              	.LVL66:
 787              	.LFB238:
 415:../STM32CUBEMX/Drivers/STM32F4xx_HAL_Driver/Src/stm32f4xx_hal_adc_ex.c ****   uint32_t tickstart = 0U;
 788              		.loc 1 415 1 is_stmt 1 view -0
 789              		.cfi_startproc
 790              		@ args = 0, pretend = 0, frame = 0
 791              		@ frame_needed = 0, uses_anonymous_args = 0
 415:../STM32CUBEMX/Drivers/STM32F4xx_HAL_Driver/Src/stm32f4xx_hal_adc_ex.c ****   uint32_t tickstart = 0U;
 792              		.loc 1 415 1 is_stmt 0 view .LVU235
 793 0000 70B5     		push	{r4, r5, r6, lr}
 794              	.LCFI9:
 795              		.cfi_def_cfa_offset 16
 796              		.cfi_offset 4, -16
 797              		.cfi_offset 5, -12
 798              		.cfi_offset 6, -8
ARM GAS  C:\Users\ysl\AppData\Local\Temp\ccRy7Oyd.s 			page 38


 799              		.cfi_offset 14, -4
 800 0002 0446     		mov	r4, r0
 801 0004 0D46     		mov	r5, r1
 416:../STM32CUBEMX/Drivers/STM32F4xx_HAL_Driver/Src/stm32f4xx_hal_adc_ex.c **** 
 802              		.loc 1 416 3 is_stmt 1 view .LVU236
 803              	.LVL67:
 419:../STM32CUBEMX/Drivers/STM32F4xx_HAL_Driver/Src/stm32f4xx_hal_adc_ex.c **** 
 804              		.loc 1 419 3 view .LVU237
 419:../STM32CUBEMX/Drivers/STM32F4xx_HAL_Driver/Src/stm32f4xx_hal_adc_ex.c **** 
 805              		.loc 1 419 15 is_stmt 0 view .LVU238
 806 0006 FFF7FEFF 		bl	HAL_GetTick
 807              	.LVL68:
 419:../STM32CUBEMX/Drivers/STM32F4xx_HAL_Driver/Src/stm32f4xx_hal_adc_ex.c **** 
 808              		.loc 1 419 15 view .LVU239
 809 000a 0646     		mov	r6, r0
 810              	.LVL69:
 422:../STM32CUBEMX/Drivers/STM32F4xx_HAL_Driver/Src/stm32f4xx_hal_adc_ex.c ****   {
 811              		.loc 1 422 3 is_stmt 1 view .LVU240
 812              	.L55:
 422:../STM32CUBEMX/Drivers/STM32F4xx_HAL_Driver/Src/stm32f4xx_hal_adc_ex.c ****   {
 813              		.loc 1 422 9 view .LVU241
 422:../STM32CUBEMX/Drivers/STM32F4xx_HAL_Driver/Src/stm32f4xx_hal_adc_ex.c ****   {
 814              		.loc 1 422 11 is_stmt 0 view .LVU242
 815 000c 2368     		ldr	r3, [r4]
 816 000e 1A68     		ldr	r2, [r3]
 422:../STM32CUBEMX/Drivers/STM32F4xx_HAL_Driver/Src/stm32f4xx_hal_adc_ex.c ****   {
 817              		.loc 1 422 9 view .LVU243
 818 0010 12F0040F 		tst	r2, #4
 819 0014 15D1     		bne	.L67
 425:../STM32CUBEMX/Drivers/STM32F4xx_HAL_Driver/Src/stm32f4xx_hal_adc_ex.c ****     {
 820              		.loc 1 425 5 is_stmt 1 view .LVU244
 425:../STM32CUBEMX/Drivers/STM32F4xx_HAL_Driver/Src/stm32f4xx_hal_adc_ex.c ****     {
 821              		.loc 1 425 7 is_stmt 0 view .LVU245
 822 0016 B5F1FF3F 		cmp	r5, #-1
 823 001a F7D0     		beq	.L55
 427:../STM32CUBEMX/Drivers/STM32F4xx_HAL_Driver/Src/stm32f4xx_hal_adc_ex.c ****       {
 824              		.loc 1 427 7 is_stmt 1 view .LVU246
 427:../STM32CUBEMX/Drivers/STM32F4xx_HAL_Driver/Src/stm32f4xx_hal_adc_ex.c ****       {
 825              		.loc 1 427 9 is_stmt 0 view .LVU247
 826 001c 5DB9     		cbnz	r5, .L68
 827              	.L56:
 430:../STM32CUBEMX/Drivers/STM32F4xx_HAL_Driver/Src/stm32f4xx_hal_adc_ex.c ****         {
 828              		.loc 1 430 9 is_stmt 1 view .LVU248
 430:../STM32CUBEMX/Drivers/STM32F4xx_HAL_Driver/Src/stm32f4xx_hal_adc_ex.c ****         {
 829              		.loc 1 430 14 is_stmt 0 view .LVU249
 830 001e 2368     		ldr	r3, [r4]
 831 0020 1B68     		ldr	r3, [r3]
 430:../STM32CUBEMX/Drivers/STM32F4xx_HAL_Driver/Src/stm32f4xx_hal_adc_ex.c ****         {
 832              		.loc 1 430 11 view .LVU250
 833 0022 13F0040F 		tst	r3, #4
 834 0026 F1D1     		bne	.L55
 432:../STM32CUBEMX/Drivers/STM32F4xx_HAL_Driver/Src/stm32f4xx_hal_adc_ex.c ****           /* Process unlocked */
 835              		.loc 1 432 11 is_stmt 1 view .LVU251
 432:../STM32CUBEMX/Drivers/STM32F4xx_HAL_Driver/Src/stm32f4xx_hal_adc_ex.c ****           /* Process unlocked */
 836              		.loc 1 432 22 is_stmt 0 view .LVU252
 837 0028 0423     		movs	r3, #4
 838 002a 2364     		str	r3, [r4, #64]
ARM GAS  C:\Users\ysl\AppData\Local\Temp\ccRy7Oyd.s 			page 39


 434:../STM32CUBEMX/Drivers/STM32F4xx_HAL_Driver/Src/stm32f4xx_hal_adc_ex.c ****           return HAL_TIMEOUT;
 839              		.loc 1 434 11 is_stmt 1 view .LVU253
 434:../STM32CUBEMX/Drivers/STM32F4xx_HAL_Driver/Src/stm32f4xx_hal_adc_ex.c ****           return HAL_TIMEOUT;
 840              		.loc 1 434 11 view .LVU254
 841 002c 0023     		movs	r3, #0
 842 002e 84F83C30 		strb	r3, [r4, #60]
 434:../STM32CUBEMX/Drivers/STM32F4xx_HAL_Driver/Src/stm32f4xx_hal_adc_ex.c ****           return HAL_TIMEOUT;
 843              		.loc 1 434 11 view .LVU255
 435:../STM32CUBEMX/Drivers/STM32F4xx_HAL_Driver/Src/stm32f4xx_hal_adc_ex.c ****         }
 844              		.loc 1 435 11 view .LVU256
 435:../STM32CUBEMX/Drivers/STM32F4xx_HAL_Driver/Src/stm32f4xx_hal_adc_ex.c ****         }
 845              		.loc 1 435 18 is_stmt 0 view .LVU257
 846 0032 0320     		movs	r0, #3
 847 0034 31E0     		b	.L58
 848              	.L68:
 427:../STM32CUBEMX/Drivers/STM32F4xx_HAL_Driver/Src/stm32f4xx_hal_adc_ex.c ****       {
 849              		.loc 1 427 29 discriminator 1 view .LVU258
 850 0036 FFF7FEFF 		bl	HAL_GetTick
 851              	.LVL70:
 427:../STM32CUBEMX/Drivers/STM32F4xx_HAL_Driver/Src/stm32f4xx_hal_adc_ex.c ****       {
 852              		.loc 1 427 43 discriminator 1 view .LVU259
 853 003a 801B     		subs	r0, r0, r6
 427:../STM32CUBEMX/Drivers/STM32F4xx_HAL_Driver/Src/stm32f4xx_hal_adc_ex.c ****       {
 854              		.loc 1 427 25 discriminator 1 view .LVU260
 855 003c A842     		cmp	r0, r5
 856 003e E5D9     		bls	.L55
 857 0040 EDE7     		b	.L56
 858              	.L67:
 442:../STM32CUBEMX/Drivers/STM32F4xx_HAL_Driver/Src/stm32f4xx_hal_adc_ex.c ****     
 859              		.loc 1 442 3 is_stmt 1 view .LVU261
 860 0042 6FF00C02 		mvn	r2, #12
 861 0046 1A60     		str	r2, [r3]
 445:../STM32CUBEMX/Drivers/STM32F4xx_HAL_Driver/Src/stm32f4xx_hal_adc_ex.c ****   
 862              		.loc 1 445 3 view .LVU262
 863 0048 236C     		ldr	r3, [r4, #64]
 864 004a 43F40053 		orr	r3, r3, #8192
 865 004e 2364     		str	r3, [r4, #64]
 453:../STM32CUBEMX/Drivers/STM32F4xx_HAL_Driver/Src/stm32f4xx_hal_adc_ex.c ****      (HAL_IS_BIT_CLR(hadc->Instance->JSQR, ADC_JSQR_JL)  ||
 866              		.loc 1 453 3 view .LVU263
 453:../STM32CUBEMX/Drivers/STM32F4xx_HAL_Driver/Src/stm32f4xx_hal_adc_ex.c ****      (HAL_IS_BIT_CLR(hadc->Instance->JSQR, ADC_JSQR_JL)  ||
 867              		.loc 1 453 6 is_stmt 0 view .LVU264
 868 0050 2368     		ldr	r3, [r4]
 869 0052 9A68     		ldr	r2, [r3, #8]
 453:../STM32CUBEMX/Drivers/STM32F4xx_HAL_Driver/Src/stm32f4xx_hal_adc_ex.c ****      (HAL_IS_BIT_CLR(hadc->Instance->JSQR, ADC_JSQR_JL)  ||
 870              		.loc 1 453 5 view .LVU265
 871 0054 12F4401F 		tst	r2, #3145728
 872 0058 1ED1     		bne	.L61
 454:../STM32CUBEMX/Drivers/STM32F4xx_HAL_Driver/Src/stm32f4xx_hal_adc_ex.c ****       HAL_IS_BIT_CLR(hadc->Instance->CR2, ADC_CR2_EOCS)    ) &&
 873              		.loc 1 454 7 discriminator 1 view .LVU266
 874 005a 9A6B     		ldr	r2, [r3, #56]
 453:../STM32CUBEMX/Drivers/STM32F4xx_HAL_Driver/Src/stm32f4xx_hal_adc_ex.c ****      (HAL_IS_BIT_CLR(hadc->Instance->JSQR, ADC_JSQR_JL)  ||
 875              		.loc 1 453 62 discriminator 1 view .LVU267
 876 005c 12F4401F 		tst	r2, #3145728
 877 0060 03D0     		beq	.L60
 455:../STM32CUBEMX/Drivers/STM32F4xx_HAL_Driver/Src/stm32f4xx_hal_adc_ex.c ****      (HAL_IS_BIT_CLR(hadc->Instance->CR1, ADC_CR1_JAUTO) &&
 878              		.loc 1 455 7 view .LVU268
 879 0062 9A68     		ldr	r2, [r3, #8]
ARM GAS  C:\Users\ysl\AppData\Local\Temp\ccRy7Oyd.s 			page 40


 454:../STM32CUBEMX/Drivers/STM32F4xx_HAL_Driver/Src/stm32f4xx_hal_adc_ex.c ****       HAL_IS_BIT_CLR(hadc->Instance->CR2, ADC_CR2_EOCS)    ) &&
 880              		.loc 1 454 58 view .LVU269
 881 0064 12F4806F 		tst	r2, #1024
 882 0068 18D1     		bne	.L62
 883              	.L60:
 456:../STM32CUBEMX/Drivers/STM32F4xx_HAL_Driver/Src/stm32f4xx_hal_adc_ex.c ****       (ADC_IS_SOFTWARE_START_REGULAR(hadc)       &&
 884              		.loc 1 456 7 view .LVU270
 885 006a 5A68     		ldr	r2, [r3, #4]
 455:../STM32CUBEMX/Drivers/STM32F4xx_HAL_Driver/Src/stm32f4xx_hal_adc_ex.c ****      (HAL_IS_BIT_CLR(hadc->Instance->CR1, ADC_CR1_JAUTO) &&
 886              		.loc 1 455 62 view .LVU271
 887 006c 12F4806F 		tst	r2, #1024
 888 0070 16D1     		bne	.L63
 457:../STM32CUBEMX/Drivers/STM32F4xx_HAL_Driver/Src/stm32f4xx_hal_adc_ex.c ****       (hadc->Init.ContinuousConvMode == DISABLE)   )       )   )
 889              		.loc 1 457 8 view .LVU272
 890 0072 9B68     		ldr	r3, [r3, #8]
 456:../STM32CUBEMX/Drivers/STM32F4xx_HAL_Driver/Src/stm32f4xx_hal_adc_ex.c ****       (ADC_IS_SOFTWARE_START_REGULAR(hadc)       &&
 891              		.loc 1 456 58 view .LVU273
 892 0074 13F0405F 		tst	r3, #805306368
 893 0078 14D1     		bne	.L64
 458:../STM32CUBEMX/Drivers/STM32F4xx_HAL_Driver/Src/stm32f4xx_hal_adc_ex.c ****   {
 894              		.loc 1 458 18 view .LVU274
 895 007a 207E     		ldrb	r0, [r4, #24]	@ zero_extendqisi2
 457:../STM32CUBEMX/Drivers/STM32F4xx_HAL_Driver/Src/stm32f4xx_hal_adc_ex.c ****       (hadc->Init.ContinuousConvMode == DISABLE)   )       )   )
 896              		.loc 1 457 50 view .LVU275
 897 007c A0B9     		cbnz	r0, .L65
 461:../STM32CUBEMX/Drivers/STM32F4xx_HAL_Driver/Src/stm32f4xx_hal_adc_ex.c ****     
 898              		.loc 1 461 5 is_stmt 1 view .LVU276
 899 007e 236C     		ldr	r3, [r4, #64]
 900 0080 23F48053 		bic	r3, r3, #4096
 901 0084 2364     		str	r3, [r4, #64]
 463:../STM32CUBEMX/Drivers/STM32F4xx_HAL_Driver/Src/stm32f4xx_hal_adc_ex.c ****     { 
 902              		.loc 1 463 5 view .LVU277
 463:../STM32CUBEMX/Drivers/STM32F4xx_HAL_Driver/Src/stm32f4xx_hal_adc_ex.c ****     { 
 903              		.loc 1 463 9 is_stmt 0 view .LVU278
 904 0086 236C     		ldr	r3, [r4, #64]
 463:../STM32CUBEMX/Drivers/STM32F4xx_HAL_Driver/Src/stm32f4xx_hal_adc_ex.c ****     { 
 905              		.loc 1 463 8 view .LVU279
 906 0088 13F4807F 		tst	r3, #256
 907 008c 05D1     		bne	.L58
 465:../STM32CUBEMX/Drivers/STM32F4xx_HAL_Driver/Src/stm32f4xx_hal_adc_ex.c ****     }
 908              		.loc 1 465 7 is_stmt 1 view .LVU280
 909 008e 236C     		ldr	r3, [r4, #64]
 910 0090 43F00103 		orr	r3, r3, #1
 911 0094 2364     		str	r3, [r4, #64]
 912 0096 00E0     		b	.L58
 913              	.L61:
 470:../STM32CUBEMX/Drivers/STM32F4xx_HAL_Driver/Src/stm32f4xx_hal_adc_ex.c **** }      
 914              		.loc 1 470 10 is_stmt 0 view .LVU281
 915 0098 0020     		movs	r0, #0
 916              	.L58:
 471:../STM32CUBEMX/Drivers/STM32F4xx_HAL_Driver/Src/stm32f4xx_hal_adc_ex.c ****   
 917              		.loc 1 471 1 view .LVU282
 918 009a 70BD     		pop	{r4, r5, r6, pc}
 919              	.LVL71:
 920              	.L62:
 470:../STM32CUBEMX/Drivers/STM32F4xx_HAL_Driver/Src/stm32f4xx_hal_adc_ex.c **** }      
 921              		.loc 1 470 10 view .LVU283
ARM GAS  C:\Users\ysl\AppData\Local\Temp\ccRy7Oyd.s 			page 41


 922 009c 0020     		movs	r0, #0
 923 009e FCE7     		b	.L58
 924              	.L63:
 925 00a0 0020     		movs	r0, #0
 926 00a2 FAE7     		b	.L58
 927              	.L64:
 928 00a4 0020     		movs	r0, #0
 929 00a6 F8E7     		b	.L58
 930              	.L65:
 470:../STM32CUBEMX/Drivers/STM32F4xx_HAL_Driver/Src/stm32f4xx_hal_adc_ex.c **** }      
 931              		.loc 1 470 10 view .LVU284
 932 00a8 0020     		movs	r0, #0
 933 00aa F6E7     		b	.L58
 934              		.cfi_endproc
 935              	.LFE238:
 937              		.section	.text.HAL_ADCEx_InjectedStop_IT,"ax",%progbits
 938              		.align	1
 939              		.global	HAL_ADCEx_InjectedStop_IT
 940              		.syntax unified
 941              		.thumb
 942              		.thumb_func
 944              	HAL_ADCEx_InjectedStop_IT:
 945              	.LVL72:
 946              	.LFB239:
 486:../STM32CUBEMX/Drivers/STM32F4xx_HAL_Driver/Src/stm32f4xx_hal_adc_ex.c ****   HAL_StatusTypeDef tmp_hal_status = HAL_OK;
 947              		.loc 1 486 1 is_stmt 1 view -0
 948              		.cfi_startproc
 949              		@ args = 0, pretend = 0, frame = 0
 950              		@ frame_needed = 0, uses_anonymous_args = 0
 951              		@ link register save eliminated.
 486:../STM32CUBEMX/Drivers/STM32F4xx_HAL_Driver/Src/stm32f4xx_hal_adc_ex.c ****   HAL_StatusTypeDef tmp_hal_status = HAL_OK;
 952              		.loc 1 486 1 is_stmt 0 view .LVU286
 953 0000 0346     		mov	r3, r0
 487:../STM32CUBEMX/Drivers/STM32F4xx_HAL_Driver/Src/stm32f4xx_hal_adc_ex.c ****   
 954              		.loc 1 487 3 is_stmt 1 view .LVU287
 955              	.LVL73:
 490:../STM32CUBEMX/Drivers/STM32F4xx_HAL_Driver/Src/stm32f4xx_hal_adc_ex.c **** 
 956              		.loc 1 490 3 view .LVU288
 493:../STM32CUBEMX/Drivers/STM32F4xx_HAL_Driver/Src/stm32f4xx_hal_adc_ex.c ****     
 957              		.loc 1 493 3 view .LVU289
 493:../STM32CUBEMX/Drivers/STM32F4xx_HAL_Driver/Src/stm32f4xx_hal_adc_ex.c ****     
 958              		.loc 1 493 3 view .LVU290
 959 0002 90F83C20 		ldrb	r2, [r0, #60]	@ zero_extendqisi2
 960 0006 012A     		cmp	r2, #1
 961 0008 2DD0     		beq	.L73
 493:../STM32CUBEMX/Drivers/STM32F4xx_HAL_Driver/Src/stm32f4xx_hal_adc_ex.c ****     
 962              		.loc 1 493 3 discriminator 2 view .LVU291
 963 000a 0122     		movs	r2, #1
 964 000c 80F83C20 		strb	r2, [r0, #60]
 493:../STM32CUBEMX/Drivers/STM32F4xx_HAL_Driver/Src/stm32f4xx_hal_adc_ex.c ****     
 965              		.loc 1 493 3 discriminator 2 view .LVU292
 501:../STM32CUBEMX/Drivers/STM32F4xx_HAL_Driver/Src/stm32f4xx_hal_adc_ex.c ****      HAL_IS_BIT_CLR(hadc->Instance->CR1, ADC_CR1_JAUTO)   )
 966              		.loc 1 501 3 discriminator 2 view .LVU293
 501:../STM32CUBEMX/Drivers/STM32F4xx_HAL_Driver/Src/stm32f4xx_hal_adc_ex.c ****      HAL_IS_BIT_CLR(hadc->Instance->CR1, ADC_CR1_JAUTO)   )
 967              		.loc 1 501 12 is_stmt 0 discriminator 2 view .LVU294
 968 0010 026C     		ldr	r2, [r0, #64]
 501:../STM32CUBEMX/Drivers/STM32F4xx_HAL_Driver/Src/stm32f4xx_hal_adc_ex.c ****      HAL_IS_BIT_CLR(hadc->Instance->CR1, ADC_CR1_JAUTO)   )
ARM GAS  C:\Users\ysl\AppData\Local\Temp\ccRy7Oyd.s 			page 42


 969              		.loc 1 501 5 discriminator 2 view .LVU295
 970 0012 12F4807F 		tst	r2, #256
 971 0016 1BD1     		bne	.L71
 502:../STM32CUBEMX/Drivers/STM32F4xx_HAL_Driver/Src/stm32f4xx_hal_adc_ex.c ****   {
 972              		.loc 1 502 6 discriminator 1 view .LVU296
 973 0018 0268     		ldr	r2, [r0]
 974 001a 5168     		ldr	r1, [r2, #4]
 501:../STM32CUBEMX/Drivers/STM32F4xx_HAL_Driver/Src/stm32f4xx_hal_adc_ex.c ****      HAL_IS_BIT_CLR(hadc->Instance->CR1, ADC_CR1_JAUTO)   )
 975              		.loc 1 501 57 discriminator 1 view .LVU297
 976 001c 11F4806F 		tst	r1, #1024
 977 0020 16D1     		bne	.L71
 506:../STM32CUBEMX/Drivers/STM32F4xx_HAL_Driver/Src/stm32f4xx_hal_adc_ex.c ****     
 978              		.loc 1 506 5 is_stmt 1 view .LVU298
 979 0022 9168     		ldr	r1, [r2, #8]
 980 0024 21F00101 		bic	r1, r1, #1
 981 0028 9160     		str	r1, [r2, #8]
 509:../STM32CUBEMX/Drivers/STM32F4xx_HAL_Driver/Src/stm32f4xx_hal_adc_ex.c ****     {
 982              		.loc 1 509 5 view .LVU299
 509:../STM32CUBEMX/Drivers/STM32F4xx_HAL_Driver/Src/stm32f4xx_hal_adc_ex.c ****     {
 983              		.loc 1 509 8 is_stmt 0 view .LVU300
 984 002a 0268     		ldr	r2, [r0]
 985 002c 9168     		ldr	r1, [r2, #8]
 509:../STM32CUBEMX/Drivers/STM32F4xx_HAL_Driver/Src/stm32f4xx_hal_adc_ex.c ****     {
 986              		.loc 1 509 7 view .LVU301
 987 002e 11F0010F 		tst	r1, #1
 988 0032 16D1     		bne	.L74
 512:../STM32CUBEMX/Drivers/STM32F4xx_HAL_Driver/Src/stm32f4xx_hal_adc_ex.c ****       
 989              		.loc 1 512 7 is_stmt 1 view .LVU302
 990 0034 5168     		ldr	r1, [r2, #4]
 991 0036 21F08001 		bic	r1, r1, #128
 992 003a 5160     		str	r1, [r2, #4]
 515:../STM32CUBEMX/Drivers/STM32F4xx_HAL_Driver/Src/stm32f4xx_hal_adc_ex.c ****                         HAL_ADC_STATE_REG_BUSY | HAL_ADC_STATE_INJ_BUSY,
 993              		.loc 1 515 7 view .LVU303
 994 003c 026C     		ldr	r2, [r0, #64]
 995 003e 22F48852 		bic	r2, r2, #4352
 996 0042 22F00102 		bic	r2, r2, #1
 997 0046 42F00102 		orr	r2, r2, #1
 998 004a 0264     		str	r2, [r0, #64]
 487:../STM32CUBEMX/Drivers/STM32F4xx_HAL_Driver/Src/stm32f4xx_hal_adc_ex.c ****   
 999              		.loc 1 487 21 is_stmt 0 view .LVU304
 1000 004c 0020     		movs	r0, #0
 1001              	.LVL74:
 487:../STM32CUBEMX/Drivers/STM32F4xx_HAL_Driver/Src/stm32f4xx_hal_adc_ex.c ****   
 1002              		.loc 1 487 21 view .LVU305
 1003 004e 04E0     		b	.L72
 1004              	.LVL75:
 1005              	.L71:
 523:../STM32CUBEMX/Drivers/STM32F4xx_HAL_Driver/Src/stm32f4xx_hal_adc_ex.c ****       
 1006              		.loc 1 523 5 is_stmt 1 view .LVU306
 1007 0050 1A6C     		ldr	r2, [r3, #64]
 1008 0052 42F02002 		orr	r2, r2, #32
 1009 0056 1A64     		str	r2, [r3, #64]
 525:../STM32CUBEMX/Drivers/STM32F4xx_HAL_Driver/Src/stm32f4xx_hal_adc_ex.c ****   }
 1010              		.loc 1 525 5 view .LVU307
 1011              	.LVL76:
 525:../STM32CUBEMX/Drivers/STM32F4xx_HAL_Driver/Src/stm32f4xx_hal_adc_ex.c ****   }
 1012              		.loc 1 525 20 is_stmt 0 view .LVU308
ARM GAS  C:\Users\ysl\AppData\Local\Temp\ccRy7Oyd.s 			page 43


 1013 0058 0120     		movs	r0, #1
 1014              	.LVL77:
 1015              	.L72:
 529:../STM32CUBEMX/Drivers/STM32F4xx_HAL_Driver/Src/stm32f4xx_hal_adc_ex.c ****   
 1016              		.loc 1 529 3 is_stmt 1 view .LVU309
 529:../STM32CUBEMX/Drivers/STM32F4xx_HAL_Driver/Src/stm32f4xx_hal_adc_ex.c ****   
 1017              		.loc 1 529 3 view .LVU310
 1018 005a 0022     		movs	r2, #0
 1019 005c 83F83C20 		strb	r2, [r3, #60]
 529:../STM32CUBEMX/Drivers/STM32F4xx_HAL_Driver/Src/stm32f4xx_hal_adc_ex.c ****   
 1020              		.loc 1 529 3 view .LVU311
 532:../STM32CUBEMX/Drivers/STM32F4xx_HAL_Driver/Src/stm32f4xx_hal_adc_ex.c **** }
 1021              		.loc 1 532 3 view .LVU312
 532:../STM32CUBEMX/Drivers/STM32F4xx_HAL_Driver/Src/stm32f4xx_hal_adc_ex.c **** }
 1022              		.loc 1 532 10 is_stmt 0 view .LVU313
 1023 0060 7047     		bx	lr
 1024              	.LVL78:
 1025              	.L74:
 487:../STM32CUBEMX/Drivers/STM32F4xx_HAL_Driver/Src/stm32f4xx_hal_adc_ex.c ****   
 1026              		.loc 1 487 21 view .LVU314
 1027 0062 0020     		movs	r0, #0
 1028              	.LVL79:
 487:../STM32CUBEMX/Drivers/STM32F4xx_HAL_Driver/Src/stm32f4xx_hal_adc_ex.c ****   
 1029              		.loc 1 487 21 view .LVU315
 1030 0064 F9E7     		b	.L72
 1031              	.LVL80:
 1032              	.L73:
 493:../STM32CUBEMX/Drivers/STM32F4xx_HAL_Driver/Src/stm32f4xx_hal_adc_ex.c ****     
 1033              		.loc 1 493 3 view .LVU316
 1034 0066 0220     		movs	r0, #2
 1035              	.LVL81:
 533:../STM32CUBEMX/Drivers/STM32F4xx_HAL_Driver/Src/stm32f4xx_hal_adc_ex.c **** 
 1036              		.loc 1 533 1 view .LVU317
 1037 0068 7047     		bx	lr
 1038              		.cfi_endproc
 1039              	.LFE239:
 1041              		.section	.text.HAL_ADCEx_InjectedGetValue,"ax",%progbits
 1042              		.align	1
 1043              		.global	HAL_ADCEx_InjectedGetValue
 1044              		.syntax unified
 1045              		.thumb
 1046              		.thumb_func
 1048              	HAL_ADCEx_InjectedGetValue:
 1049              	.LVL82:
 1050              	.LFB240:
 548:../STM32CUBEMX/Drivers/STM32F4xx_HAL_Driver/Src/stm32f4xx_hal_adc_ex.c ****   __IO uint32_t tmp = 0U;
 1051              		.loc 1 548 1 is_stmt 1 view -0
 1052              		.cfi_startproc
 1053              		@ args = 0, pretend = 0, frame = 8
 1054              		@ frame_needed = 0, uses_anonymous_args = 0
 1055              		@ link register save eliminated.
 548:../STM32CUBEMX/Drivers/STM32F4xx_HAL_Driver/Src/stm32f4xx_hal_adc_ex.c ****   __IO uint32_t tmp = 0U;
 1056              		.loc 1 548 1 is_stmt 0 view .LVU319
 1057 0000 82B0     		sub	sp, sp, #8
 1058              	.LCFI10:
 1059              		.cfi_def_cfa_offset 8
 549:../STM32CUBEMX/Drivers/STM32F4xx_HAL_Driver/Src/stm32f4xx_hal_adc_ex.c ****   
ARM GAS  C:\Users\ysl\AppData\Local\Temp\ccRy7Oyd.s 			page 44


 1060              		.loc 1 549 3 is_stmt 1 view .LVU320
 549:../STM32CUBEMX/Drivers/STM32F4xx_HAL_Driver/Src/stm32f4xx_hal_adc_ex.c ****   
 1061              		.loc 1 549 17 is_stmt 0 view .LVU321
 1062 0002 0023     		movs	r3, #0
 1063 0004 0193     		str	r3, [sp, #4]
 552:../STM32CUBEMX/Drivers/STM32F4xx_HAL_Driver/Src/stm32f4xx_hal_adc_ex.c ****   
 1064              		.loc 1 552 3 is_stmt 1 view .LVU322
 556:../STM32CUBEMX/Drivers/STM32F4xx_HAL_Driver/Src/stm32f4xx_hal_adc_ex.c ****   
 1065              		.loc 1 556 3 view .LVU323
 1066 0006 0368     		ldr	r3, [r0]
 1067 0008 6FF00402 		mvn	r2, #4
 1068 000c 1A60     		str	r2, [r3]
 559:../STM32CUBEMX/Drivers/STM32F4xx_HAL_Driver/Src/stm32f4xx_hal_adc_ex.c ****   {  
 1069              		.loc 1 559 3 view .LVU324
 1070 000e 0139     		subs	r1, r1, #1
 1071              	.LVL83:
 559:../STM32CUBEMX/Drivers/STM32F4xx_HAL_Driver/Src/stm32f4xx_hal_adc_ex.c ****   {  
 1072              		.loc 1 559 3 is_stmt 0 view .LVU325
 1073 0010 0329     		cmp	r1, #3
 1074 0012 06D8     		bhi	.L76
 1075 0014 DFE801F0 		tbb	[pc, r1]
 1076              	.L78:
 1077 0018 10       		.byte	(.L81-.L78)/2
 1078 0019 0C       		.byte	(.L80-.L78)/2
 1079 001a 08       		.byte	(.L79-.L78)/2
 1080 001b 02       		.byte	(.L77-.L78)/2
 1081              		.p2align 1
 1082              	.L77:
 563:../STM32CUBEMX/Drivers/STM32F4xx_HAL_Driver/Src/stm32f4xx_hal_adc_ex.c ****     }  
 1083              		.loc 1 563 7 is_stmt 1 view .LVU326
 563:../STM32CUBEMX/Drivers/STM32F4xx_HAL_Driver/Src/stm32f4xx_hal_adc_ex.c ****     }  
 1084              		.loc 1 563 18 is_stmt 0 view .LVU327
 1085 001c 0368     		ldr	r3, [r0]
 563:../STM32CUBEMX/Drivers/STM32F4xx_HAL_Driver/Src/stm32f4xx_hal_adc_ex.c ****     }  
 1086              		.loc 1 563 28 view .LVU328
 1087 001e 9B6C     		ldr	r3, [r3, #72]
 563:../STM32CUBEMX/Drivers/STM32F4xx_HAL_Driver/Src/stm32f4xx_hal_adc_ex.c ****     }  
 1088              		.loc 1 563 11 view .LVU329
 1089 0020 0193     		str	r3, [sp, #4]
 565:../STM32CUBEMX/Drivers/STM32F4xx_HAL_Driver/Src/stm32f4xx_hal_adc_ex.c ****     case ADC_INJECTED_RANK_3: 
 1090              		.loc 1 565 5 is_stmt 1 view .LVU330
 1091              	.L76:
 584:../STM32CUBEMX/Drivers/STM32F4xx_HAL_Driver/Src/stm32f4xx_hal_adc_ex.c **** }
 1092              		.loc 1 584 3 view .LVU331
 584:../STM32CUBEMX/Drivers/STM32F4xx_HAL_Driver/Src/stm32f4xx_hal_adc_ex.c **** }
 1093              		.loc 1 584 10 is_stmt 0 view .LVU332
 1094 0022 0198     		ldr	r0, [sp, #4]
 1095              	.LVL84:
 585:../STM32CUBEMX/Drivers/STM32F4xx_HAL_Driver/Src/stm32f4xx_hal_adc_ex.c **** 
 1096              		.loc 1 585 1 view .LVU333
 1097 0024 02B0     		add	sp, sp, #8
 1098              	.LCFI11:
 1099              		.cfi_remember_state
 1100              		.cfi_def_cfa_offset 0
 1101              		@ sp needed
 1102 0026 7047     		bx	lr
 1103              	.LVL85:
ARM GAS  C:\Users\ysl\AppData\Local\Temp\ccRy7Oyd.s 			page 45


 1104              	.L79:
 1105              	.LCFI12:
 1106              		.cfi_restore_state
 568:../STM32CUBEMX/Drivers/STM32F4xx_HAL_Driver/Src/stm32f4xx_hal_adc_ex.c ****     }  
 1107              		.loc 1 568 7 is_stmt 1 view .LVU334
 568:../STM32CUBEMX/Drivers/STM32F4xx_HAL_Driver/Src/stm32f4xx_hal_adc_ex.c ****     }  
 1108              		.loc 1 568 18 is_stmt 0 view .LVU335
 1109 0028 0368     		ldr	r3, [r0]
 568:../STM32CUBEMX/Drivers/STM32F4xx_HAL_Driver/Src/stm32f4xx_hal_adc_ex.c ****     }  
 1110              		.loc 1 568 28 view .LVU336
 1111 002a 5B6C     		ldr	r3, [r3, #68]
 568:../STM32CUBEMX/Drivers/STM32F4xx_HAL_Driver/Src/stm32f4xx_hal_adc_ex.c ****     }  
 1112              		.loc 1 568 11 view .LVU337
 1113 002c 0193     		str	r3, [sp, #4]
 570:../STM32CUBEMX/Drivers/STM32F4xx_HAL_Driver/Src/stm32f4xx_hal_adc_ex.c ****     case ADC_INJECTED_RANK_2: 
 1114              		.loc 1 570 5 is_stmt 1 view .LVU338
 1115 002e F8E7     		b	.L76
 1116              	.L80:
 573:../STM32CUBEMX/Drivers/STM32F4xx_HAL_Driver/Src/stm32f4xx_hal_adc_ex.c ****     }
 1117              		.loc 1 573 7 view .LVU339
 573:../STM32CUBEMX/Drivers/STM32F4xx_HAL_Driver/Src/stm32f4xx_hal_adc_ex.c ****     }
 1118              		.loc 1 573 18 is_stmt 0 view .LVU340
 1119 0030 0368     		ldr	r3, [r0]
 573:../STM32CUBEMX/Drivers/STM32F4xx_HAL_Driver/Src/stm32f4xx_hal_adc_ex.c ****     }
 1120              		.loc 1 573 28 view .LVU341
 1121 0032 1B6C     		ldr	r3, [r3, #64]
 573:../STM32CUBEMX/Drivers/STM32F4xx_HAL_Driver/Src/stm32f4xx_hal_adc_ex.c ****     }
 1122              		.loc 1 573 11 view .LVU342
 1123 0034 0193     		str	r3, [sp, #4]
 575:../STM32CUBEMX/Drivers/STM32F4xx_HAL_Driver/Src/stm32f4xx_hal_adc_ex.c ****     case ADC_INJECTED_RANK_1:
 1124              		.loc 1 575 5 is_stmt 1 view .LVU343
 1125 0036 F4E7     		b	.L76
 1126              	.L81:
 578:../STM32CUBEMX/Drivers/STM32F4xx_HAL_Driver/Src/stm32f4xx_hal_adc_ex.c ****     }
 1127              		.loc 1 578 7 view .LVU344
 578:../STM32CUBEMX/Drivers/STM32F4xx_HAL_Driver/Src/stm32f4xx_hal_adc_ex.c ****     }
 1128              		.loc 1 578 18 is_stmt 0 view .LVU345
 1129 0038 0368     		ldr	r3, [r0]
 578:../STM32CUBEMX/Drivers/STM32F4xx_HAL_Driver/Src/stm32f4xx_hal_adc_ex.c ****     }
 1130              		.loc 1 578 28 view .LVU346
 1131 003a DB6B     		ldr	r3, [r3, #60]
 578:../STM32CUBEMX/Drivers/STM32F4xx_HAL_Driver/Src/stm32f4xx_hal_adc_ex.c ****     }
 1132              		.loc 1 578 11 view .LVU347
 1133 003c 0193     		str	r3, [sp, #4]
 580:../STM32CUBEMX/Drivers/STM32F4xx_HAL_Driver/Src/stm32f4xx_hal_adc_ex.c ****     default:
 1134              		.loc 1 580 5 is_stmt 1 view .LVU348
 1135 003e F0E7     		b	.L76
 1136              		.cfi_endproc
 1137              	.LFE240:
 1139              		.section	.text.HAL_ADCEx_MultiModeStart_DMA,"ax",%progbits
 1140              		.align	1
 1141              		.global	HAL_ADCEx_MultiModeStart_DMA
 1142              		.syntax unified
 1143              		.thumb
 1144              		.thumb_func
 1146              	HAL_ADCEx_MultiModeStart_DMA:
 1147              	.LVL86:
ARM GAS  C:\Users\ysl\AppData\Local\Temp\ccRy7Oyd.s 			page 46


 1148              	.LFB241:
 599:../STM32CUBEMX/Drivers/STM32F4xx_HAL_Driver/Src/stm32f4xx_hal_adc_ex.c ****   __IO uint32_t counter = 0U;
 1149              		.loc 1 599 1 view -0
 1150              		.cfi_startproc
 1151              		@ args = 0, pretend = 0, frame = 8
 1152              		@ frame_needed = 0, uses_anonymous_args = 0
 599:../STM32CUBEMX/Drivers/STM32F4xx_HAL_Driver/Src/stm32f4xx_hal_adc_ex.c ****   __IO uint32_t counter = 0U;
 1153              		.loc 1 599 1 is_stmt 0 view .LVU350
 1154 0000 10B5     		push	{r4, lr}
 1155              	.LCFI13:
 1156              		.cfi_def_cfa_offset 8
 1157              		.cfi_offset 4, -8
 1158              		.cfi_offset 14, -4
 1159 0002 82B0     		sub	sp, sp, #8
 1160              	.LCFI14:
 1161              		.cfi_def_cfa_offset 16
 1162 0004 1346     		mov	r3, r2
 600:../STM32CUBEMX/Drivers/STM32F4xx_HAL_Driver/Src/stm32f4xx_hal_adc_ex.c ****   ADC_Common_TypeDef *tmpADC_Common;
 1163              		.loc 1 600 3 is_stmt 1 view .LVU351
 600:../STM32CUBEMX/Drivers/STM32F4xx_HAL_Driver/Src/stm32f4xx_hal_adc_ex.c ****   ADC_Common_TypeDef *tmpADC_Common;
 1164              		.loc 1 600 17 is_stmt 0 view .LVU352
 1165 0006 0022     		movs	r2, #0
 1166              	.LVL87:
 600:../STM32CUBEMX/Drivers/STM32F4xx_HAL_Driver/Src/stm32f4xx_hal_adc_ex.c ****   ADC_Common_TypeDef *tmpADC_Common;
 1167              		.loc 1 600 17 view .LVU353
 1168 0008 0192     		str	r2, [sp, #4]
 601:../STM32CUBEMX/Drivers/STM32F4xx_HAL_Driver/Src/stm32f4xx_hal_adc_ex.c ****   
 1169              		.loc 1 601 3 is_stmt 1 view .LVU354
 604:../STM32CUBEMX/Drivers/STM32F4xx_HAL_Driver/Src/stm32f4xx_hal_adc_ex.c ****   assert_param(IS_ADC_EXT_TRIG_EDGE(hadc->Init.ExternalTrigConvEdge));
 1170              		.loc 1 604 3 view .LVU355
 605:../STM32CUBEMX/Drivers/STM32F4xx_HAL_Driver/Src/stm32f4xx_hal_adc_ex.c ****   assert_param(IS_FUNCTIONAL_STATE(hadc->Init.DMAContinuousRequests));
 1171              		.loc 1 605 3 view .LVU356
 606:../STM32CUBEMX/Drivers/STM32F4xx_HAL_Driver/Src/stm32f4xx_hal_adc_ex.c ****   
 1172              		.loc 1 606 3 view .LVU357
 609:../STM32CUBEMX/Drivers/STM32F4xx_HAL_Driver/Src/stm32f4xx_hal_adc_ex.c ****   
 1173              		.loc 1 609 3 view .LVU358
 609:../STM32CUBEMX/Drivers/STM32F4xx_HAL_Driver/Src/stm32f4xx_hal_adc_ex.c ****   
 1174              		.loc 1 609 3 view .LVU359
 1175 000a 90F83C20 		ldrb	r2, [r0, #60]	@ zero_extendqisi2
 1176 000e 012A     		cmp	r2, #1
 1177 0010 7CD0     		beq	.L95
 1178 0012 0446     		mov	r4, r0
 609:../STM32CUBEMX/Drivers/STM32F4xx_HAL_Driver/Src/stm32f4xx_hal_adc_ex.c ****   
 1179              		.loc 1 609 3 discriminator 2 view .LVU360
 1180 0014 0122     		movs	r2, #1
 1181 0016 80F83C20 		strb	r2, [r0, #60]
 609:../STM32CUBEMX/Drivers/STM32F4xx_HAL_Driver/Src/stm32f4xx_hal_adc_ex.c ****   
 1182              		.loc 1 609 3 discriminator 2 view .LVU361
 613:../STM32CUBEMX/Drivers/STM32F4xx_HAL_Driver/Src/stm32f4xx_hal_adc_ex.c ****   {  
 1183              		.loc 1 613 3 discriminator 2 view .LVU362
 613:../STM32CUBEMX/Drivers/STM32F4xx_HAL_Driver/Src/stm32f4xx_hal_adc_ex.c ****   {  
 1184              		.loc 1 613 11 is_stmt 0 discriminator 2 view .LVU363
 1185 001a 0268     		ldr	r2, [r0]
 613:../STM32CUBEMX/Drivers/STM32F4xx_HAL_Driver/Src/stm32f4xx_hal_adc_ex.c ****   {  
 1186              		.loc 1 613 21 discriminator 2 view .LVU364
 1187 001c 9068     		ldr	r0, [r2, #8]
 1188              	.LVL88:
ARM GAS  C:\Users\ysl\AppData\Local\Temp\ccRy7Oyd.s 			page 47


 613:../STM32CUBEMX/Drivers/STM32F4xx_HAL_Driver/Src/stm32f4xx_hal_adc_ex.c ****   {  
 1189              		.loc 1 613 5 discriminator 2 view .LVU365
 1190 001e 10F0010F 		tst	r0, #1
 1191 0022 13D1     		bne	.L86
 616:../STM32CUBEMX/Drivers/STM32F4xx_HAL_Driver/Src/stm32f4xx_hal_adc_ex.c ****     
 1192              		.loc 1 616 5 is_stmt 1 view .LVU366
 1193 0024 9068     		ldr	r0, [r2, #8]
 1194 0026 40F00100 		orr	r0, r0, #1
 1195 002a 9060     		str	r0, [r2, #8]
 620:../STM32CUBEMX/Drivers/STM32F4xx_HAL_Driver/Src/stm32f4xx_hal_adc_ex.c ****     while(counter != 0U)
 1196              		.loc 1 620 5 view .LVU367
 620:../STM32CUBEMX/Drivers/STM32F4xx_HAL_Driver/Src/stm32f4xx_hal_adc_ex.c ****     while(counter != 0U)
 1197              		.loc 1 620 53 is_stmt 0 view .LVU368
 1198 002c 394A     		ldr	r2, .L98
 1199 002e 1068     		ldr	r0, [r2]
 1200 0030 394A     		ldr	r2, .L98+4
 1201 0032 A2FB0020 		umull	r2, r0, r2, r0
 1202 0036 800C     		lsrs	r0, r0, #18
 620:../STM32CUBEMX/Drivers/STM32F4xx_HAL_Driver/Src/stm32f4xx_hal_adc_ex.c ****     while(counter != 0U)
 1203              		.loc 1 620 34 view .LVU369
 1204 0038 00EB4000 		add	r0, r0, r0, lsl #1
 620:../STM32CUBEMX/Drivers/STM32F4xx_HAL_Driver/Src/stm32f4xx_hal_adc_ex.c ****     while(counter != 0U)
 1205              		.loc 1 620 13 view .LVU370
 1206 003c 0190     		str	r0, [sp, #4]
 621:../STM32CUBEMX/Drivers/STM32F4xx_HAL_Driver/Src/stm32f4xx_hal_adc_ex.c ****     {
 1207              		.loc 1 621 5 is_stmt 1 view .LVU371
 621:../STM32CUBEMX/Drivers/STM32F4xx_HAL_Driver/Src/stm32f4xx_hal_adc_ex.c ****     {
 1208              		.loc 1 621 10 is_stmt 0 view .LVU372
 1209 003e 02E0     		b	.L87
 1210              	.L88:
 623:../STM32CUBEMX/Drivers/STM32F4xx_HAL_Driver/Src/stm32f4xx_hal_adc_ex.c ****     }
 1211              		.loc 1 623 7 is_stmt 1 view .LVU373
 623:../STM32CUBEMX/Drivers/STM32F4xx_HAL_Driver/Src/stm32f4xx_hal_adc_ex.c ****     }
 1212              		.loc 1 623 14 is_stmt 0 view .LVU374
 1213 0040 0198     		ldr	r0, [sp, #4]
 1214 0042 0138     		subs	r0, r0, #1
 1215 0044 0190     		str	r0, [sp, #4]
 1216              	.L87:
 621:../STM32CUBEMX/Drivers/STM32F4xx_HAL_Driver/Src/stm32f4xx_hal_adc_ex.c ****     {
 1217              		.loc 1 621 19 is_stmt 1 view .LVU375
 1218 0046 0198     		ldr	r0, [sp, #4]
 1219 0048 0028     		cmp	r0, #0
 1220 004a F9D1     		bne	.L88
 1221              	.L86:
 628:../STM32CUBEMX/Drivers/STM32F4xx_HAL_Driver/Src/stm32f4xx_hal_adc_ex.c ****   {
 1222              		.loc 1 628 3 view .LVU376
 628:../STM32CUBEMX/Drivers/STM32F4xx_HAL_Driver/Src/stm32f4xx_hal_adc_ex.c ****   {
 1223              		.loc 1 628 6 is_stmt 0 view .LVU377
 1224 004c 2268     		ldr	r2, [r4]
 1225 004e 9068     		ldr	r0, [r2, #8]
 628:../STM32CUBEMX/Drivers/STM32F4xx_HAL_Driver/Src/stm32f4xx_hal_adc_ex.c ****   {
 1226              		.loc 1 628 5 view .LVU378
 1227 0050 10F0010F 		tst	r0, #1
 1228 0054 4FD0     		beq	.L89
 633:../STM32CUBEMX/Drivers/STM32F4xx_HAL_Driver/Src/stm32f4xx_hal_adc_ex.c ****                       HAL_ADC_STATE_READY | HAL_ADC_STATE_REG_EOC | HAL_ADC_STATE_REG_OVR,
 1229              		.loc 1 633 5 is_stmt 1 view .LVU379
 1230 0056 206C     		ldr	r0, [r4, #64]
ARM GAS  C:\Users\ysl\AppData\Local\Temp\ccRy7Oyd.s 			page 48


 1231 0058 20F4E060 		bic	r0, r0, #1792
 1232 005c 20F00100 		bic	r0, r0, #1
 1233 0060 40F48070 		orr	r0, r0, #256
 1234 0064 2064     		str	r0, [r4, #64]
 639:../STM32CUBEMX/Drivers/STM32F4xx_HAL_Driver/Src/stm32f4xx_hal_adc_ex.c ****     {
 1235              		.loc 1 639 5 view .LVU380
 639:../STM32CUBEMX/Drivers/STM32F4xx_HAL_Driver/Src/stm32f4xx_hal_adc_ex.c ****     {
 1236              		.loc 1 639 9 is_stmt 0 view .LVU381
 1237 0066 5268     		ldr	r2, [r2, #4]
 639:../STM32CUBEMX/Drivers/STM32F4xx_HAL_Driver/Src/stm32f4xx_hal_adc_ex.c ****     {
 1238              		.loc 1 639 8 view .LVU382
 1239 0068 12F4806F 		tst	r2, #1024
 1240 006c 05D0     		beq	.L90
 641:../STM32CUBEMX/Drivers/STM32F4xx_HAL_Driver/Src/stm32f4xx_hal_adc_ex.c ****     }
 1241              		.loc 1 641 7 is_stmt 1 view .LVU383
 1242 006e 226C     		ldr	r2, [r4, #64]
 1243 0070 22F44052 		bic	r2, r2, #12288
 1244 0074 42F48052 		orr	r2, r2, #4096
 1245 0078 2264     		str	r2, [r4, #64]
 1246              	.L90:
 645:../STM32CUBEMX/Drivers/STM32F4xx_HAL_Driver/Src/stm32f4xx_hal_adc_ex.c ****     {
 1247              		.loc 1 645 5 view .LVU384
 645:../STM32CUBEMX/Drivers/STM32F4xx_HAL_Driver/Src/stm32f4xx_hal_adc_ex.c ****     {
 1248              		.loc 1 645 9 is_stmt 0 view .LVU385
 1249 007a 226C     		ldr	r2, [r4, #64]
 645:../STM32CUBEMX/Drivers/STM32F4xx_HAL_Driver/Src/stm32f4xx_hal_adc_ex.c ****     {
 1250              		.loc 1 645 8 view .LVU386
 1251 007c 12F4805F 		tst	r2, #4096
 1252 0080 30D0     		beq	.L91
 648:../STM32CUBEMX/Drivers/STM32F4xx_HAL_Driver/Src/stm32f4xx_hal_adc_ex.c ****     }
 1253              		.loc 1 648 7 is_stmt 1 view .LVU387
 1254 0082 626C     		ldr	r2, [r4, #68]
 1255 0084 22F00602 		bic	r2, r2, #6
 1256 0088 6264     		str	r2, [r4, #68]
 1257              	.L92:
 659:../STM32CUBEMX/Drivers/STM32F4xx_HAL_Driver/Src/stm32f4xx_hal_adc_ex.c ****     
 1258              		.loc 1 659 5 view .LVU388
 659:../STM32CUBEMX/Drivers/STM32F4xx_HAL_Driver/Src/stm32f4xx_hal_adc_ex.c ****     
 1259              		.loc 1 659 5 view .LVU389
 1260 008a 0022     		movs	r2, #0
 1261 008c 84F83C20 		strb	r2, [r4, #60]
 659:../STM32CUBEMX/Drivers/STM32F4xx_HAL_Driver/Src/stm32f4xx_hal_adc_ex.c ****     
 1262              		.loc 1 659 5 view .LVU390
 662:../STM32CUBEMX/Drivers/STM32F4xx_HAL_Driver/Src/stm32f4xx_hal_adc_ex.c ****     
 1263              		.loc 1 662 5 view .LVU391
 662:../STM32CUBEMX/Drivers/STM32F4xx_HAL_Driver/Src/stm32f4xx_hal_adc_ex.c ****     
 1264              		.loc 1 662 9 is_stmt 0 view .LVU392
 1265 0090 A26B     		ldr	r2, [r4, #56]
 662:../STM32CUBEMX/Drivers/STM32F4xx_HAL_Driver/Src/stm32f4xx_hal_adc_ex.c ****     
 1266              		.loc 1 662 40 view .LVU393
 1267 0092 2248     		ldr	r0, .L98+8
 1268 0094 D063     		str	r0, [r2, #60]
 665:../STM32CUBEMX/Drivers/STM32F4xx_HAL_Driver/Src/stm32f4xx_hal_adc_ex.c ****     
 1269              		.loc 1 665 5 is_stmt 1 view .LVU394
 665:../STM32CUBEMX/Drivers/STM32F4xx_HAL_Driver/Src/stm32f4xx_hal_adc_ex.c ****     
 1270              		.loc 1 665 9 is_stmt 0 view .LVU395
 1271 0096 A26B     		ldr	r2, [r4, #56]
ARM GAS  C:\Users\ysl\AppData\Local\Temp\ccRy7Oyd.s 			page 49


 665:../STM32CUBEMX/Drivers/STM32F4xx_HAL_Driver/Src/stm32f4xx_hal_adc_ex.c ****     
 1272              		.loc 1 665 44 view .LVU396
 1273 0098 2148     		ldr	r0, .L98+12
 1274 009a 1064     		str	r0, [r2, #64]
 668:../STM32CUBEMX/Drivers/STM32F4xx_HAL_Driver/Src/stm32f4xx_hal_adc_ex.c ****     
 1275              		.loc 1 668 5 is_stmt 1 view .LVU397
 668:../STM32CUBEMX/Drivers/STM32F4xx_HAL_Driver/Src/stm32f4xx_hal_adc_ex.c ****     
 1276              		.loc 1 668 9 is_stmt 0 view .LVU398
 1277 009c A26B     		ldr	r2, [r4, #56]
 668:../STM32CUBEMX/Drivers/STM32F4xx_HAL_Driver/Src/stm32f4xx_hal_adc_ex.c ****     
 1278              		.loc 1 668 41 view .LVU399
 1279 009e 2148     		ldr	r0, .L98+16
 1280 00a0 D064     		str	r0, [r2, #76]
 675:../STM32CUBEMX/Drivers/STM32F4xx_HAL_Driver/Src/stm32f4xx_hal_adc_ex.c **** 
 1281              		.loc 1 675 5 is_stmt 1 view .LVU400
 1282 00a2 2268     		ldr	r2, [r4]
 1283 00a4 6FF00200 		mvn	r0, #2
 1284 00a8 1060     		str	r0, [r2]
 678:../STM32CUBEMX/Drivers/STM32F4xx_HAL_Driver/Src/stm32f4xx_hal_adc_ex.c **** 
 1285              		.loc 1 678 5 view .LVU401
 1286 00aa 2068     		ldr	r0, [r4]
 1287 00ac 4268     		ldr	r2, [r0, #4]
 1288 00ae 42F08062 		orr	r2, r2, #67108864
 1289 00b2 4260     		str	r2, [r0, #4]
 683:../STM32CUBEMX/Drivers/STM32F4xx_HAL_Driver/Src/stm32f4xx_hal_adc_ex.c **** 
 1290              		.loc 1 683 5 view .LVU402
 1291              	.LVL89:
 685:../STM32CUBEMX/Drivers/STM32F4xx_HAL_Driver/Src/stm32f4xx_hal_adc_ex.c ****     {
 1292              		.loc 1 685 5 view .LVU403
 685:../STM32CUBEMX/Drivers/STM32F4xx_HAL_Driver/Src/stm32f4xx_hal_adc_ex.c ****     {
 1293              		.loc 1 685 19 is_stmt 0 view .LVU404
 1294 00b4 94F83020 		ldrb	r2, [r4, #48]	@ zero_extendqisi2
 685:../STM32CUBEMX/Drivers/STM32F4xx_HAL_Driver/Src/stm32f4xx_hal_adc_ex.c ****     {
 1295              		.loc 1 685 8 view .LVU405
 1296 00b8 BAB1     		cbz	r2, .L93
 688:../STM32CUBEMX/Drivers/STM32F4xx_HAL_Driver/Src/stm32f4xx_hal_adc_ex.c ****     }
 1297              		.loc 1 688 7 is_stmt 1 view .LVU406
 688:../STM32CUBEMX/Drivers/STM32F4xx_HAL_Driver/Src/stm32f4xx_hal_adc_ex.c ****     }
 1298              		.loc 1 688 26 is_stmt 0 view .LVU407
 1299 00ba 1B48     		ldr	r0, .L98+20
 1300 00bc 4268     		ldr	r2, [r0, #4]
 1301 00be 42F40052 		orr	r2, r2, #8192
 1302 00c2 4260     		str	r2, [r0, #4]
 1303              	.L94:
 697:../STM32CUBEMX/Drivers/STM32F4xx_HAL_Driver/Src/stm32f4xx_hal_adc_ex.c ****     
 1304              		.loc 1 697 5 is_stmt 1 view .LVU408
 1305 00c4 0A46     		mov	r2, r1
 1306 00c6 1949     		ldr	r1, .L98+24
 1307              	.LVL90:
 697:../STM32CUBEMX/Drivers/STM32F4xx_HAL_Driver/Src/stm32f4xx_hal_adc_ex.c ****     
 1308              		.loc 1 697 5 is_stmt 0 view .LVU409
 1309 00c8 A06B     		ldr	r0, [r4, #56]
 1310 00ca FFF7FEFF 		bl	HAL_DMA_Start_IT
 1311              	.LVL91:
 700:../STM32CUBEMX/Drivers/STM32F4xx_HAL_Driver/Src/stm32f4xx_hal_adc_ex.c ****     {
 1312              		.loc 1 700 5 is_stmt 1 view .LVU410
 700:../STM32CUBEMX/Drivers/STM32F4xx_HAL_Driver/Src/stm32f4xx_hal_adc_ex.c ****     {
ARM GAS  C:\Users\ysl\AppData\Local\Temp\ccRy7Oyd.s 			page 50


 1313              		.loc 1 700 13 is_stmt 0 view .LVU411
 1314 00ce 2368     		ldr	r3, [r4]
 700:../STM32CUBEMX/Drivers/STM32F4xx_HAL_Driver/Src/stm32f4xx_hal_adc_ex.c ****     {
 1315              		.loc 1 700 23 view .LVU412
 1316 00d0 9A68     		ldr	r2, [r3, #8]
 700:../STM32CUBEMX/Drivers/STM32F4xx_HAL_Driver/Src/stm32f4xx_hal_adc_ex.c ****     {
 1317              		.loc 1 700 7 view .LVU413
 1318 00d2 12F0405F 		tst	r2, #805306368
 1319 00d6 1BD1     		bne	.L96
 703:../STM32CUBEMX/Drivers/STM32F4xx_HAL_Driver/Src/stm32f4xx_hal_adc_ex.c ****     }
 1320              		.loc 1 703 7 is_stmt 1 view .LVU414
 703:../STM32CUBEMX/Drivers/STM32F4xx_HAL_Driver/Src/stm32f4xx_hal_adc_ex.c ****     }
 1321              		.loc 1 703 27 is_stmt 0 view .LVU415
 1322 00d8 9A68     		ldr	r2, [r3, #8]
 1323 00da 42F08042 		orr	r2, r2, #1073741824
 1324 00de 9A60     		str	r2, [r3, #8]
 716:../STM32CUBEMX/Drivers/STM32F4xx_HAL_Driver/Src/stm32f4xx_hal_adc_ex.c **** }
 1325              		.loc 1 716 10 view .LVU416
 1326 00e0 0020     		movs	r0, #0
 1327 00e2 11E0     		b	.L85
 1328              	.LVL92:
 1329              	.L91:
 653:../STM32CUBEMX/Drivers/STM32F4xx_HAL_Driver/Src/stm32f4xx_hal_adc_ex.c ****     }
 1330              		.loc 1 653 7 is_stmt 1 view .LVU417
 1331 00e4 0022     		movs	r2, #0
 1332 00e6 6264     		str	r2, [r4, #68]
 1333 00e8 CFE7     		b	.L92
 1334              	.LVL93:
 1335              	.L93:
 693:../STM32CUBEMX/Drivers/STM32F4xx_HAL_Driver/Src/stm32f4xx_hal_adc_ex.c ****     }
 1336              		.loc 1 693 7 view .LVU418
 693:../STM32CUBEMX/Drivers/STM32F4xx_HAL_Driver/Src/stm32f4xx_hal_adc_ex.c ****     }
 1337              		.loc 1 693 26 is_stmt 0 view .LVU419
 1338 00ea 0F48     		ldr	r0, .L98+20
 1339 00ec 4268     		ldr	r2, [r0, #4]
 1340 00ee 22F40052 		bic	r2, r2, #8192
 1341 00f2 4260     		str	r2, [r0, #4]
 1342 00f4 E6E7     		b	.L94
 1343              	.LVL94:
 1344              	.L89:
 709:../STM32CUBEMX/Drivers/STM32F4xx_HAL_Driver/Src/stm32f4xx_hal_adc_ex.c **** 
 1345              		.loc 1 709 5 is_stmt 1 view .LVU420
 1346 00f6 236C     		ldr	r3, [r4, #64]
 1347              	.LVL95:
 709:../STM32CUBEMX/Drivers/STM32F4xx_HAL_Driver/Src/stm32f4xx_hal_adc_ex.c **** 
 1348              		.loc 1 709 5 is_stmt 0 view .LVU421
 1349 00f8 43F01003 		orr	r3, r3, #16
 1350 00fc 2364     		str	r3, [r4, #64]
 712:../STM32CUBEMX/Drivers/STM32F4xx_HAL_Driver/Src/stm32f4xx_hal_adc_ex.c ****   }
 1351              		.loc 1 712 5 is_stmt 1 view .LVU422
 1352 00fe 636C     		ldr	r3, [r4, #68]
 1353 0100 43F00103 		orr	r3, r3, #1
 1354 0104 6364     		str	r3, [r4, #68]
 716:../STM32CUBEMX/Drivers/STM32F4xx_HAL_Driver/Src/stm32f4xx_hal_adc_ex.c **** }
 1355              		.loc 1 716 10 is_stmt 0 view .LVU423
 1356 0106 0020     		movs	r0, #0
 1357              	.LVL96:
ARM GAS  C:\Users\ysl\AppData\Local\Temp\ccRy7Oyd.s 			page 51


 1358              	.L85:
 717:../STM32CUBEMX/Drivers/STM32F4xx_HAL_Driver/Src/stm32f4xx_hal_adc_ex.c **** 
 1359              		.loc 1 717 1 view .LVU424
 1360 0108 02B0     		add	sp, sp, #8
 1361              	.LCFI15:
 1362              		.cfi_remember_state
 1363              		.cfi_def_cfa_offset 8
 1364              		@ sp needed
 1365 010a 10BD     		pop	{r4, pc}
 1366              	.LVL97:
 1367              	.L95:
 1368              	.LCFI16:
 1369              		.cfi_restore_state
 609:../STM32CUBEMX/Drivers/STM32F4xx_HAL_Driver/Src/stm32f4xx_hal_adc_ex.c ****   
 1370              		.loc 1 609 3 view .LVU425
 1371 010c 0220     		movs	r0, #2
 1372              	.LVL98:
 609:../STM32CUBEMX/Drivers/STM32F4xx_HAL_Driver/Src/stm32f4xx_hal_adc_ex.c ****   
 1373              		.loc 1 609 3 view .LVU426
 1374 010e FBE7     		b	.L85
 1375              	.LVL99:
 1376              	.L96:
 716:../STM32CUBEMX/Drivers/STM32F4xx_HAL_Driver/Src/stm32f4xx_hal_adc_ex.c **** }
 1377              		.loc 1 716 10 view .LVU427
 1378 0110 0020     		movs	r0, #0
 1379 0112 F9E7     		b	.L85
 1380              	.L99:
 1381              		.align	2
 1382              	.L98:
 1383 0114 00000000 		.word	SystemCoreClock
 1384 0118 83DE1B43 		.word	1125899907
 1385 011c 00000000 		.word	ADC_MultiModeDMAConvCplt
 1386 0120 00000000 		.word	ADC_MultiModeDMAHalfConvCplt
 1387 0124 00000000 		.word	ADC_MultiModeDMAError
 1388 0128 00230140 		.word	1073816320
 1389 012c 08230140 		.word	1073816328
 1390              		.cfi_endproc
 1391              	.LFE241:
 1393              		.section	.text.HAL_ADCEx_MultiModeStop_DMA,"ax",%progbits
 1394              		.align	1
 1395              		.global	HAL_ADCEx_MultiModeStop_DMA
 1396              		.syntax unified
 1397              		.thumb
 1398              		.thumb_func
 1400              	HAL_ADCEx_MultiModeStop_DMA:
 1401              	.LVL100:
 1402              	.LFB242:
 726:../STM32CUBEMX/Drivers/STM32F4xx_HAL_Driver/Src/stm32f4xx_hal_adc_ex.c ****   HAL_StatusTypeDef tmp_hal_status = HAL_OK;
 1403              		.loc 1 726 1 is_stmt 1 view -0
 1404              		.cfi_startproc
 1405              		@ args = 0, pretend = 0, frame = 0
 1406              		@ frame_needed = 0, uses_anonymous_args = 0
 727:../STM32CUBEMX/Drivers/STM32F4xx_HAL_Driver/Src/stm32f4xx_hal_adc_ex.c ****   ADC_Common_TypeDef *tmpADC_Common;
 1407              		.loc 1 727 3 view .LVU429
 728:../STM32CUBEMX/Drivers/STM32F4xx_HAL_Driver/Src/stm32f4xx_hal_adc_ex.c ****   
 1408              		.loc 1 728 3 view .LVU430
 731:../STM32CUBEMX/Drivers/STM32F4xx_HAL_Driver/Src/stm32f4xx_hal_adc_ex.c ****   
ARM GAS  C:\Users\ysl\AppData\Local\Temp\ccRy7Oyd.s 			page 52


 1409              		.loc 1 731 3 view .LVU431
 734:../STM32CUBEMX/Drivers/STM32F4xx_HAL_Driver/Src/stm32f4xx_hal_adc_ex.c ****   
 1410              		.loc 1 734 3 view .LVU432
 734:../STM32CUBEMX/Drivers/STM32F4xx_HAL_Driver/Src/stm32f4xx_hal_adc_ex.c ****   
 1411              		.loc 1 734 3 view .LVU433
 1412 0000 90F83C30 		ldrb	r3, [r0, #60]	@ zero_extendqisi2
 1413 0004 012B     		cmp	r3, #1
 1414 0006 29D0     		beq	.L103
 726:../STM32CUBEMX/Drivers/STM32F4xx_HAL_Driver/Src/stm32f4xx_hal_adc_ex.c ****   HAL_StatusTypeDef tmp_hal_status = HAL_OK;
 1415              		.loc 1 726 1 is_stmt 0 discriminator 2 view .LVU434
 1416 0008 10B5     		push	{r4, lr}
 1417              	.LCFI17:
 1418              		.cfi_def_cfa_offset 8
 1419              		.cfi_offset 4, -8
 1420              		.cfi_offset 14, -4
 1421 000a 0446     		mov	r4, r0
 734:../STM32CUBEMX/Drivers/STM32F4xx_HAL_Driver/Src/stm32f4xx_hal_adc_ex.c ****   
 1422              		.loc 1 734 3 is_stmt 1 discriminator 2 view .LVU435
 1423 000c 0123     		movs	r3, #1
 1424 000e 80F83C30 		strb	r3, [r0, #60]
 734:../STM32CUBEMX/Drivers/STM32F4xx_HAL_Driver/Src/stm32f4xx_hal_adc_ex.c ****   
 1425              		.loc 1 734 3 discriminator 2 view .LVU436
 738:../STM32CUBEMX/Drivers/STM32F4xx_HAL_Driver/Src/stm32f4xx_hal_adc_ex.c **** 
 1426              		.loc 1 738 3 discriminator 2 view .LVU437
 1427 0012 0268     		ldr	r2, [r0]
 1428 0014 9368     		ldr	r3, [r2, #8]
 1429 0016 23F00103 		bic	r3, r3, #1
 1430 001a 9360     		str	r3, [r2, #8]
 743:../STM32CUBEMX/Drivers/STM32F4xx_HAL_Driver/Src/stm32f4xx_hal_adc_ex.c **** 
 1431              		.loc 1 743 3 discriminator 2 view .LVU438
 1432              	.LVL101:
 746:../STM32CUBEMX/Drivers/STM32F4xx_HAL_Driver/Src/stm32f4xx_hal_adc_ex.c ****   {
 1433              		.loc 1 746 3 discriminator 2 view .LVU439
 746:../STM32CUBEMX/Drivers/STM32F4xx_HAL_Driver/Src/stm32f4xx_hal_adc_ex.c ****   {
 1434              		.loc 1 746 6 is_stmt 0 discriminator 2 view .LVU440
 1435 001c 0368     		ldr	r3, [r0]
 1436 001e 9B68     		ldr	r3, [r3, #8]
 746:../STM32CUBEMX/Drivers/STM32F4xx_HAL_Driver/Src/stm32f4xx_hal_adc_ex.c ****   {
 1437              		.loc 1 746 5 discriminator 2 view .LVU441
 1438 0020 13F0010F 		tst	r3, #1
 1439 0024 04D0     		beq	.L109
 727:../STM32CUBEMX/Drivers/STM32F4xx_HAL_Driver/Src/stm32f4xx_hal_adc_ex.c ****   ADC_Common_TypeDef *tmpADC_Common;
 1440              		.loc 1 727 21 view .LVU442
 1441 0026 0020     		movs	r0, #0
 1442              	.LVL102:
 1443              	.L102:
 765:../STM32CUBEMX/Drivers/STM32F4xx_HAL_Driver/Src/stm32f4xx_hal_adc_ex.c ****   
 1444              		.loc 1 765 3 is_stmt 1 view .LVU443
 765:../STM32CUBEMX/Drivers/STM32F4xx_HAL_Driver/Src/stm32f4xx_hal_adc_ex.c ****   
 1445              		.loc 1 765 3 view .LVU444
 1446 0028 0023     		movs	r3, #0
 1447 002a 84F83C30 		strb	r3, [r4, #60]
 765:../STM32CUBEMX/Drivers/STM32F4xx_HAL_Driver/Src/stm32f4xx_hal_adc_ex.c ****   
 1448              		.loc 1 765 3 view .LVU445
 768:../STM32CUBEMX/Drivers/STM32F4xx_HAL_Driver/Src/stm32f4xx_hal_adc_ex.c **** }
 1449              		.loc 1 768 3 view .LVU446
 769:../STM32CUBEMX/Drivers/STM32F4xx_HAL_Driver/Src/stm32f4xx_hal_adc_ex.c **** 
ARM GAS  C:\Users\ysl\AppData\Local\Temp\ccRy7Oyd.s 			page 53


 1450              		.loc 1 769 1 is_stmt 0 view .LVU447
 1451 002e 10BD     		pop	{r4, pc}
 1452              	.LVL103:
 1453              	.L109:
 749:../STM32CUBEMX/Drivers/STM32F4xx_HAL_Driver/Src/stm32f4xx_hal_adc_ex.c ****     
 1454              		.loc 1 749 5 is_stmt 1 view .LVU448
 749:../STM32CUBEMX/Drivers/STM32F4xx_HAL_Driver/Src/stm32f4xx_hal_adc_ex.c ****     
 1455              		.loc 1 749 24 is_stmt 0 view .LVU449
 1456 0030 0B4A     		ldr	r2, .L110
 1457 0032 5368     		ldr	r3, [r2, #4]
 1458 0034 23F40053 		bic	r3, r3, #8192
 1459 0038 5360     		str	r3, [r2, #4]
 753:../STM32CUBEMX/Drivers/STM32F4xx_HAL_Driver/Src/stm32f4xx_hal_adc_ex.c ****     
 1460              		.loc 1 753 5 is_stmt 1 view .LVU450
 753:../STM32CUBEMX/Drivers/STM32F4xx_HAL_Driver/Src/stm32f4xx_hal_adc_ex.c ****     
 1461              		.loc 1 753 22 is_stmt 0 view .LVU451
 1462 003a 806B     		ldr	r0, [r0, #56]
 1463              	.LVL104:
 753:../STM32CUBEMX/Drivers/STM32F4xx_HAL_Driver/Src/stm32f4xx_hal_adc_ex.c ****     
 1464              		.loc 1 753 22 view .LVU452
 1465 003c FFF7FEFF 		bl	HAL_DMA_Abort
 1466              	.LVL105:
 756:../STM32CUBEMX/Drivers/STM32F4xx_HAL_Driver/Src/stm32f4xx_hal_adc_ex.c ****     
 1467              		.loc 1 756 5 is_stmt 1 view .LVU453
 1468 0040 2268     		ldr	r2, [r4]
 1469 0042 5368     		ldr	r3, [r2, #4]
 1470 0044 23F08063 		bic	r3, r3, #67108864
 1471 0048 5360     		str	r3, [r2, #4]
 759:../STM32CUBEMX/Drivers/STM32F4xx_HAL_Driver/Src/stm32f4xx_hal_adc_ex.c ****                       HAL_ADC_STATE_REG_BUSY | HAL_ADC_STATE_INJ_BUSY,
 1472              		.loc 1 759 5 view .LVU454
 1473 004a 236C     		ldr	r3, [r4, #64]
 1474 004c 23F48853 		bic	r3, r3, #4352
 1475 0050 23F00103 		bic	r3, r3, #1
 1476 0054 43F00103 		orr	r3, r3, #1
 1477 0058 2364     		str	r3, [r4, #64]
 1478 005a E5E7     		b	.L102
 1479              	.LVL106:
 1480              	.L103:
 1481              	.LCFI18:
 1482              		.cfi_def_cfa_offset 0
 1483              		.cfi_restore 4
 1484              		.cfi_restore 14
 734:../STM32CUBEMX/Drivers/STM32F4xx_HAL_Driver/Src/stm32f4xx_hal_adc_ex.c ****   
 1485              		.loc 1 734 3 is_stmt 0 view .LVU455
 1486 005c 0220     		movs	r0, #2
 1487              	.LVL107:
 769:../STM32CUBEMX/Drivers/STM32F4xx_HAL_Driver/Src/stm32f4xx_hal_adc_ex.c **** 
 1488              		.loc 1 769 1 view .LVU456
 1489 005e 7047     		bx	lr
 1490              	.L111:
 1491              		.align	2
 1492              	.L110:
 1493 0060 00230140 		.word	1073816320
 1494              		.cfi_endproc
 1495              	.LFE242:
 1497              		.section	.text.HAL_ADCEx_MultiModeGetValue,"ax",%progbits
 1498              		.align	1
ARM GAS  C:\Users\ysl\AppData\Local\Temp\ccRy7Oyd.s 			page 54


 1499              		.global	HAL_ADCEx_MultiModeGetValue
 1500              		.syntax unified
 1501              		.thumb
 1502              		.thumb_func
 1504              	HAL_ADCEx_MultiModeGetValue:
 1505              	.LVL108:
 1506              	.LFB243:
 779:../STM32CUBEMX/Drivers/STM32F4xx_HAL_Driver/Src/stm32f4xx_hal_adc_ex.c ****   ADC_Common_TypeDef *tmpADC_Common;
 1507              		.loc 1 779 1 is_stmt 1 view -0
 1508              		.cfi_startproc
 1509              		@ args = 0, pretend = 0, frame = 0
 1510              		@ frame_needed = 0, uses_anonymous_args = 0
 1511              		@ link register save eliminated.
 780:../STM32CUBEMX/Drivers/STM32F4xx_HAL_Driver/Src/stm32f4xx_hal_adc_ex.c **** 
 1512              		.loc 1 780 3 view .LVU458
 785:../STM32CUBEMX/Drivers/STM32F4xx_HAL_Driver/Src/stm32f4xx_hal_adc_ex.c **** 
 1513              		.loc 1 785 3 view .LVU459
 788:../STM32CUBEMX/Drivers/STM32F4xx_HAL_Driver/Src/stm32f4xx_hal_adc_ex.c **** }
 1514              		.loc 1 788 3 view .LVU460
 788:../STM32CUBEMX/Drivers/STM32F4xx_HAL_Driver/Src/stm32f4xx_hal_adc_ex.c **** }
 1515              		.loc 1 788 23 is_stmt 0 view .LVU461
 1516 0000 014B     		ldr	r3, .L113
 1517 0002 9868     		ldr	r0, [r3, #8]
 1518              	.LVL109:
 789:../STM32CUBEMX/Drivers/STM32F4xx_HAL_Driver/Src/stm32f4xx_hal_adc_ex.c **** 
 1519              		.loc 1 789 1 view .LVU462
 1520 0004 7047     		bx	lr
 1521              	.L114:
 1522 0006 00BF     		.align	2
 1523              	.L113:
 1524 0008 00230140 		.word	1073816320
 1525              		.cfi_endproc
 1526              	.LFE243:
 1528              		.section	.text.HAL_ADCEx_InjectedConvCpltCallback,"ax",%progbits
 1529              		.align	1
 1530              		.weak	HAL_ADCEx_InjectedConvCpltCallback
 1531              		.syntax unified
 1532              		.thumb
 1533              		.thumb_func
 1535              	HAL_ADCEx_InjectedConvCpltCallback:
 1536              	.LVL110:
 1537              	.LFB244:
 798:../STM32CUBEMX/Drivers/STM32F4xx_HAL_Driver/Src/stm32f4xx_hal_adc_ex.c ****   /* Prevent unused argument(s) compilation warning */
 1538              		.loc 1 798 1 is_stmt 1 view -0
 1539              		.cfi_startproc
 1540              		@ args = 0, pretend = 0, frame = 0
 1541              		@ frame_needed = 0, uses_anonymous_args = 0
 1542              		@ link register save eliminated.
 800:../STM32CUBEMX/Drivers/STM32F4xx_HAL_Driver/Src/stm32f4xx_hal_adc_ex.c ****   /* NOTE : This function Should not be modified, when the callback is needed,
 1543              		.loc 1 800 3 view .LVU464
 804:../STM32CUBEMX/Drivers/STM32F4xx_HAL_Driver/Src/stm32f4xx_hal_adc_ex.c **** 
 1544              		.loc 1 804 1 is_stmt 0 view .LVU465
 1545 0000 7047     		bx	lr
 1546              		.cfi_endproc
 1547              	.LFE244:
 1549              		.section	.text.HAL_ADCEx_InjectedConfigChannel,"ax",%progbits
 1550              		.align	1
ARM GAS  C:\Users\ysl\AppData\Local\Temp\ccRy7Oyd.s 			page 55


 1551              		.global	HAL_ADCEx_InjectedConfigChannel
 1552              		.syntax unified
 1553              		.thumb
 1554              		.thumb_func
 1556              	HAL_ADCEx_InjectedConfigChannel:
 1557              	.LVL111:
 1558              	.LFB245:
 815:../STM32CUBEMX/Drivers/STM32F4xx_HAL_Driver/Src/stm32f4xx_hal_adc_ex.c ****   
 1559              		.loc 1 815 1 is_stmt 1 view -0
 1560              		.cfi_startproc
 1561              		@ args = 0, pretend = 0, frame = 0
 1562              		@ frame_needed = 0, uses_anonymous_args = 0
 1563              		@ link register save eliminated.
 822:../STM32CUBEMX/Drivers/STM32F4xx_HAL_Driver/Src/stm32f4xx_hal_adc_ex.c **** 
 1564              		.loc 1 822 3 view .LVU467
 825:../STM32CUBEMX/Drivers/STM32F4xx_HAL_Driver/Src/stm32f4xx_hal_adc_ex.c ****   assert_param(IS_ADC_INJECTED_RANK(sConfigInjected->InjectedRank));
 1565              		.loc 1 825 3 view .LVU468
 826:../STM32CUBEMX/Drivers/STM32F4xx_HAL_Driver/Src/stm32f4xx_hal_adc_ex.c ****   assert_param(IS_ADC_SAMPLE_TIME(sConfigInjected->InjectedSamplingTime));
 1566              		.loc 1 826 3 view .LVU469
 827:../STM32CUBEMX/Drivers/STM32F4xx_HAL_Driver/Src/stm32f4xx_hal_adc_ex.c ****   assert_param(IS_ADC_EXT_INJEC_TRIG(sConfigInjected->ExternalTrigInjecConv));
 1567              		.loc 1 827 3 view .LVU470
 828:../STM32CUBEMX/Drivers/STM32F4xx_HAL_Driver/Src/stm32f4xx_hal_adc_ex.c ****   assert_param(IS_ADC_INJECTED_LENGTH(sConfigInjected->InjectedNbrOfConversion));
 1568              		.loc 1 828 3 view .LVU471
 829:../STM32CUBEMX/Drivers/STM32F4xx_HAL_Driver/Src/stm32f4xx_hal_adc_ex.c ****   assert_param(IS_FUNCTIONAL_STATE(sConfigInjected->AutoInjectedConv));
 1569              		.loc 1 829 3 view .LVU472
 830:../STM32CUBEMX/Drivers/STM32F4xx_HAL_Driver/Src/stm32f4xx_hal_adc_ex.c ****   assert_param(IS_FUNCTIONAL_STATE(sConfigInjected->InjectedDiscontinuousConvMode));
 1570              		.loc 1 830 3 view .LVU473
 831:../STM32CUBEMX/Drivers/STM32F4xx_HAL_Driver/Src/stm32f4xx_hal_adc_ex.c **** 
 1571              		.loc 1 831 3 view .LVU474
 838:../STM32CUBEMX/Drivers/STM32F4xx_HAL_Driver/Src/stm32f4xx_hal_adc_ex.c ****   {
 1572              		.loc 1 838 3 view .LVU475
 840:../STM32CUBEMX/Drivers/STM32F4xx_HAL_Driver/Src/stm32f4xx_hal_adc_ex.c ****   }
 1573              		.loc 1 840 5 view .LVU476
 844:../STM32CUBEMX/Drivers/STM32F4xx_HAL_Driver/Src/stm32f4xx_hal_adc_ex.c ****   
 1574              		.loc 1 844 3 view .LVU477
 844:../STM32CUBEMX/Drivers/STM32F4xx_HAL_Driver/Src/stm32f4xx_hal_adc_ex.c ****   
 1575              		.loc 1 844 3 view .LVU478
 1576 0000 90F83C20 		ldrb	r2, [r0, #60]	@ zero_extendqisi2
 1577 0004 012A     		cmp	r2, #1
 1578 0006 00F0F980 		beq	.L132
 815:../STM32CUBEMX/Drivers/STM32F4xx_HAL_Driver/Src/stm32f4xx_hal_adc_ex.c ****   
 1579              		.loc 1 815 1 is_stmt 0 discriminator 2 view .LVU479
 1580 000a 30B4     		push	{r4, r5}
 1581              	.LCFI19:
 1582              		.cfi_def_cfa_offset 8
 1583              		.cfi_offset 4, -8
 1584              		.cfi_offset 5, -4
 1585 000c 0346     		mov	r3, r0
 844:../STM32CUBEMX/Drivers/STM32F4xx_HAL_Driver/Src/stm32f4xx_hal_adc_ex.c ****   
 1586              		.loc 1 844 3 is_stmt 1 discriminator 2 view .LVU480
 1587 000e 0122     		movs	r2, #1
 1588 0010 80F83C20 		strb	r2, [r0, #60]
 844:../STM32CUBEMX/Drivers/STM32F4xx_HAL_Driver/Src/stm32f4xx_hal_adc_ex.c ****   
 1589              		.loc 1 844 3 discriminator 2 view .LVU481
 847:../STM32CUBEMX/Drivers/STM32F4xx_HAL_Driver/Src/stm32f4xx_hal_adc_ex.c ****   {
 1590              		.loc 1 847 3 discriminator 2 view .LVU482
 847:../STM32CUBEMX/Drivers/STM32F4xx_HAL_Driver/Src/stm32f4xx_hal_adc_ex.c ****   {
ARM GAS  C:\Users\ysl\AppData\Local\Temp\ccRy7Oyd.s 			page 56


 1591              		.loc 1 847 22 is_stmt 0 discriminator 2 view .LVU483
 1592 0014 0A68     		ldr	r2, [r1]
 847:../STM32CUBEMX/Drivers/STM32F4xx_HAL_Driver/Src/stm32f4xx_hal_adc_ex.c ****   {
 1593              		.loc 1 847 6 discriminator 2 view .LVU484
 1594 0016 092A     		cmp	r2, #9
 1595 0018 7ED9     		bls	.L118
 850:../STM32CUBEMX/Drivers/STM32F4xx_HAL_Driver/Src/stm32f4xx_hal_adc_ex.c ****     
 1596              		.loc 1 850 5 is_stmt 1 view .LVU485
 850:../STM32CUBEMX/Drivers/STM32F4xx_HAL_Driver/Src/stm32f4xx_hal_adc_ex.c ****     
 1597              		.loc 1 850 9 is_stmt 0 view .LVU486
 1598 001a 0568     		ldr	r5, [r0]
 850:../STM32CUBEMX/Drivers/STM32F4xx_HAL_Driver/Src/stm32f4xx_hal_adc_ex.c ****     
 1599              		.loc 1 850 27 view .LVU487
 1600 001c E868     		ldr	r0, [r5, #12]
 1601              	.LVL112:
 850:../STM32CUBEMX/Drivers/STM32F4xx_HAL_Driver/Src/stm32f4xx_hal_adc_ex.c ****     
 1602              		.loc 1 850 31 view .LVU488
 1603 001e 92B2     		uxth	r2, r2
 1604 0020 02EB4202 		add	r2, r2, r2, lsl #1
 1605 0024 1E3A     		subs	r2, r2, #30
 1606 0026 0724     		movs	r4, #7
 1607 0028 04FA02F2 		lsl	r2, r4, r2
 850:../STM32CUBEMX/Drivers/STM32F4xx_HAL_Driver/Src/stm32f4xx_hal_adc_ex.c ****     
 1608              		.loc 1 850 27 view .LVU489
 1609 002c 20EA0202 		bic	r2, r0, r2
 1610 0030 EA60     		str	r2, [r5, #12]
 853:../STM32CUBEMX/Drivers/STM32F4xx_HAL_Driver/Src/stm32f4xx_hal_adc_ex.c ****   }
 1611              		.loc 1 853 5 is_stmt 1 view .LVU490
 853:../STM32CUBEMX/Drivers/STM32F4xx_HAL_Driver/Src/stm32f4xx_hal_adc_ex.c ****   }
 1612              		.loc 1 853 9 is_stmt 0 view .LVU491
 1613 0032 1D68     		ldr	r5, [r3]
 853:../STM32CUBEMX/Drivers/STM32F4xx_HAL_Driver/Src/stm32f4xx_hal_adc_ex.c ****   }
 1614              		.loc 1 853 27 view .LVU492
 1615 0034 E868     		ldr	r0, [r5, #12]
 853:../STM32CUBEMX/Drivers/STM32F4xx_HAL_Driver/Src/stm32f4xx_hal_adc_ex.c ****   }
 1616              		.loc 1 853 30 view .LVU493
 1617 0036 8C68     		ldr	r4, [r1, #8]
 1618 0038 0A88     		ldrh	r2, [r1]
 1619 003a 02EB4202 		add	r2, r2, r2, lsl #1
 1620 003e 1E3A     		subs	r2, r2, #30
 1621 0040 9440     		lsls	r4, r4, r2
 853:../STM32CUBEMX/Drivers/STM32F4xx_HAL_Driver/Src/stm32f4xx_hal_adc_ex.c ****   }
 1622              		.loc 1 853 27 view .LVU494
 1623 0042 2043     		orrs	r0, r0, r4
 1624 0044 E860     		str	r0, [r5, #12]
 1625              	.L119:
 865:../STM32CUBEMX/Drivers/STM32F4xx_HAL_Driver/Src/stm32f4xx_hal_adc_ex.c ****   hadc->Instance->JSQR |=  ADC_SQR1(sConfigInjected->InjectedNbrOfConversion);
 1626              		.loc 1 865 3 is_stmt 1 view .LVU495
 865:../STM32CUBEMX/Drivers/STM32F4xx_HAL_Driver/Src/stm32f4xx_hal_adc_ex.c ****   hadc->Instance->JSQR |=  ADC_SQR1(sConfigInjected->InjectedNbrOfConversion);
 1627              		.loc 1 865 7 is_stmt 0 view .LVU496
 1628 0046 1868     		ldr	r0, [r3]
 865:../STM32CUBEMX/Drivers/STM32F4xx_HAL_Driver/Src/stm32f4xx_hal_adc_ex.c ****   hadc->Instance->JSQR |=  ADC_SQR1(sConfigInjected->InjectedNbrOfConversion);
 1629              		.loc 1 865 24 view .LVU497
 1630 0048 826B     		ldr	r2, [r0, #56]
 1631 004a 22F44012 		bic	r2, r2, #3145728
 1632 004e 8263     		str	r2, [r0, #56]
 866:../STM32CUBEMX/Drivers/STM32F4xx_HAL_Driver/Src/stm32f4xx_hal_adc_ex.c ****   
ARM GAS  C:\Users\ysl\AppData\Local\Temp\ccRy7Oyd.s 			page 57


 1633              		.loc 1 866 3 is_stmt 1 view .LVU498
 866:../STM32CUBEMX/Drivers/STM32F4xx_HAL_Driver/Src/stm32f4xx_hal_adc_ex.c ****   
 1634              		.loc 1 866 7 is_stmt 0 view .LVU499
 1635 0050 1C68     		ldr	r4, [r3]
 866:../STM32CUBEMX/Drivers/STM32F4xx_HAL_Driver/Src/stm32f4xx_hal_adc_ex.c ****   
 1636              		.loc 1 866 24 view .LVU500
 1637 0052 A26B     		ldr	r2, [r4, #56]
 866:../STM32CUBEMX/Drivers/STM32F4xx_HAL_Driver/Src/stm32f4xx_hal_adc_ex.c ****   
 1638              		.loc 1 866 28 view .LVU501
 1639 0054 0869     		ldr	r0, [r1, #16]
 1640 0056 0138     		subs	r0, r0, #1
 866:../STM32CUBEMX/Drivers/STM32F4xx_HAL_Driver/Src/stm32f4xx_hal_adc_ex.c ****   
 1641              		.loc 1 866 24 view .LVU502
 1642 0058 42EA0052 		orr	r2, r2, r0, lsl #20
 1643 005c A263     		str	r2, [r4, #56]
 871:../STM32CUBEMX/Drivers/STM32F4xx_HAL_Driver/Src/stm32f4xx_hal_adc_ex.c ****    
 1644              		.loc 1 871 3 is_stmt 1 view .LVU503
 871:../STM32CUBEMX/Drivers/STM32F4xx_HAL_Driver/Src/stm32f4xx_hal_adc_ex.c ****    
 1645              		.loc 1 871 7 is_stmt 0 view .LVU504
 1646 005e 1C68     		ldr	r4, [r3]
 871:../STM32CUBEMX/Drivers/STM32F4xx_HAL_Driver/Src/stm32f4xx_hal_adc_ex.c ****    
 1647              		.loc 1 871 24 view .LVU505
 1648 0060 A06B     		ldr	r0, [r4, #56]
 871:../STM32CUBEMX/Drivers/STM32F4xx_HAL_Driver/Src/stm32f4xx_hal_adc_ex.c ****    
 1649              		.loc 1 871 28 view .LVU506
 1650 0062 4A68     		ldr	r2, [r1, #4]
 1651 0064 0D69     		ldr	r5, [r1, #16]
 1652 0066 521B     		subs	r2, r2, r5
 1653 0068 D2B2     		uxtb	r2, r2
 1654 006a 0332     		adds	r2, r2, #3
 1655 006c D2B2     		uxtb	r2, r2
 1656 006e 02EB8202 		add	r2, r2, r2, lsl #2
 1657 0072 4FF01F0C 		mov	ip, #31
 1658 0076 0CFA02F2 		lsl	r2, ip, r2
 871:../STM32CUBEMX/Drivers/STM32F4xx_HAL_Driver/Src/stm32f4xx_hal_adc_ex.c ****    
 1659              		.loc 1 871 24 view .LVU507
 1660 007a 20EA0202 		bic	r2, r0, r2
 1661 007e A263     		str	r2, [r4, #56]
 874:../STM32CUBEMX/Drivers/STM32F4xx_HAL_Driver/Src/stm32f4xx_hal_adc_ex.c **** 
 1662              		.loc 1 874 3 is_stmt 1 view .LVU508
 874:../STM32CUBEMX/Drivers/STM32F4xx_HAL_Driver/Src/stm32f4xx_hal_adc_ex.c **** 
 1663              		.loc 1 874 7 is_stmt 0 view .LVU509
 1664 0080 1C68     		ldr	r4, [r3]
 874:../STM32CUBEMX/Drivers/STM32F4xx_HAL_Driver/Src/stm32f4xx_hal_adc_ex.c **** 
 1665              		.loc 1 874 24 view .LVU510
 1666 0082 A06B     		ldr	r0, [r4, #56]
 874:../STM32CUBEMX/Drivers/STM32F4xx_HAL_Driver/Src/stm32f4xx_hal_adc_ex.c **** 
 1667              		.loc 1 874 27 view .LVU511
 1668 0084 4A68     		ldr	r2, [r1, #4]
 1669 0086 0D69     		ldr	r5, [r1, #16]
 1670 0088 521B     		subs	r2, r2, r5
 1671 008a D2B2     		uxtb	r2, r2
 1672 008c 0332     		adds	r2, r2, #3
 1673 008e D2B2     		uxtb	r2, r2
 1674 0090 02EB8202 		add	r2, r2, r2, lsl #2
 1675 0094 B1F800C0 		ldrh	ip, [r1]
 1676 0098 0CFA02F2 		lsl	r2, ip, r2
ARM GAS  C:\Users\ysl\AppData\Local\Temp\ccRy7Oyd.s 			page 58


 874:../STM32CUBEMX/Drivers/STM32F4xx_HAL_Driver/Src/stm32f4xx_hal_adc_ex.c **** 
 1677              		.loc 1 874 24 view .LVU512
 1678 009c 0243     		orrs	r2, r2, r0
 1679 009e A263     		str	r2, [r4, #56]
 881:../STM32CUBEMX/Drivers/STM32F4xx_HAL_Driver/Src/stm32f4xx_hal_adc_ex.c ****   {  
 1680              		.loc 1 881 3 is_stmt 1 view .LVU513
 881:../STM32CUBEMX/Drivers/STM32F4xx_HAL_Driver/Src/stm32f4xx_hal_adc_ex.c ****   {  
 1681              		.loc 1 881 21 is_stmt 0 view .LVU514
 1682 00a0 8869     		ldr	r0, [r1, #24]
 881:../STM32CUBEMX/Drivers/STM32F4xx_HAL_Driver/Src/stm32f4xx_hal_adc_ex.c ****   {  
 1683              		.loc 1 881 5 view .LVU515
 1684 00a2 574A     		ldr	r2, .L140
 1685 00a4 9042     		cmp	r0, r2
 1686 00a6 4CD0     		beq	.L120
 884:../STM32CUBEMX/Drivers/STM32F4xx_HAL_Driver/Src/stm32f4xx_hal_adc_ex.c ****     hadc->Instance->CR2 |=  sConfigInjected->ExternalTrigInjecConv;
 1687              		.loc 1 884 5 is_stmt 1 view .LVU516
 884:../STM32CUBEMX/Drivers/STM32F4xx_HAL_Driver/Src/stm32f4xx_hal_adc_ex.c ****     hadc->Instance->CR2 |=  sConfigInjected->ExternalTrigInjecConv;
 1688              		.loc 1 884 9 is_stmt 0 view .LVU517
 1689 00a8 1868     		ldr	r0, [r3]
 884:../STM32CUBEMX/Drivers/STM32F4xx_HAL_Driver/Src/stm32f4xx_hal_adc_ex.c ****     hadc->Instance->CR2 |=  sConfigInjected->ExternalTrigInjecConv;
 1690              		.loc 1 884 25 view .LVU518
 1691 00aa 8268     		ldr	r2, [r0, #8]
 1692 00ac 22F47022 		bic	r2, r2, #983040
 1693 00b0 8260     		str	r2, [r0, #8]
 885:../STM32CUBEMX/Drivers/STM32F4xx_HAL_Driver/Src/stm32f4xx_hal_adc_ex.c ****     
 1694              		.loc 1 885 5 is_stmt 1 view .LVU519
 885:../STM32CUBEMX/Drivers/STM32F4xx_HAL_Driver/Src/stm32f4xx_hal_adc_ex.c ****     
 1695              		.loc 1 885 9 is_stmt 0 view .LVU520
 1696 00b2 1868     		ldr	r0, [r3]
 885:../STM32CUBEMX/Drivers/STM32F4xx_HAL_Driver/Src/stm32f4xx_hal_adc_ex.c ****     
 1697              		.loc 1 885 25 view .LVU521
 1698 00b4 8268     		ldr	r2, [r0, #8]
 885:../STM32CUBEMX/Drivers/STM32F4xx_HAL_Driver/Src/stm32f4xx_hal_adc_ex.c ****     
 1699              		.loc 1 885 44 view .LVU522
 1700 00b6 8C69     		ldr	r4, [r1, #24]
 885:../STM32CUBEMX/Drivers/STM32F4xx_HAL_Driver/Src/stm32f4xx_hal_adc_ex.c ****     
 1701              		.loc 1 885 25 view .LVU523
 1702 00b8 2243     		orrs	r2, r2, r4
 1703 00ba 8260     		str	r2, [r0, #8]
 888:../STM32CUBEMX/Drivers/STM32F4xx_HAL_Driver/Src/stm32f4xx_hal_adc_ex.c ****     hadc->Instance->CR2 |= sConfigInjected->ExternalTrigInjecConvEdge;
 1704              		.loc 1 888 5 is_stmt 1 view .LVU524
 888:../STM32CUBEMX/Drivers/STM32F4xx_HAL_Driver/Src/stm32f4xx_hal_adc_ex.c ****     hadc->Instance->CR2 |= sConfigInjected->ExternalTrigInjecConvEdge;
 1705              		.loc 1 888 9 is_stmt 0 view .LVU525
 1706 00bc 1868     		ldr	r0, [r3]
 888:../STM32CUBEMX/Drivers/STM32F4xx_HAL_Driver/Src/stm32f4xx_hal_adc_ex.c ****     hadc->Instance->CR2 |= sConfigInjected->ExternalTrigInjecConvEdge;
 1707              		.loc 1 888 25 view .LVU526
 1708 00be 8268     		ldr	r2, [r0, #8]
 1709 00c0 22F44012 		bic	r2, r2, #3145728
 1710 00c4 8260     		str	r2, [r0, #8]
 889:../STM32CUBEMX/Drivers/STM32F4xx_HAL_Driver/Src/stm32f4xx_hal_adc_ex.c ****   }
 1711              		.loc 1 889 5 is_stmt 1 view .LVU527
 889:../STM32CUBEMX/Drivers/STM32F4xx_HAL_Driver/Src/stm32f4xx_hal_adc_ex.c ****   }
 1712              		.loc 1 889 9 is_stmt 0 view .LVU528
 1713 00c6 1868     		ldr	r0, [r3]
 889:../STM32CUBEMX/Drivers/STM32F4xx_HAL_Driver/Src/stm32f4xx_hal_adc_ex.c ****   }
 1714              		.loc 1 889 25 view .LVU529
 1715 00c8 8268     		ldr	r2, [r0, #8]
ARM GAS  C:\Users\ysl\AppData\Local\Temp\ccRy7Oyd.s 			page 59


 889:../STM32CUBEMX/Drivers/STM32F4xx_HAL_Driver/Src/stm32f4xx_hal_adc_ex.c ****   }
 1716              		.loc 1 889 43 view .LVU530
 1717 00ca CC69     		ldr	r4, [r1, #28]
 889:../STM32CUBEMX/Drivers/STM32F4xx_HAL_Driver/Src/stm32f4xx_hal_adc_ex.c ****   }
 1718              		.loc 1 889 25 view .LVU531
 1719 00cc 2243     		orrs	r2, r2, r4
 1720 00ce 8260     		str	r2, [r0, #8]
 1721              	.L121:
 898:../STM32CUBEMX/Drivers/STM32F4xx_HAL_Driver/Src/stm32f4xx_hal_adc_ex.c ****   {
 1722              		.loc 1 898 3 is_stmt 1 view .LVU532
 898:../STM32CUBEMX/Drivers/STM32F4xx_HAL_Driver/Src/stm32f4xx_hal_adc_ex.c ****   {
 1723              		.loc 1 898 22 is_stmt 0 view .LVU533
 1724 00d0 4A7D     		ldrb	r2, [r1, #21]	@ zero_extendqisi2
 898:../STM32CUBEMX/Drivers/STM32F4xx_HAL_Driver/Src/stm32f4xx_hal_adc_ex.c ****   {
 1725              		.loc 1 898 6 view .LVU534
 1726 00d2 002A     		cmp	r2, #0
 1727 00d4 40D0     		beq	.L122
 901:../STM32CUBEMX/Drivers/STM32F4xx_HAL_Driver/Src/stm32f4xx_hal_adc_ex.c ****   }
 1728              		.loc 1 901 5 is_stmt 1 view .LVU535
 901:../STM32CUBEMX/Drivers/STM32F4xx_HAL_Driver/Src/stm32f4xx_hal_adc_ex.c ****   }
 1729              		.loc 1 901 9 is_stmt 0 view .LVU536
 1730 00d6 1868     		ldr	r0, [r3]
 901:../STM32CUBEMX/Drivers/STM32F4xx_HAL_Driver/Src/stm32f4xx_hal_adc_ex.c ****   }
 1731              		.loc 1 901 25 view .LVU537
 1732 00d8 4268     		ldr	r2, [r0, #4]
 1733 00da 42F48062 		orr	r2, r2, #1024
 1734 00de 4260     		str	r2, [r0, #4]
 1735              	.L123:
 909:../STM32CUBEMX/Drivers/STM32F4xx_HAL_Driver/Src/stm32f4xx_hal_adc_ex.c ****   {
 1736              		.loc 1 909 3 is_stmt 1 view .LVU538
 909:../STM32CUBEMX/Drivers/STM32F4xx_HAL_Driver/Src/stm32f4xx_hal_adc_ex.c ****   {
 1737              		.loc 1 909 22 is_stmt 0 view .LVU539
 1738 00e0 0A7D     		ldrb	r2, [r1, #20]	@ zero_extendqisi2
 909:../STM32CUBEMX/Drivers/STM32F4xx_HAL_Driver/Src/stm32f4xx_hal_adc_ex.c ****   {
 1739              		.loc 1 909 6 view .LVU540
 1740 00e2 002A     		cmp	r2, #0
 1741 00e4 3ED0     		beq	.L124
 912:../STM32CUBEMX/Drivers/STM32F4xx_HAL_Driver/Src/stm32f4xx_hal_adc_ex.c ****   }
 1742              		.loc 1 912 5 is_stmt 1 view .LVU541
 912:../STM32CUBEMX/Drivers/STM32F4xx_HAL_Driver/Src/stm32f4xx_hal_adc_ex.c ****   }
 1743              		.loc 1 912 9 is_stmt 0 view .LVU542
 1744 00e6 1868     		ldr	r0, [r3]
 912:../STM32CUBEMX/Drivers/STM32F4xx_HAL_Driver/Src/stm32f4xx_hal_adc_ex.c ****   }
 1745              		.loc 1 912 25 view .LVU543
 1746 00e8 4268     		ldr	r2, [r0, #4]
 1747 00ea 42F48052 		orr	r2, r2, #4096
 1748 00ee 4260     		str	r2, [r0, #4]
 1749              	.L125:
 920:../STM32CUBEMX/Drivers/STM32F4xx_HAL_Driver/Src/stm32f4xx_hal_adc_ex.c ****   {
 1750              		.loc 1 920 3 is_stmt 1 view .LVU544
 920:../STM32CUBEMX/Drivers/STM32F4xx_HAL_Driver/Src/stm32f4xx_hal_adc_ex.c ****   {
 1751              		.loc 1 920 25 is_stmt 0 view .LVU545
 1752 00f0 4A68     		ldr	r2, [r1, #4]
 920:../STM32CUBEMX/Drivers/STM32F4xx_HAL_Driver/Src/stm32f4xx_hal_adc_ex.c ****   {
 1753              		.loc 1 920 3 view .LVU546
 1754 00f2 022A     		cmp	r2, #2
 1755 00f4 55D0     		beq	.L126
ARM GAS  C:\Users\ysl\AppData\Local\Temp\ccRy7Oyd.s 			page 60


 1756 00f6 032A     		cmp	r2, #3
 1757 00f8 60D0     		beq	.L127
 1758 00fa 012A     		cmp	r2, #1
 1759 00fc 38D0     		beq	.L137
 939:../STM32CUBEMX/Drivers/STM32F4xx_HAL_Driver/Src/stm32f4xx_hal_adc_ex.c ****       hadc->Instance->JOFR4 |= sConfigInjected->InjectedOffset;
 1760              		.loc 1 939 7 is_stmt 1 view .LVU547
 939:../STM32CUBEMX/Drivers/STM32F4xx_HAL_Driver/Src/stm32f4xx_hal_adc_ex.c ****       hadc->Instance->JOFR4 |= sConfigInjected->InjectedOffset;
 1761              		.loc 1 939 11 is_stmt 0 view .LVU548
 1762 00fe 1868     		ldr	r0, [r3]
 939:../STM32CUBEMX/Drivers/STM32F4xx_HAL_Driver/Src/stm32f4xx_hal_adc_ex.c ****       hadc->Instance->JOFR4 |= sConfigInjected->InjectedOffset;
 1763              		.loc 1 939 29 view .LVU549
 1764 0100 026A     		ldr	r2, [r0, #32]
 1765 0102 22F47F62 		bic	r2, r2, #4080
 1766 0106 22F00F02 		bic	r2, r2, #15
 1767 010a 0262     		str	r2, [r0, #32]
 940:../STM32CUBEMX/Drivers/STM32F4xx_HAL_Driver/Src/stm32f4xx_hal_adc_ex.c ****       break;
 1768              		.loc 1 940 7 is_stmt 1 view .LVU550
 940:../STM32CUBEMX/Drivers/STM32F4xx_HAL_Driver/Src/stm32f4xx_hal_adc_ex.c ****       break;
 1769              		.loc 1 940 11 is_stmt 0 view .LVU551
 1770 010c 1868     		ldr	r0, [r3]
 940:../STM32CUBEMX/Drivers/STM32F4xx_HAL_Driver/Src/stm32f4xx_hal_adc_ex.c ****       break;
 1771              		.loc 1 940 29 view .LVU552
 1772 010e 026A     		ldr	r2, [r0, #32]
 940:../STM32CUBEMX/Drivers/STM32F4xx_HAL_Driver/Src/stm32f4xx_hal_adc_ex.c ****       break;
 1773              		.loc 1 940 47 view .LVU553
 1774 0110 CC68     		ldr	r4, [r1, #12]
 940:../STM32CUBEMX/Drivers/STM32F4xx_HAL_Driver/Src/stm32f4xx_hal_adc_ex.c ****       break;
 1775              		.loc 1 940 29 view .LVU554
 1776 0112 2243     		orrs	r2, r2, r4
 1777 0114 0262     		str	r2, [r0, #32]
 941:../STM32CUBEMX/Drivers/STM32F4xx_HAL_Driver/Src/stm32f4xx_hal_adc_ex.c ****   }
 1778              		.loc 1 941 7 is_stmt 1 view .LVU555
 1779 0116 37E0     		b	.L129
 1780              	.LVL113:
 1781              	.L118:
 858:../STM32CUBEMX/Drivers/STM32F4xx_HAL_Driver/Src/stm32f4xx_hal_adc_ex.c ****     
 1782              		.loc 1 858 5 view .LVU556
 858:../STM32CUBEMX/Drivers/STM32F4xx_HAL_Driver/Src/stm32f4xx_hal_adc_ex.c ****     
 1783              		.loc 1 858 9 is_stmt 0 view .LVU557
 1784 0118 0568     		ldr	r5, [r0]
 858:../STM32CUBEMX/Drivers/STM32F4xx_HAL_Driver/Src/stm32f4xx_hal_adc_ex.c ****     
 1785              		.loc 1 858 27 view .LVU558
 1786 011a 2869     		ldr	r0, [r5, #16]
 1787              	.LVL114:
 858:../STM32CUBEMX/Drivers/STM32F4xx_HAL_Driver/Src/stm32f4xx_hal_adc_ex.c ****     
 1788              		.loc 1 858 31 view .LVU559
 1789 011c 92B2     		uxth	r2, r2
 1790 011e 02EB4202 		add	r2, r2, r2, lsl #1
 1791 0122 0724     		movs	r4, #7
 1792 0124 04FA02F2 		lsl	r2, r4, r2
 858:../STM32CUBEMX/Drivers/STM32F4xx_HAL_Driver/Src/stm32f4xx_hal_adc_ex.c ****     
 1793              		.loc 1 858 27 view .LVU560
 1794 0128 20EA0202 		bic	r2, r0, r2
 1795 012c 2A61     		str	r2, [r5, #16]
 861:../STM32CUBEMX/Drivers/STM32F4xx_HAL_Driver/Src/stm32f4xx_hal_adc_ex.c ****   }
 1796              		.loc 1 861 5 is_stmt 1 view .LVU561
 861:../STM32CUBEMX/Drivers/STM32F4xx_HAL_Driver/Src/stm32f4xx_hal_adc_ex.c ****   }
ARM GAS  C:\Users\ysl\AppData\Local\Temp\ccRy7Oyd.s 			page 61


 1797              		.loc 1 861 9 is_stmt 0 view .LVU562
 1798 012e 1D68     		ldr	r5, [r3]
 861:../STM32CUBEMX/Drivers/STM32F4xx_HAL_Driver/Src/stm32f4xx_hal_adc_ex.c ****   }
 1799              		.loc 1 861 27 view .LVU563
 1800 0130 2869     		ldr	r0, [r5, #16]
 861:../STM32CUBEMX/Drivers/STM32F4xx_HAL_Driver/Src/stm32f4xx_hal_adc_ex.c ****   }
 1801              		.loc 1 861 30 view .LVU564
 1802 0132 8C68     		ldr	r4, [r1, #8]
 1803 0134 0A88     		ldrh	r2, [r1]
 1804 0136 02EB4202 		add	r2, r2, r2, lsl #1
 1805 013a 9440     		lsls	r4, r4, r2
 861:../STM32CUBEMX/Drivers/STM32F4xx_HAL_Driver/Src/stm32f4xx_hal_adc_ex.c ****   }
 1806              		.loc 1 861 27 view .LVU565
 1807 013c 2043     		orrs	r0, r0, r4
 1808 013e 2861     		str	r0, [r5, #16]
 1809 0140 81E7     		b	.L119
 1810              	.L120:
 894:../STM32CUBEMX/Drivers/STM32F4xx_HAL_Driver/Src/stm32f4xx_hal_adc_ex.c ****     hadc->Instance->CR2 &= ~(ADC_CR2_JEXTEN);  
 1811              		.loc 1 894 5 is_stmt 1 view .LVU566
 894:../STM32CUBEMX/Drivers/STM32F4xx_HAL_Driver/Src/stm32f4xx_hal_adc_ex.c ****     hadc->Instance->CR2 &= ~(ADC_CR2_JEXTEN);  
 1812              		.loc 1 894 9 is_stmt 0 view .LVU567
 1813 0142 1868     		ldr	r0, [r3]
 894:../STM32CUBEMX/Drivers/STM32F4xx_HAL_Driver/Src/stm32f4xx_hal_adc_ex.c ****     hadc->Instance->CR2 &= ~(ADC_CR2_JEXTEN);  
 1814              		.loc 1 894 25 view .LVU568
 1815 0144 8268     		ldr	r2, [r0, #8]
 1816 0146 22F47022 		bic	r2, r2, #983040
 1817 014a 8260     		str	r2, [r0, #8]
 895:../STM32CUBEMX/Drivers/STM32F4xx_HAL_Driver/Src/stm32f4xx_hal_adc_ex.c ****   }
 1818              		.loc 1 895 5 is_stmt 1 view .LVU569
 895:../STM32CUBEMX/Drivers/STM32F4xx_HAL_Driver/Src/stm32f4xx_hal_adc_ex.c ****   }
 1819              		.loc 1 895 9 is_stmt 0 view .LVU570
 1820 014c 1868     		ldr	r0, [r3]
 895:../STM32CUBEMX/Drivers/STM32F4xx_HAL_Driver/Src/stm32f4xx_hal_adc_ex.c ****   }
 1821              		.loc 1 895 25 view .LVU571
 1822 014e 8268     		ldr	r2, [r0, #8]
 1823 0150 22F44012 		bic	r2, r2, #3145728
 1824 0154 8260     		str	r2, [r0, #8]
 1825 0156 BBE7     		b	.L121
 1826              	.L122:
 906:../STM32CUBEMX/Drivers/STM32F4xx_HAL_Driver/Src/stm32f4xx_hal_adc_ex.c ****   }
 1827              		.loc 1 906 5 is_stmt 1 view .LVU572
 906:../STM32CUBEMX/Drivers/STM32F4xx_HAL_Driver/Src/stm32f4xx_hal_adc_ex.c ****   }
 1828              		.loc 1 906 9 is_stmt 0 view .LVU573
 1829 0158 1868     		ldr	r0, [r3]
 906:../STM32CUBEMX/Drivers/STM32F4xx_HAL_Driver/Src/stm32f4xx_hal_adc_ex.c ****   }
 1830              		.loc 1 906 25 view .LVU574
 1831 015a 4268     		ldr	r2, [r0, #4]
 1832 015c 22F48062 		bic	r2, r2, #1024
 1833 0160 4260     		str	r2, [r0, #4]
 1834 0162 BDE7     		b	.L123
 1835              	.L124:
 917:../STM32CUBEMX/Drivers/STM32F4xx_HAL_Driver/Src/stm32f4xx_hal_adc_ex.c ****   }
 1836              		.loc 1 917 5 is_stmt 1 view .LVU575
 917:../STM32CUBEMX/Drivers/STM32F4xx_HAL_Driver/Src/stm32f4xx_hal_adc_ex.c ****   }
 1837              		.loc 1 917 9 is_stmt 0 view .LVU576
 1838 0164 1868     		ldr	r0, [r3]
 917:../STM32CUBEMX/Drivers/STM32F4xx_HAL_Driver/Src/stm32f4xx_hal_adc_ex.c ****   }
ARM GAS  C:\Users\ysl\AppData\Local\Temp\ccRy7Oyd.s 			page 62


 1839              		.loc 1 917 25 view .LVU577
 1840 0166 4268     		ldr	r2, [r0, #4]
 1841 0168 22F48052 		bic	r2, r2, #4096
 1842 016c 4260     		str	r2, [r0, #4]
 1843 016e BFE7     		b	.L125
 1844              	.L137:
 924:../STM32CUBEMX/Drivers/STM32F4xx_HAL_Driver/Src/stm32f4xx_hal_adc_ex.c ****       hadc->Instance->JOFR1 |= sConfigInjected->InjectedOffset;
 1845              		.loc 1 924 7 is_stmt 1 view .LVU578
 924:../STM32CUBEMX/Drivers/STM32F4xx_HAL_Driver/Src/stm32f4xx_hal_adc_ex.c ****       hadc->Instance->JOFR1 |= sConfigInjected->InjectedOffset;
 1846              		.loc 1 924 11 is_stmt 0 view .LVU579
 1847 0170 1868     		ldr	r0, [r3]
 924:../STM32CUBEMX/Drivers/STM32F4xx_HAL_Driver/Src/stm32f4xx_hal_adc_ex.c ****       hadc->Instance->JOFR1 |= sConfigInjected->InjectedOffset;
 1848              		.loc 1 924 29 view .LVU580
 1849 0172 4269     		ldr	r2, [r0, #20]
 1850 0174 22F47F62 		bic	r2, r2, #4080
 1851 0178 22F00F02 		bic	r2, r2, #15
 1852 017c 4261     		str	r2, [r0, #20]
 925:../STM32CUBEMX/Drivers/STM32F4xx_HAL_Driver/Src/stm32f4xx_hal_adc_ex.c ****       break;
 1853              		.loc 1 925 7 is_stmt 1 view .LVU581
 925:../STM32CUBEMX/Drivers/STM32F4xx_HAL_Driver/Src/stm32f4xx_hal_adc_ex.c ****       break;
 1854              		.loc 1 925 11 is_stmt 0 view .LVU582
 1855 017e 1868     		ldr	r0, [r3]
 925:../STM32CUBEMX/Drivers/STM32F4xx_HAL_Driver/Src/stm32f4xx_hal_adc_ex.c ****       break;
 1856              		.loc 1 925 29 view .LVU583
 1857 0180 4269     		ldr	r2, [r0, #20]
 925:../STM32CUBEMX/Drivers/STM32F4xx_HAL_Driver/Src/stm32f4xx_hal_adc_ex.c ****       break;
 1858              		.loc 1 925 47 view .LVU584
 1859 0182 CC68     		ldr	r4, [r1, #12]
 925:../STM32CUBEMX/Drivers/STM32F4xx_HAL_Driver/Src/stm32f4xx_hal_adc_ex.c ****       break;
 1860              		.loc 1 925 29 view .LVU585
 1861 0184 2243     		orrs	r2, r2, r4
 1862 0186 4261     		str	r2, [r0, #20]
 926:../STM32CUBEMX/Drivers/STM32F4xx_HAL_Driver/Src/stm32f4xx_hal_adc_ex.c ****     case 2U:
 1863              		.loc 1 926 7 is_stmt 1 view .LVU586
 1864              	.L129:
 947:../STM32CUBEMX/Drivers/STM32F4xx_HAL_Driver/Src/stm32f4xx_hal_adc_ex.c **** 
 1865              		.loc 1 947 5 view .LVU587
 1866              	.LVL115:
 950:../STM32CUBEMX/Drivers/STM32F4xx_HAL_Driver/Src/stm32f4xx_hal_adc_ex.c ****   {
 1867              		.loc 1 950 3 view .LVU588
 950:../STM32CUBEMX/Drivers/STM32F4xx_HAL_Driver/Src/stm32f4xx_hal_adc_ex.c ****   {
 1868              		.loc 1 950 12 is_stmt 0 view .LVU589
 1869 0188 1868     		ldr	r0, [r3]
 950:../STM32CUBEMX/Drivers/STM32F4xx_HAL_Driver/Src/stm32f4xx_hal_adc_ex.c ****   {
 1870              		.loc 1 950 6 view .LVU590
 1871 018a 1E4A     		ldr	r2, .L140+4
 1872 018c 9042     		cmp	r0, r2
 1873 018e 22D0     		beq	.L138
 1874              	.L130:
 957:../STM32CUBEMX/Drivers/STM32F4xx_HAL_Driver/Src/stm32f4xx_hal_adc_ex.c ****   {
 1875              		.loc 1 957 3 is_stmt 1 view .LVU591
 957:../STM32CUBEMX/Drivers/STM32F4xx_HAL_Driver/Src/stm32f4xx_hal_adc_ex.c ****   {
 1876              		.loc 1 957 12 is_stmt 0 view .LVU592
 1877 0190 1868     		ldr	r0, [r3]
 957:../STM32CUBEMX/Drivers/STM32F4xx_HAL_Driver/Src/stm32f4xx_hal_adc_ex.c ****   {
 1878              		.loc 1 957 6 view .LVU593
 1879 0192 1C4A     		ldr	r2, .L140+4
ARM GAS  C:\Users\ysl\AppData\Local\Temp\ccRy7Oyd.s 			page 63


 1880 0194 9042     		cmp	r0, r2
 1881 0196 27D0     		beq	.L139
 1882              	.LVL116:
 1883              	.L131:
 964:../STM32CUBEMX/Drivers/STM32F4xx_HAL_Driver/Src/stm32f4xx_hal_adc_ex.c ****   
 1884              		.loc 1 964 3 is_stmt 1 view .LVU594
 964:../STM32CUBEMX/Drivers/STM32F4xx_HAL_Driver/Src/stm32f4xx_hal_adc_ex.c ****   
 1885              		.loc 1 964 3 view .LVU595
 1886 0198 0020     		movs	r0, #0
 1887 019a 83F83C00 		strb	r0, [r3, #60]
 964:../STM32CUBEMX/Drivers/STM32F4xx_HAL_Driver/Src/stm32f4xx_hal_adc_ex.c ****   
 1888              		.loc 1 964 3 view .LVU596
 967:../STM32CUBEMX/Drivers/STM32F4xx_HAL_Driver/Src/stm32f4xx_hal_adc_ex.c **** }
 1889              		.loc 1 967 3 view .LVU597
 968:../STM32CUBEMX/Drivers/STM32F4xx_HAL_Driver/Src/stm32f4xx_hal_adc_ex.c **** 
 1890              		.loc 1 968 1 is_stmt 0 view .LVU598
 1891 019e 30BC     		pop	{r4, r5}
 1892              	.LCFI20:
 1893              		.cfi_remember_state
 1894              		.cfi_restore 5
 1895              		.cfi_restore 4
 1896              		.cfi_def_cfa_offset 0
 1897 01a0 7047     		bx	lr
 1898              	.LVL117:
 1899              	.L126:
 1900              	.LCFI21:
 1901              		.cfi_restore_state
 929:../STM32CUBEMX/Drivers/STM32F4xx_HAL_Driver/Src/stm32f4xx_hal_adc_ex.c ****       hadc->Instance->JOFR2 |= sConfigInjected->InjectedOffset;
 1902              		.loc 1 929 7 is_stmt 1 view .LVU599
 929:../STM32CUBEMX/Drivers/STM32F4xx_HAL_Driver/Src/stm32f4xx_hal_adc_ex.c ****       hadc->Instance->JOFR2 |= sConfigInjected->InjectedOffset;
 1903              		.loc 1 929 11 is_stmt 0 view .LVU600
 1904 01a2 1868     		ldr	r0, [r3]
 929:../STM32CUBEMX/Drivers/STM32F4xx_HAL_Driver/Src/stm32f4xx_hal_adc_ex.c ****       hadc->Instance->JOFR2 |= sConfigInjected->InjectedOffset;
 1905              		.loc 1 929 29 view .LVU601
 1906 01a4 8269     		ldr	r2, [r0, #24]
 1907 01a6 22F47F62 		bic	r2, r2, #4080
 1908 01aa 22F00F02 		bic	r2, r2, #15
 1909 01ae 8261     		str	r2, [r0, #24]
 930:../STM32CUBEMX/Drivers/STM32F4xx_HAL_Driver/Src/stm32f4xx_hal_adc_ex.c ****       break;
 1910              		.loc 1 930 7 is_stmt 1 view .LVU602
 930:../STM32CUBEMX/Drivers/STM32F4xx_HAL_Driver/Src/stm32f4xx_hal_adc_ex.c ****       break;
 1911              		.loc 1 930 11 is_stmt 0 view .LVU603
 1912 01b0 1868     		ldr	r0, [r3]
 930:../STM32CUBEMX/Drivers/STM32F4xx_HAL_Driver/Src/stm32f4xx_hal_adc_ex.c ****       break;
 1913              		.loc 1 930 29 view .LVU604
 1914 01b2 8269     		ldr	r2, [r0, #24]
 930:../STM32CUBEMX/Drivers/STM32F4xx_HAL_Driver/Src/stm32f4xx_hal_adc_ex.c ****       break;
 1915              		.loc 1 930 47 view .LVU605
 1916 01b4 CC68     		ldr	r4, [r1, #12]
 930:../STM32CUBEMX/Drivers/STM32F4xx_HAL_Driver/Src/stm32f4xx_hal_adc_ex.c ****       break;
 1917              		.loc 1 930 29 view .LVU606
 1918 01b6 2243     		orrs	r2, r2, r4
 1919 01b8 8261     		str	r2, [r0, #24]
 931:../STM32CUBEMX/Drivers/STM32F4xx_HAL_Driver/Src/stm32f4xx_hal_adc_ex.c ****     case 3U:
 1920              		.loc 1 931 7 is_stmt 1 view .LVU607
 1921 01ba E5E7     		b	.L129
 1922              	.L127:
ARM GAS  C:\Users\ysl\AppData\Local\Temp\ccRy7Oyd.s 			page 64


 934:../STM32CUBEMX/Drivers/STM32F4xx_HAL_Driver/Src/stm32f4xx_hal_adc_ex.c ****       hadc->Instance->JOFR3 |= sConfigInjected->InjectedOffset;
 1923              		.loc 1 934 7 view .LVU608
 934:../STM32CUBEMX/Drivers/STM32F4xx_HAL_Driver/Src/stm32f4xx_hal_adc_ex.c ****       hadc->Instance->JOFR3 |= sConfigInjected->InjectedOffset;
 1924              		.loc 1 934 11 is_stmt 0 view .LVU609
 1925 01bc 1868     		ldr	r0, [r3]
 934:../STM32CUBEMX/Drivers/STM32F4xx_HAL_Driver/Src/stm32f4xx_hal_adc_ex.c ****       hadc->Instance->JOFR3 |= sConfigInjected->InjectedOffset;
 1926              		.loc 1 934 29 view .LVU610
 1927 01be C269     		ldr	r2, [r0, #28]
 1928 01c0 22F47F62 		bic	r2, r2, #4080
 1929 01c4 22F00F02 		bic	r2, r2, #15
 1930 01c8 C261     		str	r2, [r0, #28]
 935:../STM32CUBEMX/Drivers/STM32F4xx_HAL_Driver/Src/stm32f4xx_hal_adc_ex.c ****       break;
 1931              		.loc 1 935 7 is_stmt 1 view .LVU611
 935:../STM32CUBEMX/Drivers/STM32F4xx_HAL_Driver/Src/stm32f4xx_hal_adc_ex.c ****       break;
 1932              		.loc 1 935 11 is_stmt 0 view .LVU612
 1933 01ca 1868     		ldr	r0, [r3]
 935:../STM32CUBEMX/Drivers/STM32F4xx_HAL_Driver/Src/stm32f4xx_hal_adc_ex.c ****       break;
 1934              		.loc 1 935 29 view .LVU613
 1935 01cc C269     		ldr	r2, [r0, #28]
 935:../STM32CUBEMX/Drivers/STM32F4xx_HAL_Driver/Src/stm32f4xx_hal_adc_ex.c ****       break;
 1936              		.loc 1 935 47 view .LVU614
 1937 01ce CC68     		ldr	r4, [r1, #12]
 935:../STM32CUBEMX/Drivers/STM32F4xx_HAL_Driver/Src/stm32f4xx_hal_adc_ex.c ****       break;
 1938              		.loc 1 935 29 view .LVU615
 1939 01d0 2243     		orrs	r2, r2, r4
 1940 01d2 C261     		str	r2, [r0, #28]
 936:../STM32CUBEMX/Drivers/STM32F4xx_HAL_Driver/Src/stm32f4xx_hal_adc_ex.c ****     default:
 1941              		.loc 1 936 7 is_stmt 1 view .LVU616
 1942 01d4 D8E7     		b	.L129
 1943              	.LVL118:
 1944              	.L138:
 950:../STM32CUBEMX/Drivers/STM32F4xx_HAL_Driver/Src/stm32f4xx_hal_adc_ex.c ****   {
 1945              		.loc 1 950 51 is_stmt 0 discriminator 1 view .LVU617
 1946 01d6 0A68     		ldr	r2, [r1]
 950:../STM32CUBEMX/Drivers/STM32F4xx_HAL_Driver/Src/stm32f4xx_hal_adc_ex.c ****   {
 1947              		.loc 1 950 32 discriminator 1 view .LVU618
 1948 01d8 122A     		cmp	r2, #18
 1949 01da D9D1     		bne	.L130
 953:../STM32CUBEMX/Drivers/STM32F4xx_HAL_Driver/Src/stm32f4xx_hal_adc_ex.c ****   }
 1950              		.loc 1 953 5 is_stmt 1 view .LVU619
 953:../STM32CUBEMX/Drivers/STM32F4xx_HAL_Driver/Src/stm32f4xx_hal_adc_ex.c ****   }
 1951              		.loc 1 953 24 is_stmt 0 view .LVU620
 1952 01dc 0A48     		ldr	r0, .L140+8
 1953 01de 4268     		ldr	r2, [r0, #4]
 1954 01e0 42F48002 		orr	r2, r2, #4194304
 1955 01e4 4260     		str	r2, [r0, #4]
 1956 01e6 D3E7     		b	.L130
 1957              	.L139:
 957:../STM32CUBEMX/Drivers/STM32F4xx_HAL_Driver/Src/stm32f4xx_hal_adc_ex.c ****   {
 1958              		.loc 1 957 52 discriminator 1 view .LVU621
 1959 01e8 0A68     		ldr	r2, [r1]
 957:../STM32CUBEMX/Drivers/STM32F4xx_HAL_Driver/Src/stm32f4xx_hal_adc_ex.c ****   {
 1960              		.loc 1 957 97 discriminator 1 view .LVU622
 1961 01ea 103A     		subs	r2, r2, #16
 957:../STM32CUBEMX/Drivers/STM32F4xx_HAL_Driver/Src/stm32f4xx_hal_adc_ex.c ****   {
 1962              		.loc 1 957 32 discriminator 1 view .LVU623
 1963 01ec 012A     		cmp	r2, #1
ARM GAS  C:\Users\ysl\AppData\Local\Temp\ccRy7Oyd.s 			page 65


 1964 01ee D3D8     		bhi	.L131
 960:../STM32CUBEMX/Drivers/STM32F4xx_HAL_Driver/Src/stm32f4xx_hal_adc_ex.c ****   }
 1965              		.loc 1 960 5 is_stmt 1 view .LVU624
 960:../STM32CUBEMX/Drivers/STM32F4xx_HAL_Driver/Src/stm32f4xx_hal_adc_ex.c ****   }
 1966              		.loc 1 960 24 is_stmt 0 view .LVU625
 1967 01f0 0549     		ldr	r1, .L140+8
 1968              	.LVL119:
 960:../STM32CUBEMX/Drivers/STM32F4xx_HAL_Driver/Src/stm32f4xx_hal_adc_ex.c ****   }
 1969              		.loc 1 960 24 view .LVU626
 1970 01f2 4A68     		ldr	r2, [r1, #4]
 1971 01f4 42F40002 		orr	r2, r2, #8388608
 1972 01f8 4A60     		str	r2, [r1, #4]
 1973 01fa CDE7     		b	.L131
 1974              	.LVL120:
 1975              	.L132:
 1976              	.LCFI22:
 1977              		.cfi_def_cfa_offset 0
 1978              		.cfi_restore 4
 1979              		.cfi_restore 5
 844:../STM32CUBEMX/Drivers/STM32F4xx_HAL_Driver/Src/stm32f4xx_hal_adc_ex.c ****   
 1980              		.loc 1 844 3 view .LVU627
 1981 01fc 0220     		movs	r0, #2
 1982              	.LVL121:
 968:../STM32CUBEMX/Drivers/STM32F4xx_HAL_Driver/Src/stm32f4xx_hal_adc_ex.c **** 
 1983              		.loc 1 968 1 view .LVU628
 1984 01fe 7047     		bx	lr
 1985              	.L141:
 1986              		.align	2
 1987              	.L140:
 1988 0200 01000F00 		.word	983041
 1989 0204 00200140 		.word	1073815552
 1990 0208 00230140 		.word	1073816320
 1991              		.cfi_endproc
 1992              	.LFE245:
 1994              		.section	.text.HAL_ADCEx_MultiModeConfigChannel,"ax",%progbits
 1995              		.align	1
 1996              		.global	HAL_ADCEx_MultiModeConfigChannel
 1997              		.syntax unified
 1998              		.thumb
 1999              		.thumb_func
 2001              	HAL_ADCEx_MultiModeConfigChannel:
 2002              	.LVL122:
 2003              	.LFB246:
 979:../STM32CUBEMX/Drivers/STM32F4xx_HAL_Driver/Src/stm32f4xx_hal_adc_ex.c **** 
 2004              		.loc 1 979 1 is_stmt 1 view -0
 2005              		.cfi_startproc
 2006              		@ args = 0, pretend = 0, frame = 0
 2007              		@ frame_needed = 0, uses_anonymous_args = 0
 2008              		@ link register save eliminated.
 981:../STM32CUBEMX/Drivers/STM32F4xx_HAL_Driver/Src/stm32f4xx_hal_adc_ex.c **** 
 2009              		.loc 1 981 3 view .LVU630
 984:../STM32CUBEMX/Drivers/STM32F4xx_HAL_Driver/Src/stm32f4xx_hal_adc_ex.c ****   assert_param(IS_ADC_DMA_ACCESS_MODE(multimode->DMAAccessMode));
 2010              		.loc 1 984 3 view .LVU631
 985:../STM32CUBEMX/Drivers/STM32F4xx_HAL_Driver/Src/stm32f4xx_hal_adc_ex.c ****   assert_param(IS_ADC_SAMPLING_DELAY(multimode->TwoSamplingDelay));
 2011              		.loc 1 985 3 view .LVU632
 986:../STM32CUBEMX/Drivers/STM32F4xx_HAL_Driver/Src/stm32f4xx_hal_adc_ex.c ****   
 2012              		.loc 1 986 3 view .LVU633
ARM GAS  C:\Users\ysl\AppData\Local\Temp\ccRy7Oyd.s 			page 66


 989:../STM32CUBEMX/Drivers/STM32F4xx_HAL_Driver/Src/stm32f4xx_hal_adc_ex.c **** 
 2013              		.loc 1 989 3 view .LVU634
 989:../STM32CUBEMX/Drivers/STM32F4xx_HAL_Driver/Src/stm32f4xx_hal_adc_ex.c **** 
 2014              		.loc 1 989 3 view .LVU635
 2015 0000 90F83C30 		ldrb	r3, [r0, #60]	@ zero_extendqisi2
 2016 0004 012B     		cmp	r3, #1
 2017 0006 23D0     		beq	.L144
 979:../STM32CUBEMX/Drivers/STM32F4xx_HAL_Driver/Src/stm32f4xx_hal_adc_ex.c **** 
 2018              		.loc 1 979 1 is_stmt 0 discriminator 2 view .LVU636
 2019 0008 10B4     		push	{r4}
 2020              	.LCFI23:
 2021              		.cfi_def_cfa_offset 4
 2022              		.cfi_offset 4, -4
 2023 000a 0246     		mov	r2, r0
 989:../STM32CUBEMX/Drivers/STM32F4xx_HAL_Driver/Src/stm32f4xx_hal_adc_ex.c **** 
 2024              		.loc 1 989 3 is_stmt 1 discriminator 2 view .LVU637
 2025 000c 0123     		movs	r3, #1
 2026 000e 80F83C30 		strb	r3, [r0, #60]
 989:../STM32CUBEMX/Drivers/STM32F4xx_HAL_Driver/Src/stm32f4xx_hal_adc_ex.c **** 
 2027              		.loc 1 989 3 discriminator 2 view .LVU638
 994:../STM32CUBEMX/Drivers/STM32F4xx_HAL_Driver/Src/stm32f4xx_hal_adc_ex.c **** 
 2028              		.loc 1 994 3 discriminator 2 view .LVU639
 2029              	.LVL123:
 997:../STM32CUBEMX/Drivers/STM32F4xx_HAL_Driver/Src/stm32f4xx_hal_adc_ex.c ****   tmpADC_Common->CCR |= multimode->Mode;
 2030              		.loc 1 997 3 discriminator 2 view .LVU640
 997:../STM32CUBEMX/Drivers/STM32F4xx_HAL_Driver/Src/stm32f4xx_hal_adc_ex.c ****   tmpADC_Common->CCR |= multimode->Mode;
 2031              		.loc 1 997 22 is_stmt 0 discriminator 2 view .LVU641
 2032 0012 104B     		ldr	r3, .L149
 2033 0014 5868     		ldr	r0, [r3, #4]
 2034              	.LVL124:
 997:../STM32CUBEMX/Drivers/STM32F4xx_HAL_Driver/Src/stm32f4xx_hal_adc_ex.c ****   tmpADC_Common->CCR |= multimode->Mode;
 2035              		.loc 1 997 22 discriminator 2 view .LVU642
 2036 0016 20F01F00 		bic	r0, r0, #31
 2037 001a 5860     		str	r0, [r3, #4]
 998:../STM32CUBEMX/Drivers/STM32F4xx_HAL_Driver/Src/stm32f4xx_hal_adc_ex.c ****   
 2038              		.loc 1 998 3 is_stmt 1 discriminator 2 view .LVU643
 998:../STM32CUBEMX/Drivers/STM32F4xx_HAL_Driver/Src/stm32f4xx_hal_adc_ex.c ****   
 2039              		.loc 1 998 22 is_stmt 0 discriminator 2 view .LVU644
 2040 001c 5868     		ldr	r0, [r3, #4]
 2041 001e 0C68     		ldr	r4, [r1]
 2042 0020 2043     		orrs	r0, r0, r4
 2043 0022 5860     		str	r0, [r3, #4]
1001:../STM32CUBEMX/Drivers/STM32F4xx_HAL_Driver/Src/stm32f4xx_hal_adc_ex.c ****   tmpADC_Common->CCR |= multimode->DMAAccessMode;
 2044              		.loc 1 1001 3 is_stmt 1 discriminator 2 view .LVU645
1001:../STM32CUBEMX/Drivers/STM32F4xx_HAL_Driver/Src/stm32f4xx_hal_adc_ex.c ****   tmpADC_Common->CCR |= multimode->DMAAccessMode;
 2045              		.loc 1 1001 22 is_stmt 0 discriminator 2 view .LVU646
 2046 0024 5868     		ldr	r0, [r3, #4]
 2047 0026 20F44040 		bic	r0, r0, #49152
 2048 002a 5860     		str	r0, [r3, #4]
1002:../STM32CUBEMX/Drivers/STM32F4xx_HAL_Driver/Src/stm32f4xx_hal_adc_ex.c ****   
 2049              		.loc 1 1002 3 is_stmt 1 discriminator 2 view .LVU647
1002:../STM32CUBEMX/Drivers/STM32F4xx_HAL_Driver/Src/stm32f4xx_hal_adc_ex.c ****   
 2050              		.loc 1 1002 22 is_stmt 0 discriminator 2 view .LVU648
 2051 002c 5868     		ldr	r0, [r3, #4]
 2052 002e 4C68     		ldr	r4, [r1, #4]
 2053 0030 2043     		orrs	r0, r0, r4
 2054 0032 5860     		str	r0, [r3, #4]
ARM GAS  C:\Users\ysl\AppData\Local\Temp\ccRy7Oyd.s 			page 67


1005:../STM32CUBEMX/Drivers/STM32F4xx_HAL_Driver/Src/stm32f4xx_hal_adc_ex.c ****   tmpADC_Common->CCR |= multimode->TwoSamplingDelay;
 2055              		.loc 1 1005 3 is_stmt 1 discriminator 2 view .LVU649
1005:../STM32CUBEMX/Drivers/STM32F4xx_HAL_Driver/Src/stm32f4xx_hal_adc_ex.c ****   tmpADC_Common->CCR |= multimode->TwoSamplingDelay;
 2056              		.loc 1 1005 22 is_stmt 0 discriminator 2 view .LVU650
 2057 0034 5868     		ldr	r0, [r3, #4]
 2058 0036 20F47060 		bic	r0, r0, #3840
 2059 003a 5860     		str	r0, [r3, #4]
1006:../STM32CUBEMX/Drivers/STM32F4xx_HAL_Driver/Src/stm32f4xx_hal_adc_ex.c ****   
 2060              		.loc 1 1006 3 is_stmt 1 discriminator 2 view .LVU651
1006:../STM32CUBEMX/Drivers/STM32F4xx_HAL_Driver/Src/stm32f4xx_hal_adc_ex.c ****   
 2061              		.loc 1 1006 22 is_stmt 0 discriminator 2 view .LVU652
 2062 003c 5868     		ldr	r0, [r3, #4]
1006:../STM32CUBEMX/Drivers/STM32F4xx_HAL_Driver/Src/stm32f4xx_hal_adc_ex.c ****   
 2063              		.loc 1 1006 34 discriminator 2 view .LVU653
 2064 003e 8968     		ldr	r1, [r1, #8]
 2065              	.LVL125:
1006:../STM32CUBEMX/Drivers/STM32F4xx_HAL_Driver/Src/stm32f4xx_hal_adc_ex.c ****   
 2066              		.loc 1 1006 22 discriminator 2 view .LVU654
 2067 0040 0143     		orrs	r1, r1, r0
 2068 0042 5960     		str	r1, [r3, #4]
1009:../STM32CUBEMX/Drivers/STM32F4xx_HAL_Driver/Src/stm32f4xx_hal_adc_ex.c ****   
 2069              		.loc 1 1009 3 is_stmt 1 discriminator 2 view .LVU655
1009:../STM32CUBEMX/Drivers/STM32F4xx_HAL_Driver/Src/stm32f4xx_hal_adc_ex.c ****   
 2070              		.loc 1 1009 3 discriminator 2 view .LVU656
 2071 0044 0020     		movs	r0, #0
 2072 0046 82F83C00 		strb	r0, [r2, #60]
1009:../STM32CUBEMX/Drivers/STM32F4xx_HAL_Driver/Src/stm32f4xx_hal_adc_ex.c ****   
 2073              		.loc 1 1009 3 discriminator 2 view .LVU657
1012:../STM32CUBEMX/Drivers/STM32F4xx_HAL_Driver/Src/stm32f4xx_hal_adc_ex.c **** }
 2074              		.loc 1 1012 3 discriminator 2 view .LVU658
1013:../STM32CUBEMX/Drivers/STM32F4xx_HAL_Driver/Src/stm32f4xx_hal_adc_ex.c **** 
 2075              		.loc 1 1013 1 is_stmt 0 discriminator 2 view .LVU659
 2076 004a 5DF8044B 		ldr	r4, [sp], #4
 2077              	.LCFI24:
 2078              		.cfi_restore 4
 2079              		.cfi_def_cfa_offset 0
 2080 004e 7047     		bx	lr
 2081              	.LVL126:
 2082              	.L144:
 989:../STM32CUBEMX/Drivers/STM32F4xx_HAL_Driver/Src/stm32f4xx_hal_adc_ex.c **** 
 2083              		.loc 1 989 3 view .LVU660
 2084 0050 0220     		movs	r0, #2
 2085              	.LVL127:
1013:../STM32CUBEMX/Drivers/STM32F4xx_HAL_Driver/Src/stm32f4xx_hal_adc_ex.c **** 
 2086              		.loc 1 1013 1 view .LVU661
 2087 0052 7047     		bx	lr
 2088              	.L150:
 2089              		.align	2
 2090              	.L149:
 2091 0054 00230140 		.word	1073816320
 2092              		.cfi_endproc
 2093              	.LFE246:
 2095              		.text
 2096              	.Letext0:
 2097              		.file 2 "c:\\program files (x86)\\arm gnu toolchain arm-none-eabi\\11.2 2022.02\\arm-none-eabi\\in
 2098              		.file 3 "c:\\program files (x86)\\arm gnu toolchain arm-none-eabi\\11.2 2022.02\\arm-none-eabi\\in
 2099              		.file 4 "../STM32CUBEMX/Drivers/CMSIS/Device/ST/STM32F4xx/Include/stm32f405xx.h"
ARM GAS  C:\Users\ysl\AppData\Local\Temp\ccRy7Oyd.s 			page 68


 2100              		.file 5 "../STM32CUBEMX/Drivers/CMSIS/Device/ST/STM32F4xx/Include/stm32f4xx.h"
 2101              		.file 6 "../STM32CUBEMX/Drivers/STM32F4xx_HAL_Driver/Inc/stm32f4xx_hal_def.h"
 2102              		.file 7 "../STM32CUBEMX/Drivers/STM32F4xx_HAL_Driver/Inc/stm32f4xx_hal_dma.h"
 2103              		.file 8 "../STM32CUBEMX/Drivers/STM32F4xx_HAL_Driver/Inc/stm32f4xx_hal_adc.h"
 2104              		.file 9 "../STM32CUBEMX/Drivers/STM32F4xx_HAL_Driver/Inc/stm32f4xx_hal_adc_ex.h"
 2105              		.file 10 "../STM32CUBEMX/Drivers/CMSIS/Device/ST/STM32F4xx/Include/system_stm32f4xx.h"
 2106              		.file 11 "../STM32CUBEMX/Drivers/STM32F4xx_HAL_Driver/Inc/stm32f4xx_hal.h"
ARM GAS  C:\Users\ysl\AppData\Local\Temp\ccRy7Oyd.s 			page 69


DEFINED SYMBOLS
                            *ABS*:00000000 stm32f4xx_hal_adc_ex.c
C:\Users\ysl\AppData\Local\Temp\ccRy7Oyd.s:20     .text.ADC_MultiModeDMAError:00000000 $t
C:\Users\ysl\AppData\Local\Temp\ccRy7Oyd.s:25     .text.ADC_MultiModeDMAError:00000000 ADC_MultiModeDMAError
C:\Users\ysl\AppData\Local\Temp\ccRy7Oyd.s:61     .text.ADC_MultiModeDMAHalfConvCplt:00000000 $t
C:\Users\ysl\AppData\Local\Temp\ccRy7Oyd.s:66     .text.ADC_MultiModeDMAHalfConvCplt:00000000 ADC_MultiModeDMAHalfConvCplt
C:\Users\ysl\AppData\Local\Temp\ccRy7Oyd.s:93     .text.ADC_MultiModeDMAConvCplt:00000000 $t
C:\Users\ysl\AppData\Local\Temp\ccRy7Oyd.s:98     .text.ADC_MultiModeDMAConvCplt:00000000 ADC_MultiModeDMAConvCplt
C:\Users\ysl\AppData\Local\Temp\ccRy7Oyd.s:192    .text.HAL_ADCEx_InjectedStart:00000000 $t
C:\Users\ysl\AppData\Local\Temp\ccRy7Oyd.s:198    .text.HAL_ADCEx_InjectedStart:00000000 HAL_ADCEx_InjectedStart
C:\Users\ysl\AppData\Local\Temp\ccRy7Oyd.s:425    .text.HAL_ADCEx_InjectedStart:000000f4 $d
C:\Users\ysl\AppData\Local\Temp\ccRy7Oyd.s:433    .text.HAL_ADCEx_InjectedStart_IT:00000000 $t
C:\Users\ysl\AppData\Local\Temp\ccRy7Oyd.s:439    .text.HAL_ADCEx_InjectedStart_IT:00000000 HAL_ADCEx_InjectedStart_IT
C:\Users\ysl\AppData\Local\Temp\ccRy7Oyd.s:671    .text.HAL_ADCEx_InjectedStart_IT:000000fc $d
C:\Users\ysl\AppData\Local\Temp\ccRy7Oyd.s:679    .text.HAL_ADCEx_InjectedStop:00000000 $t
C:\Users\ysl\AppData\Local\Temp\ccRy7Oyd.s:685    .text.HAL_ADCEx_InjectedStop:00000000 HAL_ADCEx_InjectedStop
C:\Users\ysl\AppData\Local\Temp\ccRy7Oyd.s:779    .text.HAL_ADCEx_InjectedPollForConversion:00000000 $t
C:\Users\ysl\AppData\Local\Temp\ccRy7Oyd.s:785    .text.HAL_ADCEx_InjectedPollForConversion:00000000 HAL_ADCEx_InjectedPollForConversion
C:\Users\ysl\AppData\Local\Temp\ccRy7Oyd.s:938    .text.HAL_ADCEx_InjectedStop_IT:00000000 $t
C:\Users\ysl\AppData\Local\Temp\ccRy7Oyd.s:944    .text.HAL_ADCEx_InjectedStop_IT:00000000 HAL_ADCEx_InjectedStop_IT
C:\Users\ysl\AppData\Local\Temp\ccRy7Oyd.s:1042   .text.HAL_ADCEx_InjectedGetValue:00000000 $t
C:\Users\ysl\AppData\Local\Temp\ccRy7Oyd.s:1048   .text.HAL_ADCEx_InjectedGetValue:00000000 HAL_ADCEx_InjectedGetValue
C:\Users\ysl\AppData\Local\Temp\ccRy7Oyd.s:1077   .text.HAL_ADCEx_InjectedGetValue:00000018 $d
C:\Users\ysl\AppData\Local\Temp\ccRy7Oyd.s:1081   .text.HAL_ADCEx_InjectedGetValue:0000001c $t
C:\Users\ysl\AppData\Local\Temp\ccRy7Oyd.s:1140   .text.HAL_ADCEx_MultiModeStart_DMA:00000000 $t
C:\Users\ysl\AppData\Local\Temp\ccRy7Oyd.s:1146   .text.HAL_ADCEx_MultiModeStart_DMA:00000000 HAL_ADCEx_MultiModeStart_DMA
C:\Users\ysl\AppData\Local\Temp\ccRy7Oyd.s:1383   .text.HAL_ADCEx_MultiModeStart_DMA:00000114 $d
C:\Users\ysl\AppData\Local\Temp\ccRy7Oyd.s:1394   .text.HAL_ADCEx_MultiModeStop_DMA:00000000 $t
C:\Users\ysl\AppData\Local\Temp\ccRy7Oyd.s:1400   .text.HAL_ADCEx_MultiModeStop_DMA:00000000 HAL_ADCEx_MultiModeStop_DMA
C:\Users\ysl\AppData\Local\Temp\ccRy7Oyd.s:1493   .text.HAL_ADCEx_MultiModeStop_DMA:00000060 $d
C:\Users\ysl\AppData\Local\Temp\ccRy7Oyd.s:1498   .text.HAL_ADCEx_MultiModeGetValue:00000000 $t
C:\Users\ysl\AppData\Local\Temp\ccRy7Oyd.s:1504   .text.HAL_ADCEx_MultiModeGetValue:00000000 HAL_ADCEx_MultiModeGetValue
C:\Users\ysl\AppData\Local\Temp\ccRy7Oyd.s:1524   .text.HAL_ADCEx_MultiModeGetValue:00000008 $d
C:\Users\ysl\AppData\Local\Temp\ccRy7Oyd.s:1529   .text.HAL_ADCEx_InjectedConvCpltCallback:00000000 $t
C:\Users\ysl\AppData\Local\Temp\ccRy7Oyd.s:1535   .text.HAL_ADCEx_InjectedConvCpltCallback:00000000 HAL_ADCEx_InjectedConvCpltCallback
C:\Users\ysl\AppData\Local\Temp\ccRy7Oyd.s:1550   .text.HAL_ADCEx_InjectedConfigChannel:00000000 $t
C:\Users\ysl\AppData\Local\Temp\ccRy7Oyd.s:1556   .text.HAL_ADCEx_InjectedConfigChannel:00000000 HAL_ADCEx_InjectedConfigChannel
C:\Users\ysl\AppData\Local\Temp\ccRy7Oyd.s:1988   .text.HAL_ADCEx_InjectedConfigChannel:00000200 $d
C:\Users\ysl\AppData\Local\Temp\ccRy7Oyd.s:1995   .text.HAL_ADCEx_MultiModeConfigChannel:00000000 $t
C:\Users\ysl\AppData\Local\Temp\ccRy7Oyd.s:2001   .text.HAL_ADCEx_MultiModeConfigChannel:00000000 HAL_ADCEx_MultiModeConfigChannel
C:\Users\ysl\AppData\Local\Temp\ccRy7Oyd.s:2091   .text.HAL_ADCEx_MultiModeConfigChannel:00000054 $d

UNDEFINED SYMBOLS
HAL_ADC_ErrorCallback
HAL_ADC_ConvHalfCpltCallback
HAL_ADC_ConvCpltCallback
SystemCoreClock
HAL_GetTick
HAL_DMA_Start_IT
HAL_DMA_Abort
