ARM GAS  C:\Users\ysl\AppData\Local\Temp\cchk1Yl7.s 			page 1


   1              		.cpu cortex-m4
   2              		.arch armv7e-m
   3              		.fpu fpv4-sp-d16
   4              		.eabi_attribute 27, 1
   5              		.eabi_attribute 28, 1
   6              		.eabi_attribute 20, 1
   7              		.eabi_attribute 21, 1
   8              		.eabi_attribute 23, 3
   9              		.eabi_attribute 24, 1
  10              		.eabi_attribute 25, 1
  11              		.eabi_attribute 26, 1
  12              		.eabi_attribute 30, 1
  13              		.eabi_attribute 34, 1
  14              		.eabi_attribute 18, 4
  15              		.file	"stm32f4xx_it.c"
  16              		.text
  17              	.Ltext0:
  18              		.cfi_sections	.debug_frame
  19              		.section	.text.NMI_Handler,"ax",%progbits
  20              		.align	1
  21              		.global	NMI_Handler
  22              		.syntax unified
  23              		.thumb
  24              		.thumb_func
  26              	NMI_Handler:
  27              	.LFB235:
  28              		.file 1 "../STM32CUBEMX/Core/Src/stm32f4xx_it.c"
   1:../STM32CUBEMX/Core/Src/stm32f4xx_it.c **** /* USER CODE BEGIN Header */
   2:../STM32CUBEMX/Core/Src/stm32f4xx_it.c **** /**
   3:../STM32CUBEMX/Core/Src/stm32f4xx_it.c ****   ******************************************************************************
   4:../STM32CUBEMX/Core/Src/stm32f4xx_it.c ****   * @file    stm32f4xx_it.c
   5:../STM32CUBEMX/Core/Src/stm32f4xx_it.c ****   * @brief   Interrupt Service Routines.
   6:../STM32CUBEMX/Core/Src/stm32f4xx_it.c ****   ******************************************************************************
   7:../STM32CUBEMX/Core/Src/stm32f4xx_it.c ****   * @attention
   8:../STM32CUBEMX/Core/Src/stm32f4xx_it.c ****   *
   9:../STM32CUBEMX/Core/Src/stm32f4xx_it.c ****   * Copyright (c) 2022 STMicroelectronics.
  10:../STM32CUBEMX/Core/Src/stm32f4xx_it.c ****   * All rights reserved.
  11:../STM32CUBEMX/Core/Src/stm32f4xx_it.c ****   *
  12:../STM32CUBEMX/Core/Src/stm32f4xx_it.c ****   * This software is licensed under terms that can be found in the LICENSE file
  13:../STM32CUBEMX/Core/Src/stm32f4xx_it.c ****   * in the root directory of this software component.
  14:../STM32CUBEMX/Core/Src/stm32f4xx_it.c ****   * If no LICENSE file comes with this software, it is provided AS-IS.
  15:../STM32CUBEMX/Core/Src/stm32f4xx_it.c ****   *
  16:../STM32CUBEMX/Core/Src/stm32f4xx_it.c ****   ******************************************************************************
  17:../STM32CUBEMX/Core/Src/stm32f4xx_it.c ****   */
  18:../STM32CUBEMX/Core/Src/stm32f4xx_it.c **** /* USER CODE END Header */
  19:../STM32CUBEMX/Core/Src/stm32f4xx_it.c **** 
  20:../STM32CUBEMX/Core/Src/stm32f4xx_it.c **** /* Includes ------------------------------------------------------------------*/
  21:../STM32CUBEMX/Core/Src/stm32f4xx_it.c **** #include "main.h"
  22:../STM32CUBEMX/Core/Src/stm32f4xx_it.c **** #include "stm32f4xx_it.h"
  23:../STM32CUBEMX/Core/Src/stm32f4xx_it.c **** /* Private includes ----------------------------------------------------------*/
  24:../STM32CUBEMX/Core/Src/stm32f4xx_it.c **** /* USER CODE BEGIN Includes */
  25:../STM32CUBEMX/Core/Src/stm32f4xx_it.c **** /* USER CODE END Includes */
  26:../STM32CUBEMX/Core/Src/stm32f4xx_it.c **** 
  27:../STM32CUBEMX/Core/Src/stm32f4xx_it.c **** /* Private typedef -----------------------------------------------------------*/
  28:../STM32CUBEMX/Core/Src/stm32f4xx_it.c **** /* USER CODE BEGIN TD */
  29:../STM32CUBEMX/Core/Src/stm32f4xx_it.c **** 
  30:../STM32CUBEMX/Core/Src/stm32f4xx_it.c **** /* USER CODE END TD */
ARM GAS  C:\Users\ysl\AppData\Local\Temp\cchk1Yl7.s 			page 2


  31:../STM32CUBEMX/Core/Src/stm32f4xx_it.c **** 
  32:../STM32CUBEMX/Core/Src/stm32f4xx_it.c **** /* Private define ------------------------------------------------------------*/
  33:../STM32CUBEMX/Core/Src/stm32f4xx_it.c **** /* USER CODE BEGIN PD */
  34:../STM32CUBEMX/Core/Src/stm32f4xx_it.c **** 
  35:../STM32CUBEMX/Core/Src/stm32f4xx_it.c **** /* USER CODE END PD */
  36:../STM32CUBEMX/Core/Src/stm32f4xx_it.c **** 
  37:../STM32CUBEMX/Core/Src/stm32f4xx_it.c **** /* Private macro -------------------------------------------------------------*/
  38:../STM32CUBEMX/Core/Src/stm32f4xx_it.c **** /* USER CODE BEGIN PM */
  39:../STM32CUBEMX/Core/Src/stm32f4xx_it.c **** 
  40:../STM32CUBEMX/Core/Src/stm32f4xx_it.c **** /* USER CODE END PM */
  41:../STM32CUBEMX/Core/Src/stm32f4xx_it.c **** 
  42:../STM32CUBEMX/Core/Src/stm32f4xx_it.c **** /* Private variables ---------------------------------------------------------*/
  43:../STM32CUBEMX/Core/Src/stm32f4xx_it.c **** /* USER CODE BEGIN PV */
  44:../STM32CUBEMX/Core/Src/stm32f4xx_it.c **** 
  45:../STM32CUBEMX/Core/Src/stm32f4xx_it.c **** /* USER CODE END PV */
  46:../STM32CUBEMX/Core/Src/stm32f4xx_it.c **** 
  47:../STM32CUBEMX/Core/Src/stm32f4xx_it.c **** /* Private function prototypes -----------------------------------------------*/
  48:../STM32CUBEMX/Core/Src/stm32f4xx_it.c **** /* USER CODE BEGIN PFP */
  49:../STM32CUBEMX/Core/Src/stm32f4xx_it.c **** void USER_UART_RxIdleCallback(UART_HandleTypeDef *huart);
  50:../STM32CUBEMX/Core/Src/stm32f4xx_it.c **** /* USER CODE END PFP */
  51:../STM32CUBEMX/Core/Src/stm32f4xx_it.c **** 
  52:../STM32CUBEMX/Core/Src/stm32f4xx_it.c **** /* Private user code ---------------------------------------------------------*/
  53:../STM32CUBEMX/Core/Src/stm32f4xx_it.c **** /* USER CODE BEGIN 0 */
  54:../STM32CUBEMX/Core/Src/stm32f4xx_it.c **** 
  55:../STM32CUBEMX/Core/Src/stm32f4xx_it.c **** /* USER CODE END 0 */
  56:../STM32CUBEMX/Core/Src/stm32f4xx_it.c **** 
  57:../STM32CUBEMX/Core/Src/stm32f4xx_it.c **** /* External variables --------------------------------------------------------*/
  58:../STM32CUBEMX/Core/Src/stm32f4xx_it.c **** extern DMA_HandleTypeDef hdma_adc1;
  59:../STM32CUBEMX/Core/Src/stm32f4xx_it.c **** extern DMA_HandleTypeDef hdma_adc2;
  60:../STM32CUBEMX/Core/Src/stm32f4xx_it.c **** extern DMA_HandleTypeDef hdma_tim4_ch1;
  61:../STM32CUBEMX/Core/Src/stm32f4xx_it.c **** extern DMA_HandleTypeDef hdma_tim4_ch2;
  62:../STM32CUBEMX/Core/Src/stm32f4xx_it.c **** extern TIM_HandleTypeDef htim7;
  63:../STM32CUBEMX/Core/Src/stm32f4xx_it.c **** extern DMA_HandleTypeDef hdma_usart1_rx;
  64:../STM32CUBEMX/Core/Src/stm32f4xx_it.c **** extern DMA_HandleTypeDef hdma_usart1_tx;
  65:../STM32CUBEMX/Core/Src/stm32f4xx_it.c **** extern DMA_HandleTypeDef hdma_usart3_rx;
  66:../STM32CUBEMX/Core/Src/stm32f4xx_it.c **** extern UART_HandleTypeDef huart1;
  67:../STM32CUBEMX/Core/Src/stm32f4xx_it.c **** extern UART_HandleTypeDef huart3;
  68:../STM32CUBEMX/Core/Src/stm32f4xx_it.c **** /* USER CODE BEGIN EV */
  69:../STM32CUBEMX/Core/Src/stm32f4xx_it.c **** 
  70:../STM32CUBEMX/Core/Src/stm32f4xx_it.c **** /* USER CODE END EV */
  71:../STM32CUBEMX/Core/Src/stm32f4xx_it.c **** 
  72:../STM32CUBEMX/Core/Src/stm32f4xx_it.c **** /******************************************************************************/
  73:../STM32CUBEMX/Core/Src/stm32f4xx_it.c **** /*           Cortex-M4 Processor Interruption and Exception Handlers          */
  74:../STM32CUBEMX/Core/Src/stm32f4xx_it.c **** /******************************************************************************/
  75:../STM32CUBEMX/Core/Src/stm32f4xx_it.c **** /**
  76:../STM32CUBEMX/Core/Src/stm32f4xx_it.c ****   * @brief This function handles Non maskable interrupt.
  77:../STM32CUBEMX/Core/Src/stm32f4xx_it.c ****   */
  78:../STM32CUBEMX/Core/Src/stm32f4xx_it.c **** void NMI_Handler(void)
  79:../STM32CUBEMX/Core/Src/stm32f4xx_it.c **** {
  29              		.loc 1 79 1 view -0
  30              		.cfi_startproc
  31              		@ Volatile: function does not return.
  32              		@ args = 0, pretend = 0, frame = 0
  33              		@ frame_needed = 0, uses_anonymous_args = 0
  34              		@ link register save eliminated.
  35              	.L2:
  80:../STM32CUBEMX/Core/Src/stm32f4xx_it.c ****   /* USER CODE BEGIN NonMaskableInt_IRQn 0 */
ARM GAS  C:\Users\ysl\AppData\Local\Temp\cchk1Yl7.s 			page 3


  81:../STM32CUBEMX/Core/Src/stm32f4xx_it.c **** 
  82:../STM32CUBEMX/Core/Src/stm32f4xx_it.c ****   /* USER CODE END NonMaskableInt_IRQn 0 */
  83:../STM32CUBEMX/Core/Src/stm32f4xx_it.c ****   /* USER CODE BEGIN NonMaskableInt_IRQn 1 */
  84:../STM32CUBEMX/Core/Src/stm32f4xx_it.c ****   while (1)
  36              		.loc 1 84 3 discriminator 1 view .LVU1
  85:../STM32CUBEMX/Core/Src/stm32f4xx_it.c ****   {
  86:../STM32CUBEMX/Core/Src/stm32f4xx_it.c ****   }
  37              		.loc 1 86 3 discriminator 1 view .LVU2
  84:../STM32CUBEMX/Core/Src/stm32f4xx_it.c ****   {
  38              		.loc 1 84 9 discriminator 1 view .LVU3
  39 0000 FEE7     		b	.L2
  40              		.cfi_endproc
  41              	.LFE235:
  43              		.section	.text.HardFault_Handler,"ax",%progbits
  44              		.align	1
  45              		.global	HardFault_Handler
  46              		.syntax unified
  47              		.thumb
  48              		.thumb_func
  50              	HardFault_Handler:
  51              	.LFB236:
  87:../STM32CUBEMX/Core/Src/stm32f4xx_it.c ****   /* USER CODE END NonMaskableInt_IRQn 1 */
  88:../STM32CUBEMX/Core/Src/stm32f4xx_it.c **** }
  89:../STM32CUBEMX/Core/Src/stm32f4xx_it.c **** 
  90:../STM32CUBEMX/Core/Src/stm32f4xx_it.c **** /**
  91:../STM32CUBEMX/Core/Src/stm32f4xx_it.c ****   * @brief This function handles Hard fault interrupt.
  92:../STM32CUBEMX/Core/Src/stm32f4xx_it.c ****   */
  93:../STM32CUBEMX/Core/Src/stm32f4xx_it.c **** void HardFault_Handler(void)
  94:../STM32CUBEMX/Core/Src/stm32f4xx_it.c **** {
  52              		.loc 1 94 1 view -0
  53              		.cfi_startproc
  54              		@ Volatile: function does not return.
  55              		@ args = 0, pretend = 0, frame = 0
  56              		@ frame_needed = 0, uses_anonymous_args = 0
  57              		@ link register save eliminated.
  58              	.L4:
  95:../STM32CUBEMX/Core/Src/stm32f4xx_it.c ****   /* USER CODE BEGIN HardFault_IRQn 0 */
  96:../STM32CUBEMX/Core/Src/stm32f4xx_it.c **** 
  97:../STM32CUBEMX/Core/Src/stm32f4xx_it.c ****   /* USER CODE END HardFault_IRQn 0 */
  98:../STM32CUBEMX/Core/Src/stm32f4xx_it.c ****   while (1)
  59              		.loc 1 98 3 discriminator 1 view .LVU5
  99:../STM32CUBEMX/Core/Src/stm32f4xx_it.c ****   {
 100:../STM32CUBEMX/Core/Src/stm32f4xx_it.c ****     /* USER CODE BEGIN W1_HardFault_IRQn 0 */
 101:../STM32CUBEMX/Core/Src/stm32f4xx_it.c ****     /* USER CODE END W1_HardFault_IRQn 0 */
 102:../STM32CUBEMX/Core/Src/stm32f4xx_it.c ****   }
  60              		.loc 1 102 3 discriminator 1 view .LVU6
  98:../STM32CUBEMX/Core/Src/stm32f4xx_it.c ****   {
  61              		.loc 1 98 9 discriminator 1 view .LVU7
  62 0000 FEE7     		b	.L4
  63              		.cfi_endproc
  64              	.LFE236:
  66              		.section	.text.MemManage_Handler,"ax",%progbits
  67              		.align	1
  68              		.global	MemManage_Handler
  69              		.syntax unified
  70              		.thumb
  71              		.thumb_func
ARM GAS  C:\Users\ysl\AppData\Local\Temp\cchk1Yl7.s 			page 4


  73              	MemManage_Handler:
  74              	.LFB237:
 103:../STM32CUBEMX/Core/Src/stm32f4xx_it.c **** }
 104:../STM32CUBEMX/Core/Src/stm32f4xx_it.c **** 
 105:../STM32CUBEMX/Core/Src/stm32f4xx_it.c **** /**
 106:../STM32CUBEMX/Core/Src/stm32f4xx_it.c ****   * @brief This function handles Memory management fault.
 107:../STM32CUBEMX/Core/Src/stm32f4xx_it.c ****   */
 108:../STM32CUBEMX/Core/Src/stm32f4xx_it.c **** void MemManage_Handler(void)
 109:../STM32CUBEMX/Core/Src/stm32f4xx_it.c **** {
  75              		.loc 1 109 1 view -0
  76              		.cfi_startproc
  77              		@ Volatile: function does not return.
  78              		@ args = 0, pretend = 0, frame = 0
  79              		@ frame_needed = 0, uses_anonymous_args = 0
  80              		@ link register save eliminated.
  81              	.L6:
 110:../STM32CUBEMX/Core/Src/stm32f4xx_it.c ****   /* USER CODE BEGIN MemoryManagement_IRQn 0 */
 111:../STM32CUBEMX/Core/Src/stm32f4xx_it.c **** 
 112:../STM32CUBEMX/Core/Src/stm32f4xx_it.c ****   /* USER CODE END MemoryManagement_IRQn 0 */
 113:../STM32CUBEMX/Core/Src/stm32f4xx_it.c ****   while (1)
  82              		.loc 1 113 3 discriminator 1 view .LVU9
 114:../STM32CUBEMX/Core/Src/stm32f4xx_it.c ****   {
 115:../STM32CUBEMX/Core/Src/stm32f4xx_it.c ****     /* USER CODE BEGIN W1_MemoryManagement_IRQn 0 */
 116:../STM32CUBEMX/Core/Src/stm32f4xx_it.c ****     /* USER CODE END W1_MemoryManagement_IRQn 0 */
 117:../STM32CUBEMX/Core/Src/stm32f4xx_it.c ****   }
  83              		.loc 1 117 3 discriminator 1 view .LVU10
 113:../STM32CUBEMX/Core/Src/stm32f4xx_it.c ****   {
  84              		.loc 1 113 9 discriminator 1 view .LVU11
  85 0000 FEE7     		b	.L6
  86              		.cfi_endproc
  87              	.LFE237:
  89              		.section	.text.BusFault_Handler,"ax",%progbits
  90              		.align	1
  91              		.global	BusFault_Handler
  92              		.syntax unified
  93              		.thumb
  94              		.thumb_func
  96              	BusFault_Handler:
  97              	.LFB238:
 118:../STM32CUBEMX/Core/Src/stm32f4xx_it.c **** }
 119:../STM32CUBEMX/Core/Src/stm32f4xx_it.c **** 
 120:../STM32CUBEMX/Core/Src/stm32f4xx_it.c **** /**
 121:../STM32CUBEMX/Core/Src/stm32f4xx_it.c ****   * @brief This function handles Pre-fetch fault, memory access fault.
 122:../STM32CUBEMX/Core/Src/stm32f4xx_it.c ****   */
 123:../STM32CUBEMX/Core/Src/stm32f4xx_it.c **** void BusFault_Handler(void)
 124:../STM32CUBEMX/Core/Src/stm32f4xx_it.c **** {
  98              		.loc 1 124 1 view -0
  99              		.cfi_startproc
 100              		@ Volatile: function does not return.
 101              		@ args = 0, pretend = 0, frame = 0
 102              		@ frame_needed = 0, uses_anonymous_args = 0
 103              		@ link register save eliminated.
 104              	.L8:
 125:../STM32CUBEMX/Core/Src/stm32f4xx_it.c ****   /* USER CODE BEGIN BusFault_IRQn 0 */
 126:../STM32CUBEMX/Core/Src/stm32f4xx_it.c **** 
 127:../STM32CUBEMX/Core/Src/stm32f4xx_it.c ****   /* USER CODE END BusFault_IRQn 0 */
 128:../STM32CUBEMX/Core/Src/stm32f4xx_it.c ****   while (1)
ARM GAS  C:\Users\ysl\AppData\Local\Temp\cchk1Yl7.s 			page 5


 105              		.loc 1 128 3 discriminator 1 view .LVU13
 129:../STM32CUBEMX/Core/Src/stm32f4xx_it.c ****   {
 130:../STM32CUBEMX/Core/Src/stm32f4xx_it.c ****     /* USER CODE BEGIN W1_BusFault_IRQn 0 */
 131:../STM32CUBEMX/Core/Src/stm32f4xx_it.c ****     /* USER CODE END W1_BusFault_IRQn 0 */
 132:../STM32CUBEMX/Core/Src/stm32f4xx_it.c ****   }
 106              		.loc 1 132 3 discriminator 1 view .LVU14
 128:../STM32CUBEMX/Core/Src/stm32f4xx_it.c ****   {
 107              		.loc 1 128 9 discriminator 1 view .LVU15
 108 0000 FEE7     		b	.L8
 109              		.cfi_endproc
 110              	.LFE238:
 112              		.section	.text.UsageFault_Handler,"ax",%progbits
 113              		.align	1
 114              		.global	UsageFault_Handler
 115              		.syntax unified
 116              		.thumb
 117              		.thumb_func
 119              	UsageFault_Handler:
 120              	.LFB239:
 133:../STM32CUBEMX/Core/Src/stm32f4xx_it.c **** }
 134:../STM32CUBEMX/Core/Src/stm32f4xx_it.c **** 
 135:../STM32CUBEMX/Core/Src/stm32f4xx_it.c **** /**
 136:../STM32CUBEMX/Core/Src/stm32f4xx_it.c ****   * @brief This function handles Undefined instruction or illegal state.
 137:../STM32CUBEMX/Core/Src/stm32f4xx_it.c ****   */
 138:../STM32CUBEMX/Core/Src/stm32f4xx_it.c **** void UsageFault_Handler(void)
 139:../STM32CUBEMX/Core/Src/stm32f4xx_it.c **** {
 121              		.loc 1 139 1 view -0
 122              		.cfi_startproc
 123              		@ Volatile: function does not return.
 124              		@ args = 0, pretend = 0, frame = 0
 125              		@ frame_needed = 0, uses_anonymous_args = 0
 126              		@ link register save eliminated.
 127              	.L10:
 140:../STM32CUBEMX/Core/Src/stm32f4xx_it.c ****   /* USER CODE BEGIN UsageFault_IRQn 0 */
 141:../STM32CUBEMX/Core/Src/stm32f4xx_it.c **** 
 142:../STM32CUBEMX/Core/Src/stm32f4xx_it.c ****   /* USER CODE END UsageFault_IRQn 0 */
 143:../STM32CUBEMX/Core/Src/stm32f4xx_it.c ****   while (1)
 128              		.loc 1 143 3 discriminator 1 view .LVU17
 144:../STM32CUBEMX/Core/Src/stm32f4xx_it.c ****   {
 145:../STM32CUBEMX/Core/Src/stm32f4xx_it.c ****     /* USER CODE BEGIN W1_UsageFault_IRQn 0 */
 146:../STM32CUBEMX/Core/Src/stm32f4xx_it.c ****     /* USER CODE END W1_UsageFault_IRQn 0 */
 147:../STM32CUBEMX/Core/Src/stm32f4xx_it.c ****   }
 129              		.loc 1 147 3 discriminator 1 view .LVU18
 143:../STM32CUBEMX/Core/Src/stm32f4xx_it.c ****   {
 130              		.loc 1 143 9 discriminator 1 view .LVU19
 131 0000 FEE7     		b	.L10
 132              		.cfi_endproc
 133              	.LFE239:
 135              		.section	.text.SVC_Handler,"ax",%progbits
 136              		.align	1
 137              		.global	SVC_Handler
 138              		.syntax unified
 139              		.thumb
 140              		.thumb_func
 142              	SVC_Handler:
 143              	.LFB240:
 148:../STM32CUBEMX/Core/Src/stm32f4xx_it.c **** }
ARM GAS  C:\Users\ysl\AppData\Local\Temp\cchk1Yl7.s 			page 6


 149:../STM32CUBEMX/Core/Src/stm32f4xx_it.c **** 
 150:../STM32CUBEMX/Core/Src/stm32f4xx_it.c **** /**
 151:../STM32CUBEMX/Core/Src/stm32f4xx_it.c ****   * @brief This function handles System service call via SWI instruction.
 152:../STM32CUBEMX/Core/Src/stm32f4xx_it.c ****   */
 153:../STM32CUBEMX/Core/Src/stm32f4xx_it.c **** void SVC_Handler(void)
 154:../STM32CUBEMX/Core/Src/stm32f4xx_it.c **** {
 144              		.loc 1 154 1 view -0
 145              		.cfi_startproc
 146              		@ args = 0, pretend = 0, frame = 0
 147              		@ frame_needed = 0, uses_anonymous_args = 0
 148              		@ link register save eliminated.
 155:../STM32CUBEMX/Core/Src/stm32f4xx_it.c ****   /* USER CODE BEGIN SVCall_IRQn 0 */
 156:../STM32CUBEMX/Core/Src/stm32f4xx_it.c **** 
 157:../STM32CUBEMX/Core/Src/stm32f4xx_it.c ****   /* USER CODE END SVCall_IRQn 0 */
 158:../STM32CUBEMX/Core/Src/stm32f4xx_it.c ****   /* USER CODE BEGIN SVCall_IRQn 1 */
 159:../STM32CUBEMX/Core/Src/stm32f4xx_it.c **** 
 160:../STM32CUBEMX/Core/Src/stm32f4xx_it.c ****   /* USER CODE END SVCall_IRQn 1 */
 161:../STM32CUBEMX/Core/Src/stm32f4xx_it.c **** }
 149              		.loc 1 161 1 view .LVU21
 150 0000 7047     		bx	lr
 151              		.cfi_endproc
 152              	.LFE240:
 154              		.section	.text.DebugMon_Handler,"ax",%progbits
 155              		.align	1
 156              		.global	DebugMon_Handler
 157              		.syntax unified
 158              		.thumb
 159              		.thumb_func
 161              	DebugMon_Handler:
 162              	.LFB241:
 162:../STM32CUBEMX/Core/Src/stm32f4xx_it.c **** 
 163:../STM32CUBEMX/Core/Src/stm32f4xx_it.c **** /**
 164:../STM32CUBEMX/Core/Src/stm32f4xx_it.c ****   * @brief This function handles Debug monitor.
 165:../STM32CUBEMX/Core/Src/stm32f4xx_it.c ****   */
 166:../STM32CUBEMX/Core/Src/stm32f4xx_it.c **** void DebugMon_Handler(void)
 167:../STM32CUBEMX/Core/Src/stm32f4xx_it.c **** {
 163              		.loc 1 167 1 view -0
 164              		.cfi_startproc
 165              		@ args = 0, pretend = 0, frame = 0
 166              		@ frame_needed = 0, uses_anonymous_args = 0
 167              		@ link register save eliminated.
 168:../STM32CUBEMX/Core/Src/stm32f4xx_it.c ****   /* USER CODE BEGIN DebugMonitor_IRQn 0 */
 169:../STM32CUBEMX/Core/Src/stm32f4xx_it.c **** 
 170:../STM32CUBEMX/Core/Src/stm32f4xx_it.c ****   /* USER CODE END DebugMonitor_IRQn 0 */
 171:../STM32CUBEMX/Core/Src/stm32f4xx_it.c ****   /* USER CODE BEGIN DebugMonitor_IRQn 1 */
 172:../STM32CUBEMX/Core/Src/stm32f4xx_it.c **** 
 173:../STM32CUBEMX/Core/Src/stm32f4xx_it.c ****   /* USER CODE END DebugMonitor_IRQn 1 */
 174:../STM32CUBEMX/Core/Src/stm32f4xx_it.c **** }
 168              		.loc 1 174 1 view .LVU23
 169 0000 7047     		bx	lr
 170              		.cfi_endproc
 171              	.LFE241:
 173              		.section	.text.PendSV_Handler,"ax",%progbits
 174              		.align	1
 175              		.global	PendSV_Handler
 176              		.syntax unified
 177              		.thumb
ARM GAS  C:\Users\ysl\AppData\Local\Temp\cchk1Yl7.s 			page 7


 178              		.thumb_func
 180              	PendSV_Handler:
 181              	.LFB242:
 175:../STM32CUBEMX/Core/Src/stm32f4xx_it.c **** 
 176:../STM32CUBEMX/Core/Src/stm32f4xx_it.c **** /**
 177:../STM32CUBEMX/Core/Src/stm32f4xx_it.c ****   * @brief This function handles Pendable request for system service.
 178:../STM32CUBEMX/Core/Src/stm32f4xx_it.c ****   */
 179:../STM32CUBEMX/Core/Src/stm32f4xx_it.c **** void PendSV_Handler(void)
 180:../STM32CUBEMX/Core/Src/stm32f4xx_it.c **** {
 182              		.loc 1 180 1 view -0
 183              		.cfi_startproc
 184              		@ args = 0, pretend = 0, frame = 0
 185              		@ frame_needed = 0, uses_anonymous_args = 0
 186              		@ link register save eliminated.
 181:../STM32CUBEMX/Core/Src/stm32f4xx_it.c ****   /* USER CODE BEGIN PendSV_IRQn 0 */
 182:../STM32CUBEMX/Core/Src/stm32f4xx_it.c **** 
 183:../STM32CUBEMX/Core/Src/stm32f4xx_it.c ****   /* USER CODE END PendSV_IRQn 0 */
 184:../STM32CUBEMX/Core/Src/stm32f4xx_it.c ****   /* USER CODE BEGIN PendSV_IRQn 1 */
 185:../STM32CUBEMX/Core/Src/stm32f4xx_it.c **** 
 186:../STM32CUBEMX/Core/Src/stm32f4xx_it.c ****   /* USER CODE END PendSV_IRQn 1 */
 187:../STM32CUBEMX/Core/Src/stm32f4xx_it.c **** }
 187              		.loc 1 187 1 view .LVU25
 188 0000 7047     		bx	lr
 189              		.cfi_endproc
 190              	.LFE242:
 192              		.section	.text.SysTick_Handler,"ax",%progbits
 193              		.align	1
 194              		.global	SysTick_Handler
 195              		.syntax unified
 196              		.thumb
 197              		.thumb_func
 199              	SysTick_Handler:
 200              	.LFB243:
 188:../STM32CUBEMX/Core/Src/stm32f4xx_it.c **** 
 189:../STM32CUBEMX/Core/Src/stm32f4xx_it.c **** /**
 190:../STM32CUBEMX/Core/Src/stm32f4xx_it.c ****   * @brief This function handles System tick timer.
 191:../STM32CUBEMX/Core/Src/stm32f4xx_it.c ****   */
 192:../STM32CUBEMX/Core/Src/stm32f4xx_it.c **** void SysTick_Handler(void)
 193:../STM32CUBEMX/Core/Src/stm32f4xx_it.c **** {
 201              		.loc 1 193 1 view -0
 202              		.cfi_startproc
 203              		@ args = 0, pretend = 0, frame = 0
 204              		@ frame_needed = 0, uses_anonymous_args = 0
 205 0000 08B5     		push	{r3, lr}
 206              	.LCFI0:
 207              		.cfi_def_cfa_offset 8
 208              		.cfi_offset 3, -8
 209              		.cfi_offset 14, -4
 194:../STM32CUBEMX/Core/Src/stm32f4xx_it.c ****   /* USER CODE BEGIN SysTick_IRQn 0 */
 195:../STM32CUBEMX/Core/Src/stm32f4xx_it.c **** 
 196:../STM32CUBEMX/Core/Src/stm32f4xx_it.c ****   /* USER CODE END SysTick_IRQn 0 */
 197:../STM32CUBEMX/Core/Src/stm32f4xx_it.c ****   HAL_IncTick();
 210              		.loc 1 197 3 view .LVU27
 211 0002 FFF7FEFF 		bl	HAL_IncTick
 212              	.LVL0:
 198:../STM32CUBEMX/Core/Src/stm32f4xx_it.c ****   /* USER CODE BEGIN SysTick_IRQn 1 */
 199:../STM32CUBEMX/Core/Src/stm32f4xx_it.c **** 
ARM GAS  C:\Users\ysl\AppData\Local\Temp\cchk1Yl7.s 			page 8


 200:../STM32CUBEMX/Core/Src/stm32f4xx_it.c ****   /* USER CODE END SysTick_IRQn 1 */
 201:../STM32CUBEMX/Core/Src/stm32f4xx_it.c **** }
 213              		.loc 1 201 1 is_stmt 0 view .LVU28
 214 0006 08BD     		pop	{r3, pc}
 215              		.cfi_endproc
 216              	.LFE243:
 218              		.section	.text.DMA1_Stream0_IRQHandler,"ax",%progbits
 219              		.align	1
 220              		.global	DMA1_Stream0_IRQHandler
 221              		.syntax unified
 222              		.thumb
 223              		.thumb_func
 225              	DMA1_Stream0_IRQHandler:
 226              	.LFB244:
 202:../STM32CUBEMX/Core/Src/stm32f4xx_it.c **** 
 203:../STM32CUBEMX/Core/Src/stm32f4xx_it.c **** /******************************************************************************/
 204:../STM32CUBEMX/Core/Src/stm32f4xx_it.c **** /* STM32F4xx Peripheral Interrupt Handlers                                    */
 205:../STM32CUBEMX/Core/Src/stm32f4xx_it.c **** /* Add here the Interrupt Handlers for the used peripherals.                  */
 206:../STM32CUBEMX/Core/Src/stm32f4xx_it.c **** /* For the available peripheral interrupt handler names,                      */
 207:../STM32CUBEMX/Core/Src/stm32f4xx_it.c **** /* please refer to the startup file (startup_stm32f4xx.s).                    */
 208:../STM32CUBEMX/Core/Src/stm32f4xx_it.c **** /******************************************************************************/
 209:../STM32CUBEMX/Core/Src/stm32f4xx_it.c **** 
 210:../STM32CUBEMX/Core/Src/stm32f4xx_it.c **** /**
 211:../STM32CUBEMX/Core/Src/stm32f4xx_it.c ****   * @brief This function handles DMA1 stream0 global interrupt.
 212:../STM32CUBEMX/Core/Src/stm32f4xx_it.c ****   */
 213:../STM32CUBEMX/Core/Src/stm32f4xx_it.c **** void DMA1_Stream0_IRQHandler(void)
 214:../STM32CUBEMX/Core/Src/stm32f4xx_it.c **** {
 227              		.loc 1 214 1 is_stmt 1 view -0
 228              		.cfi_startproc
 229              		@ args = 0, pretend = 0, frame = 0
 230              		@ frame_needed = 0, uses_anonymous_args = 0
 231 0000 08B5     		push	{r3, lr}
 232              	.LCFI1:
 233              		.cfi_def_cfa_offset 8
 234              		.cfi_offset 3, -8
 235              		.cfi_offset 14, -4
 215:../STM32CUBEMX/Core/Src/stm32f4xx_it.c ****   /* USER CODE BEGIN DMA1_Stream0_IRQn 0 */
 216:../STM32CUBEMX/Core/Src/stm32f4xx_it.c **** 
 217:../STM32CUBEMX/Core/Src/stm32f4xx_it.c ****   /* USER CODE END DMA1_Stream0_IRQn 0 */
 218:../STM32CUBEMX/Core/Src/stm32f4xx_it.c ****   HAL_DMA_IRQHandler(&hdma_tim4_ch1);
 236              		.loc 1 218 3 view .LVU30
 237 0002 0248     		ldr	r0, .L18
 238 0004 FFF7FEFF 		bl	HAL_DMA_IRQHandler
 239              	.LVL1:
 219:../STM32CUBEMX/Core/Src/stm32f4xx_it.c ****   /* USER CODE BEGIN DMA1_Stream0_IRQn 1 */
 220:../STM32CUBEMX/Core/Src/stm32f4xx_it.c **** 
 221:../STM32CUBEMX/Core/Src/stm32f4xx_it.c ****   /* USER CODE END DMA1_Stream0_IRQn 1 */
 222:../STM32CUBEMX/Core/Src/stm32f4xx_it.c **** }
 240              		.loc 1 222 1 is_stmt 0 view .LVU31
 241 0008 08BD     		pop	{r3, pc}
 242              	.L19:
 243 000a 00BF     		.align	2
 244              	.L18:
 245 000c 00000000 		.word	hdma_tim4_ch1
 246              		.cfi_endproc
 247              	.LFE244:
 249              		.section	.text.DMA1_Stream1_IRQHandler,"ax",%progbits
ARM GAS  C:\Users\ysl\AppData\Local\Temp\cchk1Yl7.s 			page 9


 250              		.align	1
 251              		.global	DMA1_Stream1_IRQHandler
 252              		.syntax unified
 253              		.thumb
 254              		.thumb_func
 256              	DMA1_Stream1_IRQHandler:
 257              	.LFB245:
 223:../STM32CUBEMX/Core/Src/stm32f4xx_it.c **** 
 224:../STM32CUBEMX/Core/Src/stm32f4xx_it.c **** /**
 225:../STM32CUBEMX/Core/Src/stm32f4xx_it.c ****   * @brief This function handles DMA1 stream1 global interrupt.
 226:../STM32CUBEMX/Core/Src/stm32f4xx_it.c ****   */
 227:../STM32CUBEMX/Core/Src/stm32f4xx_it.c **** void DMA1_Stream1_IRQHandler(void)
 228:../STM32CUBEMX/Core/Src/stm32f4xx_it.c **** {
 258              		.loc 1 228 1 is_stmt 1 view -0
 259              		.cfi_startproc
 260              		@ args = 0, pretend = 0, frame = 0
 261              		@ frame_needed = 0, uses_anonymous_args = 0
 262 0000 08B5     		push	{r3, lr}
 263              	.LCFI2:
 264              		.cfi_def_cfa_offset 8
 265              		.cfi_offset 3, -8
 266              		.cfi_offset 14, -4
 229:../STM32CUBEMX/Core/Src/stm32f4xx_it.c ****   /* USER CODE BEGIN DMA1_Stream1_IRQn 0 */
 230:../STM32CUBEMX/Core/Src/stm32f4xx_it.c **** 
 231:../STM32CUBEMX/Core/Src/stm32f4xx_it.c ****   /* USER CODE END DMA1_Stream1_IRQn 0 */
 232:../STM32CUBEMX/Core/Src/stm32f4xx_it.c ****   HAL_DMA_IRQHandler(&hdma_usart3_rx);
 267              		.loc 1 232 3 view .LVU33
 268 0002 0248     		ldr	r0, .L22
 269 0004 FFF7FEFF 		bl	HAL_DMA_IRQHandler
 270              	.LVL2:
 233:../STM32CUBEMX/Core/Src/stm32f4xx_it.c ****   /* USER CODE BEGIN DMA1_Stream1_IRQn 1 */
 234:../STM32CUBEMX/Core/Src/stm32f4xx_it.c **** 
 235:../STM32CUBEMX/Core/Src/stm32f4xx_it.c ****   /* USER CODE END DMA1_Stream1_IRQn 1 */
 236:../STM32CUBEMX/Core/Src/stm32f4xx_it.c **** }
 271              		.loc 1 236 1 is_stmt 0 view .LVU34
 272 0008 08BD     		pop	{r3, pc}
 273              	.L23:
 274 000a 00BF     		.align	2
 275              	.L22:
 276 000c 00000000 		.word	hdma_usart3_rx
 277              		.cfi_endproc
 278              	.LFE245:
 280              		.section	.text.DMA1_Stream3_IRQHandler,"ax",%progbits
 281              		.align	1
 282              		.global	DMA1_Stream3_IRQHandler
 283              		.syntax unified
 284              		.thumb
 285              		.thumb_func
 287              	DMA1_Stream3_IRQHandler:
 288              	.LFB246:
 237:../STM32CUBEMX/Core/Src/stm32f4xx_it.c **** 
 238:../STM32CUBEMX/Core/Src/stm32f4xx_it.c **** /**
 239:../STM32CUBEMX/Core/Src/stm32f4xx_it.c ****   * @brief This function handles DMA1 stream3 global interrupt.
 240:../STM32CUBEMX/Core/Src/stm32f4xx_it.c ****   */
 241:../STM32CUBEMX/Core/Src/stm32f4xx_it.c **** void DMA1_Stream3_IRQHandler(void)
 242:../STM32CUBEMX/Core/Src/stm32f4xx_it.c **** {
 289              		.loc 1 242 1 is_stmt 1 view -0
ARM GAS  C:\Users\ysl\AppData\Local\Temp\cchk1Yl7.s 			page 10


 290              		.cfi_startproc
 291              		@ args = 0, pretend = 0, frame = 0
 292              		@ frame_needed = 0, uses_anonymous_args = 0
 293 0000 08B5     		push	{r3, lr}
 294              	.LCFI3:
 295              		.cfi_def_cfa_offset 8
 296              		.cfi_offset 3, -8
 297              		.cfi_offset 14, -4
 243:../STM32CUBEMX/Core/Src/stm32f4xx_it.c ****   /* USER CODE BEGIN DMA1_Stream3_IRQn 0 */
 244:../STM32CUBEMX/Core/Src/stm32f4xx_it.c **** 
 245:../STM32CUBEMX/Core/Src/stm32f4xx_it.c ****   /* USER CODE END DMA1_Stream3_IRQn 0 */
 246:../STM32CUBEMX/Core/Src/stm32f4xx_it.c ****   HAL_DMA_IRQHandler(&hdma_tim4_ch2);
 298              		.loc 1 246 3 view .LVU36
 299 0002 0248     		ldr	r0, .L26
 300 0004 FFF7FEFF 		bl	HAL_DMA_IRQHandler
 301              	.LVL3:
 247:../STM32CUBEMX/Core/Src/stm32f4xx_it.c ****   /* USER CODE BEGIN DMA1_Stream3_IRQn 1 */
 248:../STM32CUBEMX/Core/Src/stm32f4xx_it.c **** 
 249:../STM32CUBEMX/Core/Src/stm32f4xx_it.c ****   /* USER CODE END DMA1_Stream3_IRQn 1 */
 250:../STM32CUBEMX/Core/Src/stm32f4xx_it.c **** }
 302              		.loc 1 250 1 is_stmt 0 view .LVU37
 303 0008 08BD     		pop	{r3, pc}
 304              	.L27:
 305 000a 00BF     		.align	2
 306              	.L26:
 307 000c 00000000 		.word	hdma_tim4_ch2
 308              		.cfi_endproc
 309              	.LFE246:
 311              		.section	.text.USART1_IRQHandler,"ax",%progbits
 312              		.align	1
 313              		.global	USART1_IRQHandler
 314              		.syntax unified
 315              		.thumb
 316              		.thumb_func
 318              	USART1_IRQHandler:
 319              	.LFB247:
 251:../STM32CUBEMX/Core/Src/stm32f4xx_it.c **** 
 252:../STM32CUBEMX/Core/Src/stm32f4xx_it.c **** /**
 253:../STM32CUBEMX/Core/Src/stm32f4xx_it.c ****   * @brief This function handles USART1 global interrupt.
 254:../STM32CUBEMX/Core/Src/stm32f4xx_it.c ****   */
 255:../STM32CUBEMX/Core/Src/stm32f4xx_it.c **** void USART1_IRQHandler(void)
 256:../STM32CUBEMX/Core/Src/stm32f4xx_it.c **** {
 320              		.loc 1 256 1 is_stmt 1 view -0
 321              		.cfi_startproc
 322              		@ args = 0, pretend = 0, frame = 0
 323              		@ frame_needed = 0, uses_anonymous_args = 0
 324 0000 10B5     		push	{r4, lr}
 325              	.LCFI4:
 326              		.cfi_def_cfa_offset 8
 327              		.cfi_offset 4, -8
 328              		.cfi_offset 14, -4
 257:../STM32CUBEMX/Core/Src/stm32f4xx_it.c ****   /* USER CODE BEGIN USART1_IRQn 0 */
 258:../STM32CUBEMX/Core/Src/stm32f4xx_it.c **** 
 259:../STM32CUBEMX/Core/Src/stm32f4xx_it.c ****   /* USER CODE END USART1_IRQn 0 */
 260:../STM32CUBEMX/Core/Src/stm32f4xx_it.c ****   HAL_UART_IRQHandler(&huart1);
 329              		.loc 1 260 3 view .LVU39
 330 0002 044C     		ldr	r4, .L30
ARM GAS  C:\Users\ysl\AppData\Local\Temp\cchk1Yl7.s 			page 11


 331 0004 2046     		mov	r0, r4
 332 0006 FFF7FEFF 		bl	HAL_UART_IRQHandler
 333              	.LVL4:
 261:../STM32CUBEMX/Core/Src/stm32f4xx_it.c ****   /* USER CODE BEGIN USART1_IRQn 1 */
 262:../STM32CUBEMX/Core/Src/stm32f4xx_it.c ****   USER_UART_RxIdleCallback(&huart1);
 334              		.loc 1 262 3 view .LVU40
 335 000a 2046     		mov	r0, r4
 336 000c FFF7FEFF 		bl	USER_UART_RxIdleCallback
 337              	.LVL5:
 263:../STM32CUBEMX/Core/Src/stm32f4xx_it.c ****   /* USER CODE END USART1_IRQn 1 */
 264:../STM32CUBEMX/Core/Src/stm32f4xx_it.c **** }
 338              		.loc 1 264 1 is_stmt 0 view .LVU41
 339 0010 10BD     		pop	{r4, pc}
 340              	.L31:
 341 0012 00BF     		.align	2
 342              	.L30:
 343 0014 00000000 		.word	huart1
 344              		.cfi_endproc
 345              	.LFE247:
 347              		.section	.text.USART3_IRQHandler,"ax",%progbits
 348              		.align	1
 349              		.global	USART3_IRQHandler
 350              		.syntax unified
 351              		.thumb
 352              		.thumb_func
 354              	USART3_IRQHandler:
 355              	.LFB248:
 265:../STM32CUBEMX/Core/Src/stm32f4xx_it.c **** 
 266:../STM32CUBEMX/Core/Src/stm32f4xx_it.c **** /**
 267:../STM32CUBEMX/Core/Src/stm32f4xx_it.c ****   * @brief This function handles USART3 global interrupt.
 268:../STM32CUBEMX/Core/Src/stm32f4xx_it.c ****   */
 269:../STM32CUBEMX/Core/Src/stm32f4xx_it.c **** void USART3_IRQHandler(void)
 270:../STM32CUBEMX/Core/Src/stm32f4xx_it.c **** {
 356              		.loc 1 270 1 is_stmt 1 view -0
 357              		.cfi_startproc
 358              		@ args = 0, pretend = 0, frame = 0
 359              		@ frame_needed = 0, uses_anonymous_args = 0
 360 0000 10B5     		push	{r4, lr}
 361              	.LCFI5:
 362              		.cfi_def_cfa_offset 8
 363              		.cfi_offset 4, -8
 364              		.cfi_offset 14, -4
 271:../STM32CUBEMX/Core/Src/stm32f4xx_it.c ****   /* USER CODE BEGIN USART3_IRQn 0 */
 272:../STM32CUBEMX/Core/Src/stm32f4xx_it.c **** 
 273:../STM32CUBEMX/Core/Src/stm32f4xx_it.c ****   /* USER CODE END USART3_IRQn 0 */
 274:../STM32CUBEMX/Core/Src/stm32f4xx_it.c ****   HAL_UART_IRQHandler(&huart3);
 365              		.loc 1 274 3 view .LVU43
 366 0002 044C     		ldr	r4, .L34
 367 0004 2046     		mov	r0, r4
 368 0006 FFF7FEFF 		bl	HAL_UART_IRQHandler
 369              	.LVL6:
 275:../STM32CUBEMX/Core/Src/stm32f4xx_it.c ****   /* USER CODE BEGIN USART3_IRQn 1 */
 276:../STM32CUBEMX/Core/Src/stm32f4xx_it.c ****   USER_UART_RxIdleCallback(&huart3);
 370              		.loc 1 276 3 view .LVU44
 371 000a 2046     		mov	r0, r4
 372 000c FFF7FEFF 		bl	USER_UART_RxIdleCallback
 373              	.LVL7:
ARM GAS  C:\Users\ysl\AppData\Local\Temp\cchk1Yl7.s 			page 12


 277:../STM32CUBEMX/Core/Src/stm32f4xx_it.c ****   /* USER CODE END USART3_IRQn 1 */
 278:../STM32CUBEMX/Core/Src/stm32f4xx_it.c **** }
 374              		.loc 1 278 1 is_stmt 0 view .LVU45
 375 0010 10BD     		pop	{r4, pc}
 376              	.L35:
 377 0012 00BF     		.align	2
 378              	.L34:
 379 0014 00000000 		.word	huart3
 380              		.cfi_endproc
 381              	.LFE248:
 383              		.section	.text.TIM7_IRQHandler,"ax",%progbits
 384              		.align	1
 385              		.global	TIM7_IRQHandler
 386              		.syntax unified
 387              		.thumb
 388              		.thumb_func
 390              	TIM7_IRQHandler:
 391              	.LFB249:
 279:../STM32CUBEMX/Core/Src/stm32f4xx_it.c **** 
 280:../STM32CUBEMX/Core/Src/stm32f4xx_it.c **** /**
 281:../STM32CUBEMX/Core/Src/stm32f4xx_it.c ****   * @brief This function handles TIM7 global interrupt.
 282:../STM32CUBEMX/Core/Src/stm32f4xx_it.c ****   */
 283:../STM32CUBEMX/Core/Src/stm32f4xx_it.c **** void TIM7_IRQHandler(void)
 284:../STM32CUBEMX/Core/Src/stm32f4xx_it.c **** {
 392              		.loc 1 284 1 is_stmt 1 view -0
 393              		.cfi_startproc
 394              		@ args = 0, pretend = 0, frame = 0
 395              		@ frame_needed = 0, uses_anonymous_args = 0
 396 0000 08B5     		push	{r3, lr}
 397              	.LCFI6:
 398              		.cfi_def_cfa_offset 8
 399              		.cfi_offset 3, -8
 400              		.cfi_offset 14, -4
 285:../STM32CUBEMX/Core/Src/stm32f4xx_it.c ****   /* USER CODE BEGIN TIM7_IRQn 0 */
 286:../STM32CUBEMX/Core/Src/stm32f4xx_it.c **** 
 287:../STM32CUBEMX/Core/Src/stm32f4xx_it.c ****   /* USER CODE END TIM7_IRQn 0 */
 288:../STM32CUBEMX/Core/Src/stm32f4xx_it.c ****   HAL_TIM_IRQHandler(&htim7);
 401              		.loc 1 288 3 view .LVU47
 402 0002 0248     		ldr	r0, .L38
 403 0004 FFF7FEFF 		bl	HAL_TIM_IRQHandler
 404              	.LVL8:
 289:../STM32CUBEMX/Core/Src/stm32f4xx_it.c ****   /* USER CODE BEGIN TIM7_IRQn 1 */
 290:../STM32CUBEMX/Core/Src/stm32f4xx_it.c **** 
 291:../STM32CUBEMX/Core/Src/stm32f4xx_it.c ****   /* USER CODE END TIM7_IRQn 1 */
 292:../STM32CUBEMX/Core/Src/stm32f4xx_it.c **** }
 405              		.loc 1 292 1 is_stmt 0 view .LVU48
 406 0008 08BD     		pop	{r3, pc}
 407              	.L39:
 408 000a 00BF     		.align	2
 409              	.L38:
 410 000c 00000000 		.word	htim7
 411              		.cfi_endproc
 412              	.LFE249:
 414              		.section	.text.DMA2_Stream0_IRQHandler,"ax",%progbits
 415              		.align	1
 416              		.global	DMA2_Stream0_IRQHandler
 417              		.syntax unified
ARM GAS  C:\Users\ysl\AppData\Local\Temp\cchk1Yl7.s 			page 13


 418              		.thumb
 419              		.thumb_func
 421              	DMA2_Stream0_IRQHandler:
 422              	.LFB250:
 293:../STM32CUBEMX/Core/Src/stm32f4xx_it.c **** 
 294:../STM32CUBEMX/Core/Src/stm32f4xx_it.c **** /**
 295:../STM32CUBEMX/Core/Src/stm32f4xx_it.c ****   * @brief This function handles DMA2 stream0 global interrupt.
 296:../STM32CUBEMX/Core/Src/stm32f4xx_it.c ****   */
 297:../STM32CUBEMX/Core/Src/stm32f4xx_it.c **** void DMA2_Stream0_IRQHandler(void)
 298:../STM32CUBEMX/Core/Src/stm32f4xx_it.c **** {
 423              		.loc 1 298 1 is_stmt 1 view -0
 424              		.cfi_startproc
 425              		@ args = 0, pretend = 0, frame = 0
 426              		@ frame_needed = 0, uses_anonymous_args = 0
 427 0000 08B5     		push	{r3, lr}
 428              	.LCFI7:
 429              		.cfi_def_cfa_offset 8
 430              		.cfi_offset 3, -8
 431              		.cfi_offset 14, -4
 299:../STM32CUBEMX/Core/Src/stm32f4xx_it.c ****   /* USER CODE BEGIN DMA2_Stream0_IRQn 0 */
 300:../STM32CUBEMX/Core/Src/stm32f4xx_it.c **** 
 301:../STM32CUBEMX/Core/Src/stm32f4xx_it.c ****   /* USER CODE END DMA2_Stream0_IRQn 0 */
 302:../STM32CUBEMX/Core/Src/stm32f4xx_it.c ****   HAL_DMA_IRQHandler(&hdma_adc1);
 432              		.loc 1 302 3 view .LVU50
 433 0002 0248     		ldr	r0, .L42
 434 0004 FFF7FEFF 		bl	HAL_DMA_IRQHandler
 435              	.LVL9:
 303:../STM32CUBEMX/Core/Src/stm32f4xx_it.c ****   /* USER CODE BEGIN DMA2_Stream0_IRQn 1 */
 304:../STM32CUBEMX/Core/Src/stm32f4xx_it.c **** 
 305:../STM32CUBEMX/Core/Src/stm32f4xx_it.c ****   /* USER CODE END DMA2_Stream0_IRQn 1 */
 306:../STM32CUBEMX/Core/Src/stm32f4xx_it.c **** }
 436              		.loc 1 306 1 is_stmt 0 view .LVU51
 437 0008 08BD     		pop	{r3, pc}
 438              	.L43:
 439 000a 00BF     		.align	2
 440              	.L42:
 441 000c 00000000 		.word	hdma_adc1
 442              		.cfi_endproc
 443              	.LFE250:
 445              		.section	.text.DMA2_Stream2_IRQHandler,"ax",%progbits
 446              		.align	1
 447              		.global	DMA2_Stream2_IRQHandler
 448              		.syntax unified
 449              		.thumb
 450              		.thumb_func
 452              	DMA2_Stream2_IRQHandler:
 453              	.LFB251:
 307:../STM32CUBEMX/Core/Src/stm32f4xx_it.c **** 
 308:../STM32CUBEMX/Core/Src/stm32f4xx_it.c **** /**
 309:../STM32CUBEMX/Core/Src/stm32f4xx_it.c ****   * @brief This function handles DMA2 stream2 global interrupt.
 310:../STM32CUBEMX/Core/Src/stm32f4xx_it.c ****   */
 311:../STM32CUBEMX/Core/Src/stm32f4xx_it.c **** void DMA2_Stream2_IRQHandler(void)
 312:../STM32CUBEMX/Core/Src/stm32f4xx_it.c **** {
 454              		.loc 1 312 1 is_stmt 1 view -0
 455              		.cfi_startproc
 456              		@ args = 0, pretend = 0, frame = 0
 457              		@ frame_needed = 0, uses_anonymous_args = 0
ARM GAS  C:\Users\ysl\AppData\Local\Temp\cchk1Yl7.s 			page 14


 458 0000 08B5     		push	{r3, lr}
 459              	.LCFI8:
 460              		.cfi_def_cfa_offset 8
 461              		.cfi_offset 3, -8
 462              		.cfi_offset 14, -4
 313:../STM32CUBEMX/Core/Src/stm32f4xx_it.c ****   /* USER CODE BEGIN DMA2_Stream2_IRQn 0 */
 314:../STM32CUBEMX/Core/Src/stm32f4xx_it.c **** 
 315:../STM32CUBEMX/Core/Src/stm32f4xx_it.c ****   /* USER CODE END DMA2_Stream2_IRQn 0 */
 316:../STM32CUBEMX/Core/Src/stm32f4xx_it.c ****   HAL_DMA_IRQHandler(&hdma_adc2);
 463              		.loc 1 316 3 view .LVU53
 464 0002 0248     		ldr	r0, .L46
 465 0004 FFF7FEFF 		bl	HAL_DMA_IRQHandler
 466              	.LVL10:
 317:../STM32CUBEMX/Core/Src/stm32f4xx_it.c ****   /* USER CODE BEGIN DMA2_Stream2_IRQn 1 */
 318:../STM32CUBEMX/Core/Src/stm32f4xx_it.c **** 
 319:../STM32CUBEMX/Core/Src/stm32f4xx_it.c ****   /* USER CODE END DMA2_Stream2_IRQn 1 */
 320:../STM32CUBEMX/Core/Src/stm32f4xx_it.c **** }
 467              		.loc 1 320 1 is_stmt 0 view .LVU54
 468 0008 08BD     		pop	{r3, pc}
 469              	.L47:
 470 000a 00BF     		.align	2
 471              	.L46:
 472 000c 00000000 		.word	hdma_adc2
 473              		.cfi_endproc
 474              	.LFE251:
 476              		.section	.text.DMA2_Stream5_IRQHandler,"ax",%progbits
 477              		.align	1
 478              		.global	DMA2_Stream5_IRQHandler
 479              		.syntax unified
 480              		.thumb
 481              		.thumb_func
 483              	DMA2_Stream5_IRQHandler:
 484              	.LFB252:
 321:../STM32CUBEMX/Core/Src/stm32f4xx_it.c **** 
 322:../STM32CUBEMX/Core/Src/stm32f4xx_it.c **** /**
 323:../STM32CUBEMX/Core/Src/stm32f4xx_it.c ****   * @brief This function handles DMA2 stream5 global interrupt.
 324:../STM32CUBEMX/Core/Src/stm32f4xx_it.c ****   */
 325:../STM32CUBEMX/Core/Src/stm32f4xx_it.c **** void DMA2_Stream5_IRQHandler(void)
 326:../STM32CUBEMX/Core/Src/stm32f4xx_it.c **** {
 485              		.loc 1 326 1 is_stmt 1 view -0
 486              		.cfi_startproc
 487              		@ args = 0, pretend = 0, frame = 0
 488              		@ frame_needed = 0, uses_anonymous_args = 0
 489 0000 08B5     		push	{r3, lr}
 490              	.LCFI9:
 491              		.cfi_def_cfa_offset 8
 492              		.cfi_offset 3, -8
 493              		.cfi_offset 14, -4
 327:../STM32CUBEMX/Core/Src/stm32f4xx_it.c ****   /* USER CODE BEGIN DMA2_Stream5_IRQn 0 */
 328:../STM32CUBEMX/Core/Src/stm32f4xx_it.c **** 
 329:../STM32CUBEMX/Core/Src/stm32f4xx_it.c ****   /* USER CODE END DMA2_Stream5_IRQn 0 */
 330:../STM32CUBEMX/Core/Src/stm32f4xx_it.c ****   HAL_DMA_IRQHandler(&hdma_usart1_rx);
 494              		.loc 1 330 3 view .LVU56
 495 0002 0248     		ldr	r0, .L50
 496 0004 FFF7FEFF 		bl	HAL_DMA_IRQHandler
 497              	.LVL11:
 331:../STM32CUBEMX/Core/Src/stm32f4xx_it.c ****   /* USER CODE BEGIN DMA2_Stream5_IRQn 1 */
ARM GAS  C:\Users\ysl\AppData\Local\Temp\cchk1Yl7.s 			page 15


 332:../STM32CUBEMX/Core/Src/stm32f4xx_it.c **** 
 333:../STM32CUBEMX/Core/Src/stm32f4xx_it.c ****   /* USER CODE END DMA2_Stream5_IRQn 1 */
 334:../STM32CUBEMX/Core/Src/stm32f4xx_it.c **** }
 498              		.loc 1 334 1 is_stmt 0 view .LVU57
 499 0008 08BD     		pop	{r3, pc}
 500              	.L51:
 501 000a 00BF     		.align	2
 502              	.L50:
 503 000c 00000000 		.word	hdma_usart1_rx
 504              		.cfi_endproc
 505              	.LFE252:
 507              		.section	.text.DMA2_Stream7_IRQHandler,"ax",%progbits
 508              		.align	1
 509              		.global	DMA2_Stream7_IRQHandler
 510              		.syntax unified
 511              		.thumb
 512              		.thumb_func
 514              	DMA2_Stream7_IRQHandler:
 515              	.LFB253:
 335:../STM32CUBEMX/Core/Src/stm32f4xx_it.c **** 
 336:../STM32CUBEMX/Core/Src/stm32f4xx_it.c **** /**
 337:../STM32CUBEMX/Core/Src/stm32f4xx_it.c ****   * @brief This function handles DMA2 stream7 global interrupt.
 338:../STM32CUBEMX/Core/Src/stm32f4xx_it.c ****   */
 339:../STM32CUBEMX/Core/Src/stm32f4xx_it.c **** void DMA2_Stream7_IRQHandler(void)
 340:../STM32CUBEMX/Core/Src/stm32f4xx_it.c **** {
 516              		.loc 1 340 1 is_stmt 1 view -0
 517              		.cfi_startproc
 518              		@ args = 0, pretend = 0, frame = 0
 519              		@ frame_needed = 0, uses_anonymous_args = 0
 520 0000 08B5     		push	{r3, lr}
 521              	.LCFI10:
 522              		.cfi_def_cfa_offset 8
 523              		.cfi_offset 3, -8
 524              		.cfi_offset 14, -4
 341:../STM32CUBEMX/Core/Src/stm32f4xx_it.c ****   /* USER CODE BEGIN DMA2_Stream7_IRQn 0 */
 342:../STM32CUBEMX/Core/Src/stm32f4xx_it.c **** 
 343:../STM32CUBEMX/Core/Src/stm32f4xx_it.c ****   /* USER CODE END DMA2_Stream7_IRQn 0 */
 344:../STM32CUBEMX/Core/Src/stm32f4xx_it.c ****   HAL_DMA_IRQHandler(&hdma_usart1_tx);
 525              		.loc 1 344 3 view .LVU59
 526 0002 0248     		ldr	r0, .L54
 527 0004 FFF7FEFF 		bl	HAL_DMA_IRQHandler
 528              	.LVL12:
 345:../STM32CUBEMX/Core/Src/stm32f4xx_it.c ****   /* USER CODE BEGIN DMA2_Stream7_IRQn 1 */
 346:../STM32CUBEMX/Core/Src/stm32f4xx_it.c **** 
 347:../STM32CUBEMX/Core/Src/stm32f4xx_it.c ****   /* USER CODE END DMA2_Stream7_IRQn 1 */
 348:../STM32CUBEMX/Core/Src/stm32f4xx_it.c **** }
 529              		.loc 1 348 1 is_stmt 0 view .LVU60
 530 0008 08BD     		pop	{r3, pc}
 531              	.L55:
 532 000a 00BF     		.align	2
 533              	.L54:
 534 000c 00000000 		.word	hdma_usart1_tx
 535              		.cfi_endproc
 536              	.LFE253:
 538              		.text
 539              	.Letext0:
 540              		.file 2 "c:\\program files (x86)\\arm gnu toolchain arm-none-eabi\\11.2 2022.02\\arm-none-eabi\\in
ARM GAS  C:\Users\ysl\AppData\Local\Temp\cchk1Yl7.s 			page 16


 541              		.file 3 "c:\\program files (x86)\\arm gnu toolchain arm-none-eabi\\11.2 2022.02\\arm-none-eabi\\in
 542              		.file 4 "../STM32CUBEMX/Drivers/CMSIS/Device/ST/STM32F4xx/Include/stm32f405xx.h"
 543              		.file 5 "../STM32CUBEMX/Drivers/STM32F4xx_HAL_Driver/Inc/stm32f4xx_hal_def.h"
 544              		.file 6 "../STM32CUBEMX/Drivers/STM32F4xx_HAL_Driver/Inc/stm32f4xx_hal_dma.h"
 545              		.file 7 "../STM32CUBEMX/Drivers/STM32F4xx_HAL_Driver/Inc/stm32f4xx_hal_tim.h"
 546              		.file 8 "../STM32CUBEMX/Drivers/STM32F4xx_HAL_Driver/Inc/stm32f4xx_hal_uart.h"
 547              		.file 9 "../STM32CUBEMX/Drivers/STM32F4xx_HAL_Driver/Inc/stm32f4xx_hal.h"
ARM GAS  C:\Users\ysl\AppData\Local\Temp\cchk1Yl7.s 			page 17

